	.file	"bl_romfs.c"
	.option nopic
	.attribute arch, "rv32i2p1_m2p0_f2p2_c2p0_zicsr2p0_zmmul1p0_zca1p0_zcf1p0"
	.attribute unaligned_access, 0
	.attribute stack_align, 16
	.text
.Ltext0:
	.cfi_sections	.debug_frame
	.section	.text.dirent_type,"ax",@progbits
	.align	1
	.type	dirent_type, @function
dirent_type:
.LVL0:
.LFB8:
.LM1:
	.cfi_startproc
.LM2:
.LM3:
	lbu	a5,3(a0)
.LM4:
	andi	a5,a5,7
.LM5:
	beq	a5,zero,.L3
.LM6:
.LM7:
	li	a4,2
.LM8:
	mv	a0,a5
.LVL1:
.LM9:
	beq	a5,a4,.L1
.LM10:
.LM11:
	li	a4,1
	beq	a5,a4,.L1
.LM12:
	li	a0,3
	ret
.LVL2:
.L3:
.LM13:
	li	a0,0
.LVL3:
.L1:
.LM14:
	ret
	.cfi_endproc
.LFE8:
	.size	dirent_type, .-dirent_type
	.section	.text.dirent_hardfh,"ax",@progbits
	.align	1
	.type	dirent_hardfh, @function
dirent_hardfh:
.LVL4:
.LFB10:
.LM15:
	.cfi_startproc
.LM16:
.LM17:
	lw	a5,0(a0)
.LM18:
	li	a3,16711680
.LM19:
	srli	a4,a5,24
.LM20:
	slli	a0,a5,24
.LVL5:
.LM21:
	or	a0,a0,a4
.LM22:
	slli	a4,a5,8
	and	a4,a4,a3
.LM23:
	or	a0,a0,a4
.LM24:
	li	a4,65536
	addi	a4,a4,-256
	srli	a5,a5,8
	and	a5,a5,a4
.LM25:
	or	a0,a0,a5
.LM26:
	andi	a0,a0,-16
	ret
	.cfi_endproc
.LFE10:
	.size	dirent_hardfh, .-dirent_hardfh
	.section	.text.dirent_childaddr,"ax",@progbits
	.align	1
	.type	dirent_childaddr, @function
dirent_childaddr:
.LVL6:
.LFB11:
.LM27:
	.cfi_startproc
.LM28:
.LM29:
	lw	a5,4(a0)
.LM30:
	li	a3,16711680
.LM31:
	srli	a4,a5,24
.LM32:
	slli	a0,a5,24
.LVL7:
.LM33:
	or	a0,a0,a4
.LM34:
	slli	a4,a5,8
	and	a4,a4,a3
.LM35:
	or	a0,a0,a4
.LM36:
	li	a4,65536
	addi	a4,a4,-256
	srli	a5,a5,8
	and	a5,a5,a4
.LM37:
	or	a0,a0,a5
.LM38:
	andi	a0,a0,-16
	ret
	.cfi_endproc
.LFE11:
	.size	dirent_childaddr, .-dirent_childaddr
	.section	.text.dirent_size,"ax",@progbits
	.align	1
	.type	dirent_size, @function
dirent_size:
.LVL8:
.LFB12:
.LM39:
	.cfi_startproc
.LM40:
.LM41:
	lw	a5,8(a0)
.LM42:
	li	a3,16711680
.LM43:
	srli	a4,a5,24
.LM44:
	slli	a0,a5,24
.LVL9:
.LM45:
	or	a0,a0,a4
.LM46:
	slli	a4,a5,8
	and	a4,a4,a3
.LM47:
	or	a0,a0,a4
.LM48:
	li	a4,65536
	addi	a4,a4,-256
	srli	a5,a5,8
	and	a5,a5,a4
.LM49:
	or	a0,a0,a5
	ret
	.cfi_endproc
.LFE12:
	.size	dirent_size, .-dirent_size
	.section	.text.romfs_close,"ax",@progbits
	.align	1
	.type	romfs_close, @function
romfs_close:
.LVL10:
.LFB16:
.LM50:
	.cfi_startproc
.LM51:
.LM52:
.LM53:
	sw	zero,4(a0)
.LM54:
.LM55:
	sw	zero,8(a0)
.LM56:
.LM57:
	li	a0,-1
.LVL11:
.LM58:
	ret
	.cfi_endproc
.LFE16:
	.size	romfs_close, .-romfs_close
	.section	.text.romfs_ioctl,"ax",@progbits
	.align	1
	.globl	romfs_ioctl
	.type	romfs_ioctl, @function
romfs_ioctl:
.LVL12:
.LFB18:
.LM59:
	.cfi_startproc
.LM60:
.LM61:
.LM62:
.LM63:
	beq	a2,zero,.L12
	beq	a0,zero,.L12
.LM64:
	li	a4,1
.LM65:
	li	a5,-3
.LM66:
	bne	a1,a4,.L15
.LM67:
	addi	sp,sp,-16
	.cfi_def_cfa_offset 16
	sw	ra,12(sp)
	sw	s0,8(sp)
	sw	s1,4(sp)
	sw	s2,0(sp)
	.cfi_offset 1, -4
	.cfi_offset 8, -8
	.cfi_offset 9, -12
	.cfi_offset 18, -16
.LM68:
	lw	s2,4(a0)
	mv	s1,a0
.LM69:
.LM70:
	mv	s0,a2
.LM71:
	addi	a0,s2,16
.LVL13:
.LM72:
	call	strlen
.LVL14:
.LM73:
	addi	a5,a0,16
.LM74:
	andi	a5,a5,-16
.LM75:
	addi	a5,a5,16
	add	s2,s2,a5
.LM76:
	sw	s2,0(s0)
.LM77:
.LM78:
	lw	a0,4(s1)
	call	dirent_size
.LVL15:
.LM79:
	sw	a0,4(s0)
.LM80:
.LM81:
	lw	ra,12(sp)
	.cfi_restore 1
	lw	s0,8(sp)
	.cfi_restore 8
.LVL16:
.LM82:
	li	a5,0
.LM83:
	lw	s1,4(sp)
	.cfi_restore 9
.LVL17:
.LM84:
	lw	s2,0(sp)
	.cfi_restore 18
	mv	a0,a5
	addi	sp,sp,16
	.cfi_def_cfa_offset 0
	jr	ra
.LVL18:
.L12:
.LM85:
	li	a5,-2
.L15:
.LM86:
	mv	a0,a5
.LVL19:
.LM87:
	ret
	.cfi_endproc
.LFE18:
	.size	romfs_ioctl, .-romfs_ioctl
	.section	.text.romfs_read,"ax",@progbits
	.align	1
	.type	romfs_read, @function
romfs_read:
.LVL20:
.LFB17:
.LM88:
	.cfi_startproc
.LM89:
.LM90:
.LM91:
.LM92:
.LM93:
	addi	sp,sp,-32
	.cfi_def_cfa_offset 32
	sw	ra,28(sp)
	sw	s0,24(sp)
	sw	s1,20(sp)
	sw	s4,8(sp)
	sw	s5,4(sp)
	sw	s2,16(sp)
	sw	s3,12(sp)
	.cfi_offset 1, -4
	.cfi_offset 8, -8
	.cfi_offset 9, -12
	.cfi_offset 20, -24
	.cfi_offset 21, -28
	.cfi_offset 18, -16
	.cfi_offset 19, -20
.LM94:
	lw	s2,4(a0)
.LM95:
	mv	s1,a0
	mv	s4,a1
.LM96:
	addi	a0,s2,16
.LVL21:
.LM97:
	mv	s0,a2
.LM98:
	call	strlen
.LVL22:
.LM99:
	mv	s5,a0
.LVL23:
.LM100:
.LM101:
	lw	a0,4(s1)
.LVL24:
.LM102:
	call	dirent_size
.LVL25:
.LM103:
.LM104:
	lw	a4,8(s1)
.LM105:
	bgeu	a4,a0,.L21
.LM106:
	addi	a5,s5,16
.LVL26:
.LM107:
	andi	a5,a5,-16
.LVL27:
.LM108:
	addi	a5,a5,16
.LM109:
	add	a5,a5,a4
	add	a1,s2,a5
.LM110:
	add	a5,a4,s0
	mv	s3,a0
.LM111:
.LM112:
	bgeu	a5,a0,.L20
.LM113:
.LVL28:
.LM114:
	mv	a2,s0
	mv	a0,s4
.LVL29:
.LM115:
	call	memcpy
.LVL30:
.LM116:
.LM117:
	lw	a5,8(s1)
	add	a5,a5,s0
	sw	a5,8(s1)
.LVL31:
.L18:
.LM118:
	lw	ra,28(sp)
	.cfi_remember_state
	.cfi_restore 1
	mv	a0,s0
	lw	s0,24(sp)
	.cfi_restore 8
	lw	s1,20(sp)
	.cfi_restore 9
.LVL32:
.LM119:
	lw	s2,16(sp)
	.cfi_restore 18
.LVL33:
.LM120:
	lw	s3,12(sp)
	.cfi_restore 19
	lw	s4,8(sp)
	.cfi_restore 20
.LVL34:
.LM121:
	lw	s5,4(sp)
	.cfi_restore 21
	addi	sp,sp,32
	.cfi_def_cfa_offset 0
	jr	ra
.LVL35:
.L20:
	.cfi_restore_state
.LM122:
.LM123:
	sub	s0,a0,a4
.LVL36:
.LM124:
	mv	a2,s0
	mv	a0,s4
.LVL37:
.LM125:
	call	memcpy
.LVL38:
.LM126:
.LM127:
	sw	s3,8(s1)
	j	.L18
.LVL39:
.L21:
.LM128:
	li	s0,0
.LVL40:
.LM129:
	j	.L18
	.cfi_endproc
.LFE17:
	.size	romfs_read, .-romfs_read
	.section	.rodata.file_info.str1.4,"aMS",@progbits,1
	.align	2
.LC8:
	.string	"bl_romfs.c"
	.align	2
.LC9:
	.string	"\033[31mERROR \033[0m"
	.align	2
.LC10:
	.string	"[%10u][%s: %s:%4d] addr_start = %p, dirent_type(addr_start) = %d\r\n"
	.align	2
.LC11:
	.string	"[%10u][%s: %s:%4d] unknow the dirent_type.\r\n"
	.align	2
.LC12:
	.string	"\033[33mWARN  \033[0m"
	.align	2
.LC13:
	.string	"[%10u][%s: %s:%4d] start >= end, not found path = %s, addr_start = %p, addr_end = %p\r\n"
	.section	.text.file_info,"ax",@progbits
	.align	1
	.type	file_info, @function
file_info:
.LVL41:
.LFB13:
.LM130:
	.cfi_startproc
.LM131:
.LM132:
	addi	sp,sp,-64
	.cfi_def_cfa_offset 64
	sw	s3,44(sp)
	sw	s4,40(sp)
	sw	s8,24(sp)
	sw	ra,60(sp)
	sw	s0,56(sp)
	sw	s1,52(sp)
	sw	s2,48(sp)
	sw	s5,36(sp)
	sw	s6,32(sp)
	sw	s7,28(sp)
	.cfi_offset 19, -20
	.cfi_offset 20, -24
	.cfi_offset 24, -40
	.cfi_offset 1, -4
	.cfi_offset 8, -8
	.cfi_offset 9, -12
	.cfi_offset 18, -16
	.cfi_offset 21, -28
	.cfi_offset 22, -32
	.cfi_offset 23, -36
.LM133:
	lw	s0,0(a1)
.LVL42:
.LM134:
.LM135:
	lw	s1,0(a2)
.LVL43:
.LM136:
.LM137:
.LM138:
.LM139:
	mv	s8,a0
	mv	s4,a1
	mv	s3,a2
.LM140:
	call	strlen
.LVL44:
.LM141:
	li	a5,64
	bgtu	a0,a5,.L24
.LM142:
.LM143:
.LM144:
	lui	s2,%hi(romfs_root)
	lw	a5,%lo(romfs_root)(s2)
.LM145:
	bne	a5,s0,.L25
.LM146:
.LM147:
	addi	a0,s0,16
	call	strlen
.LVL45:
.LM148:
	addi	a0,a0,16
.LM149:
	andi	a0,a0,-16
.LM150:
	addi	a0,a0,80
.LM151:
	add	s0,s0,a0
.LVL46:
.L25:
.LM152:
	li	s5,1
.LM153:
	li	s6,2
.LVL47:
.L35:
.LM154:
.LM155:
.LM156:
.LM157:
	mv	a0,s0
	call	dirent_type
.LVL48:
.LM158:
	bne	a0,s5,.L26
.LM159:
.LM160:
	mv	a0,s8
	call	strlen
.LVL49:
	mv	a2,a0
.LM161:
	addi	a1,s0,16
	mv	a0,s8
	call	memcmp
.LVL50:
.LM162:
	bne	a0,zero,.L27
.LM163:
.LM164:
	mv	a0,s8
	call	strlen
.LVL51:
.LM165:
	add	a0,s0,a0
.LM166:
	lbu	a5,16(a0)
	bne	a5,zero,.L27
.LM167:
.LM168:
	mv	a0,s0
	call	dirent_hardfh
.LVL52:
.LM169:
	beq	a0,zero,.L28
.LM170:
.LM171:
	lw	s1,%lo(romfs_root)(s2)
.LVL53:
.L49:
.LM172:
	add	s1,s1,a0
.LVL54:
.LM173:
.L28:
.LM174:
.LM175:
.LM176:
	sw	s0,0(s4)
.LM177:
.LM178:
	sw	s1,0(s3)
.LM179:
.LM180:
	li	a0,0
	j	.L23
.L26:
.LM181:
.LM182:
	bne	a0,s6,.L29
.LM183:
.LM184:
	mv	a0,s8
	call	strlen
.LVL55:
	mv	a2,a0
.LM185:
	addi	a1,s0,16
	mv	a0,s8
	call	memcmp
.LVL56:
.LM186:
	bne	a0,zero,.L27
.LM187:
.LM188:
	mv	a0,s8
	call	strlen
.LVL57:
.LM189:
	add	a0,s0,a0
.LM190:
	lbu	a5,16(a0)
	bne	a5,zero,.L27
.LM191:
.LM192:
	mv	a0,s0
.LM193:
	lw	s1,%lo(romfs_root)(s2)
.LVL58:
.LM194:
	call	dirent_hardfh
.LVL59:
	j	.L49
.LVL60:
.L29:
.LM195:
.LM196:
	beq	a0,zero,.L27
.LM197:
.LM198:
.LM199:
.LBB142:
.LBI142:
.LM200:
.LBB143:
.LM201:
.LM202:
	lui	s3,%hi(TrapNetCounter)
.LVL61:
.LM203:
.LBE143:
.LBE142:
.LM204:
	lw	a5,%lo(TrapNetCounter)(s3)
	beq	a5,zero,.L30
.LM205:
	call	xTaskGetTickCountFromISR
.LVL62:
.L46:
	sw	a0,12(sp)
.LM206:
	mv	a0,s0
	call	dirent_type
.LVL63:
.LM207:
	lw	a1,12(sp)
	mv	a6,a0
	lui	s1,%hi(.LC8)
.LVL64:
.LM208:
	lui	s2,%hi(.LC9)
	lui	a0,%hi(.LC10)
	mv	a5,s0
	li	a4,230
	addi	a3,s1,%lo(.LC8)
	addi	a2,s2,%lo(.LC9)
	addi	a0,a0,%lo(.LC10)
	call	bl_printk
.LVL65:
.LM209:
.LM210:
.LM211:
	li	a4,0
	li	a3,8
	mv	a2,s0
	li	a1,231
	addi	a0,s1,%lo(.LC8)
	call	log_buf_out
.LVL66:
.LM212:
.LM213:
.LM214:
.LBB144:
.LBI144:
.LM215:
.LBB145:
.LM216:
.LBE145:
.LBE144:
.LM217:
	lw	a5,%lo(TrapNetCounter)(s3)
	beq	a5,zero,.L32
.LM218:
	call	xTaskGetTickCountFromISR
.LVL67:
.L47:
.LM219:
	mv	a1,a0
.LM220:
	lui	a0,%hi(.LC11)
	li	a4,232
	addi	a3,s1,%lo(.LC8)
	addi	a2,s2,%lo(.LC9)
	addi	a0,a0,%lo(.LC11)
	call	bl_printk
.LVL68:
.LM221:
.LM222:
.LM223:
.L24:
.LM224:
	li	a0,-1
.LVL69:
.L23:
.LM225:
	lw	ra,60(sp)
	.cfi_remember_state
	.cfi_restore 1
	lw	s0,56(sp)
	.cfi_restore 8
.LVL70:
.LM226:
	lw	s1,52(sp)
	.cfi_restore 9
	lw	s2,48(sp)
	.cfi_restore 18
	lw	s3,44(sp)
	.cfi_restore 19
	lw	s4,40(sp)
	.cfi_restore 20
.LVL71:
.LM227:
	lw	s5,36(sp)
	.cfi_restore 21
	lw	s6,32(sp)
	.cfi_restore 22
	lw	s7,28(sp)
	.cfi_restore 23
	lw	s8,24(sp)
	.cfi_restore 24
.LVL72:
.LM228:
	addi	sp,sp,64
	.cfi_def_cfa_offset 0
	jr	ra
.LVL73:
.L30:
	.cfi_restore_state
.LM229:
	call	xTaskGetTickCount
.LVL74:
	j	.L46
.LVL75:
.L32:
.LM230:
	call	xTaskGetTickCount
.LVL76:
	j	.L47
.LVL77:
.L27:
.LM231:
.LM232:
.LM233:
	lw	s7,%lo(romfs_root)(s2)
.LM234:
	mv	a0,s0
	call	dirent_hardfh
.LVL78:
.LM235:
	add	s0,s7,a0
.LVL79:
.LM236:
.LM237:
	bgtu	s1,s0,.L35
.LM238:
.LM239:
.LM240:
.LBB146:
.LBI146:
.LM241:
.LBB147:
.LM242:
.LM243:
	lui	a5,%hi(TrapNetCounter)
.LBE147:
.LBE146:
.LM244:
	lw	a5,%lo(TrapNetCounter)(a5)
	beq	a5,zero,.L36
.LM245:
	call	xTaskGetTickCountFromISR
.LVL80:
.L48:
.LM246:
	mv	a1,a0
.LM247:
	lui	a3,%hi(.LC8)
	lui	a2,%hi(.LC12)
	lui	a0,%hi(.LC13)
	mv	a7,s1
	mv	a6,s0
	mv	a5,s8
	li	a4,239
	addi	a3,a3,%lo(.LC8)
	addi	a2,a2,%lo(.LC12)
	addi	a0,a0,%lo(.LC13)
	call	bl_printk
.LVL81:
.LM248:
.LM249:
.LM250:
.LM251:
	j	.L24
.L36:
.LM252:
	call	xTaskGetTickCount
.LVL82:
	j	.L48
	.cfi_endproc
.LFE13:
	.size	file_info, .-file_info
	.section	.text.romfs_closedir,"ax",@progbits
	.align	1
	.type	romfs_closedir, @function
romfs_closedir:
.LVL83:
.LFB23:
.LM253:
	.cfi_startproc
.LM254:
.LM255:
.LM256:
	beq	a1,zero,.L53
.LM257:
	addi	sp,sp,-16
	.cfi_def_cfa_offset 16
	mv	a0,a1
.LVL84:
.LM258:
.LM259:
	sw	ra,12(sp)
	.cfi_offset 1, -4
.LM260:
	call	aos_free
.LVL85:
.LM261:
.LM262:
	lw	ra,12(sp)
	.cfi_restore 1
.LM263:
	li	a0,0
.LM264:
	addi	sp,sp,16
	.cfi_def_cfa_offset 0
	jr	ra
.LVL86:
.L53:
.LM265:
	li	a0,-1
.LVL87:
.LM266:
	ret
	.cfi_endproc
.LFE23:
	.size	romfs_closedir, .-romfs_closedir
	.section	.text.romfs_readdir,"ax",@progbits
	.align	1
	.type	romfs_readdir, @function
romfs_readdir:
.LVL88:
.LFB22:
.LM267:
	.cfi_startproc
.LM268:
.LM269:
.LM270:
	beq	a1,zero,.L79
.LM271:
	addi	sp,sp,-48
	.cfi_def_cfa_offset 48
	sw	s0,40(sp)
	sw	s2,32(sp)
	sw	ra,44(sp)
	sw	s1,36(sp)
	sw	s3,28(sp)
	sw	s4,24(sp)
	sw	s5,20(sp)
	sw	s6,16(sp)
	sw	s7,12(sp)
	.cfi_offset 8, -8
	.cfi_offset 18, -16
	.cfi_offset 1, -4
	.cfi_offset 9, -12
	.cfi_offset 19, -20
	.cfi_offset 20, -24
	.cfi_offset 21, -28
	.cfi_offset 22, -32
	.cfi_offset 23, -36
	mv	s0,a1
.LM272:
	li	s2,46
.LVL89:
.L73:
.LM273:
.LM274:
.LM275:
	lw	s1,16(s0)
.LM276:
	bne	s1,zero,.L61
.LM277:
.LM278:
	lw	s1,8(s0)
.LM279:
	sw	s1,16(s0)
.L62:
.LM280:
.LM281:
	li	a2,64
	addi	a1,s1,16
	addi	a0,s0,25
	call	strncpy
.LVL90:
.LM282:
.LM283:
	lw	a0,16(s0)
.LM284:
	sb	zero,89(s0)
.LM285:
.LM286:
.LM287:
	call	dirent_hardfh
.LVL91:
.LM288:
	bne	a0,zero,.L65
.LM289:
.LM290:
	lw	a0,12(s0)
.L66:
.LM291:
	lbu	a5,25(s0)
	sw	a0,16(s0)
.LM292:
.LM293:
	bne	a5,s2,.L67
.LM294:
	lbu	a5,26(s0)
.LM295:
	bne	a5,s2,.L68
.LM296:
	lbu	a5,27(s0)
.L68:
.LM297:
	beq	a5,zero,.L73
.L67:
.LM298:
.LM299:
	addi	a0,s0,20
	j	.L58
.L61:
.LM300:
.LM301:
	lw	s3,12(s0)
.LM302:
	bgeu	s1,s3,.L63
.LM303:
	lui	a5,%hi(romfs_root)
	lw	s5,%lo(romfs_root)(a5)
.LM304:
.LM305:
.LM306:
	li	s6,1
.L64:
.LM307:
	lw	a5,8(s0)
	bgtu	a5,s1,.L63
.LM308:
.LM309:
	mv	a0,s1
	call	dirent_hardfh
.LVL92:
	mv	s4,a0
.LM310:
	beq	a0,zero,.L62
.LM311:
.LM312:
.LM313:
.LM314:
	mv	a0,s1
	call	dirent_type
.LVL93:
.LM315:
	addi	a0,a0,-1
	bleu	a0,s6,.L62
.LM316:
.LM317:
	add	s1,s5,s4
.LM318:
	sw	s1,16(s0)
.LM319:
.LM320:
.LM321:
.LM322:
	bgtu	s3,s1,.L64
.L63:
.LM323:
	li	a0,0
.L58:
.LM324:
	lw	ra,44(sp)
	.cfi_remember_state
	.cfi_restore 1
	lw	s0,40(sp)
	.cfi_restore 8
.LVL94:
.LM325:
	lw	s1,36(sp)
	.cfi_restore 9
	lw	s2,32(sp)
	.cfi_restore 18
	lw	s3,28(sp)
	.cfi_restore 19
	lw	s4,24(sp)
	.cfi_restore 20
	lw	s5,20(sp)
	.cfi_restore 21
	lw	s6,16(sp)
	.cfi_restore 22
	lw	s7,12(sp)
	.cfi_restore 23
	addi	sp,sp,48
	.cfi_def_cfa_offset 0
	jr	ra
.LVL95:
.L65:
	.cfi_restore_state
.LM326:
.LM327:
	lui	a5,%hi(romfs_root)
.LM328:
	lw	a5,%lo(romfs_root)(a5)
	add	a0,a5,a0
	j	.L66
.LVL96:
.L79:
	.cfi_def_cfa_offset 0
	.cfi_restore 1
	.cfi_restore 8
	.cfi_restore 9
	.cfi_restore 18
	.cfi_restore 19
	.cfi_restore 20
	.cfi_restore 21
	.cfi_restore 22
	.cfi_restore 23
.LM329:
	li	a0,0
.LVL97:
.LM330:
	ret
	.cfi_endproc
.LFE22:
	.size	romfs_readdir, .-romfs_readdir
	.section	.rodata.romfs_lseek.str1.4,"aMS",@progbits,1
	.align	2
.LC14:
	.string	"not support whence.\r\n"
	.section	.text.romfs_lseek,"ax",@progbits
	.align	1
	.type	romfs_lseek, @function
romfs_lseek:
.LVL98:
.LFB19:
.LM331:
	.cfi_startproc
.LM332:
.LM333:
.LM334:
.LM335:
	beq	a0,zero,.L93
.LM336:
	addi	sp,sp,-32
	.cfi_def_cfa_offset 32
	sw	s0,24(sp)
	sw	ra,28(sp)
	.cfi_offset 8, -8
	.cfi_offset 1, -4
	mv	s0,a0
.LM337:
.LM338:
	lw	a0,4(a0)
.LVL99:
.LM339:
	sw	a2,8(sp)
	sw	a1,12(sp)
	call	dirent_size
.LVL100:
.LM340:
.LM341:
	lw	a2,8(sp)
	lw	a1,12(sp)
	bne	a2,zero,.L85
.LM342:
.LM343:
	bge	a1,zero,.L86
.LM344:
	lui	a0,%hi(.LC14)
.LVL101:
.LM345:
	addi	a0,a0,%lo(.LC14)
	call	printf
.LVL102:
.LM346:
.LM347:
	li	a1,-2
.L84:
.LM348:
	lw	ra,28(sp)
	.cfi_remember_state
	.cfi_restore 1
	lw	s0,24(sp)
	.cfi_restore 8
.LVL103:
.LM349:
	mv	a0,a1
	addi	sp,sp,32
	.cfi_def_cfa_offset 0
.LVL104:
.LM350:
	jr	ra
.LVL105:
.L85:
	.cfi_restore_state
.LM351:
.LM352:
	li	a5,2
	bne	a2,a5,.L87
.LM353:
.LM354:
	ble	a1,zero,.L88
.LM355:
	lui	a0,%hi(.LC14)
.LVL106:
.LM356:
	addi	a0,a0,%lo(.LC14)
	call	printf
.LVL107:
.LM357:
.LM358:
	li	a1,-3
	j	.L84
.LVL108:
.L88:
.LM359:
.LM360:
	add	a1,a1,a0
.LVL109:
.L89:
.LM361:
.LM362:
	blt	a1,zero,.L91
.LVL110:
.L86:
.LM363:
	bleu	a1,a0,.L92
.L91:
.LM364:
	lui	a0,%hi(.LC14)
.LVL111:
.LM365:
	addi	a0,a0,%lo(.LC14)
	call	printf
.LVL112:
.LM366:
.LM367:
	li	a1,-5
	j	.L84
.LVL113:
.L87:
.LM368:
.LM369:
	li	a5,1
	bne	a2,a5,.L90
.LM370:
.LM371:
	lw	a5,8(s0)
	add	a1,a1,a5
.LVL114:
.LM372:
	j	.L89
.LVL115:
.L90:
.LM373:
	lui	a0,%hi(.LC14)
.LVL116:
.LM374:
	addi	a0,a0,%lo(.LC14)
	call	printf
.LVL117:
.LM375:
.LM376:
	li	a1,-4
	j	.L84
.LVL118:
.L92:
.LM377:
.LM378:
	sw	a1,8(s0)
.LM379:
.LM380:
	j	.L84
.LVL119:
.L93:
	.cfi_def_cfa_offset 0
	.cfi_restore 1
	.cfi_restore 8
.LM381:
	li	a1,-1
.LVL120:
.LM382:
	mv	a0,a1
.LVL121:
.LM383:
	ret
	.cfi_endproc
.LFE19:
	.size	romfs_lseek, .-romfs_lseek
	.section	.rodata.dirent_file.str1.4,"aMS",@progbits,1
	.align	2
.LC15:
	.string	"/romfs"
	.align	2
.LC16:
	.string	"[%10u][%s: %s:%4d] not support path.\r\n"
	.align	2
.LC17:
	.string	"[%10u][%s: %s:%4d] name too long!\r\n"
	.align	2
.LC18:
	.string	"[%10u][%s: %s:%4d] file info error, p_name = %s, addr_start = %p, addr_end = %p\r\n"
	.align	2
.LC19:
	.string	"[%10u][%s: %s:%4d] file info error.\r\n"
	.section	.text.dirent_file,"ax",@progbits
	.align	1
	.globl	dirent_file
	.type	dirent_file, @function
dirent_file:
.LVL122:
.LFB14:
.LM384:
	.cfi_startproc
.LM385:
.LM386:
.LM387:
.LM388:
.LM389:
.LM390:
.LM391:
.LM392:
.LM393:
	addi	sp,sp,-128
	.cfi_def_cfa_offset 128
	sw	s0,120(sp)
	sw	s1,116(sp)
	sw	s2,112(sp)
	sw	s6,96(sp)
	sw	s7,92(sp)
	sw	ra,124(sp)
	sw	s3,108(sp)
	sw	s4,104(sp)
	sw	s5,100(sp)
	.cfi_offset 8, -8
	.cfi_offset 9, -12
	.cfi_offset 18, -16
	.cfi_offset 22, -32
	.cfi_offset 23, -36
	.cfi_offset 1, -4
	.cfi_offset 19, -20
	.cfi_offset 20, -24
	.cfi_offset 21, -28
.LM394:
	mv	s0,a0
	mv	s6,a1
	mv	s7,a2
.LM395:
	lui	s1,%hi(.LC15)
.LM396:
	call	strlen
.LVL123:
.LM397:
	mv	s2,a0
.LM398:
	addi	a0,s1,%lo(.LC15)
	call	strlen
.LVL124:
.LM399:
	bltu	s2,a0,.L99
.LM400:
.LM401:
.LM402:
	addi	a0,s1,%lo(.LC15)
	call	strlen
.LVL125:
	mv	a2,a0
.LM403:
	addi	a1,s1,%lo(.LC15)
	mv	a0,s0
	call	memcmp
.LVL126:
.LM404:
	beq	a0,zero,.L100
.LM405:
.LM406:
.LM407:
.LBB160:
.LBI160:
.LM408:
.LBB161:
.LM409:
.LM410:
	lui	a5,%hi(TrapNetCounter)
.LBE161:
.LBE160:
.LM411:
	lw	a5,%lo(TrapNetCounter)(a5)
	beq	a5,zero,.L101
.LM412:
	call	xTaskGetTickCountFromISR
.LVL127:
.L131:
.LM413:
	mv	a1,a0
.LM414:
	li	a4,277
.LVL128:
.L133:
.LM415:
	lui	a3,%hi(.LC8)
	lui	a2,%hi(.LC9)
	lui	a0,%hi(.LC16)
	addi	a3,a3,%lo(.LC8)
	addi	a2,a2,%lo(.LC9)
	addi	a0,a0,%lo(.LC16)
.LVL129:
.L132:
.LM416:
	call	bl_printk
.LVL130:
.LM417:
.LM418:
.LM419:
.L99:
.LM420:
	li	a0,-1
.L98:
.LM421:
	lw	ra,124(sp)
	.cfi_remember_state
	.cfi_restore 1
	lw	s0,120(sp)
	.cfi_restore 8
	lw	s1,116(sp)
	.cfi_restore 9
	lw	s2,112(sp)
	.cfi_restore 18
	lw	s3,108(sp)
	.cfi_restore 19
	lw	s4,104(sp)
	.cfi_restore 20
	lw	s5,100(sp)
	.cfi_restore 21
	lw	s6,96(sp)
	.cfi_restore 22
.LVL131:
.LM422:
	lw	s7,92(sp)
	.cfi_restore 23
.LVL132:
.LM423:
	addi	sp,sp,128
	.cfi_def_cfa_offset 0
	jr	ra
.LVL133:
.L101:
	.cfi_restore_state
.LM424:
	call	xTaskGetTickCount
.LVL134:
	j	.L131
.L100:
.LM425:
.LM426:
	addi	a0,s1,%lo(.LC15)
	call	strlen
.LVL135:
.LM427:
	add	s0,s0,a0
.LVL136:
.LM428:
.LM429:
	lbu	a5,0(s0)
.LM430:
	li	a4,47
	beq	a5,a4,.L104
.LM431:
	beq	a5,zero,.L105
.LM432:
.LM433:
.LM434:
.LBB162:
.LBI162:
.LM435:
.LBB163:
.LM436:
.LM437:
	lui	a5,%hi(TrapNetCounter)
.LBE163:
.LBE162:
.LM438:
	lw	a5,%lo(TrapNetCounter)(a5)
	beq	a5,zero,.L106
.LM439:
	call	xTaskGetTickCountFromISR
.LVL137:
.L134:
.LM440:
	mv	a1,a0
.LM441:
	li	a4,282
	j	.L133
.L106:
.LM442:
	call	xTaskGetTickCount
.LVL138:
	j	.L134
.L104:
.LM443:
.LM444:
.LM445:
	addi	s0,s0,1
.LVL139:
.L105:
.LM446:
.LM447:
	lui	s1,%hi(romfs_root)
	lw	a3,%lo(romfs_root)(s1)
.LBB164:
.LBB165:
.LM448:
	li	a1,16711680
.LBE165:
.LBE164:
.LM449:
	li	s2,0
.LBB169:
.LBB166:
.LM450:
	lw	a5,8(a3)
.LBE166:
.LBE169:
.LM451:
	sw	a3,4(sp)
.LM452:
.LBB170:
.LBI164:
.LM453:
.LBB167:
.LM454:
.LBE167:
.LBE170:
.LM455:
	li	s5,1
.LBB171:
.LBB168:
.LM456:
	srli	a2,a5,24
.LM457:
	slli	a4,a5,24
.LM458:
	or	a4,a4,a2
.LM459:
	slli	a2,a5,8
	and	a2,a2,a1
.LM460:
	or	a4,a4,a2
.LM461:
	li	a2,65536
	srli	a5,a5,8
	addi	a2,a2,-256
	and	a5,a5,a2
.LM462:
	or	a5,a4,a5
.LM463:
	add	a3,a3,a5
.LBE168:
.LBE171:
.LM464:
	sw	a3,8(sp)
.LVL140:
.L119:
.LM465:
.LM466:
.LM467:
.LM468:
	lbu	a5,0(s0)
	beq	a5,zero,.L108
.LM469:
.LM470:
	li	a1,47
	mv	a0,s0
	call	strchr
.LVL141:
	mv	s3,a0
.LVL142:
.LM471:
.LM472:
	bne	s2,s5,.L109
.LM473:
.LM474:
	lw	s4,4(sp)
.LM475:
	lw	s2,%lo(romfs_root)(s1)
.LVL143:
.LM476:
	mv	a0,s4
.LVL144:
.LM477:
	call	dirent_childaddr
.LVL145:
.LM478:
	add	a0,s2,a0
.LM479:
	beq	s4,a0,.L120
.LM480:
.LM481:
	sw	a0,4(sp)
.LM482:
.LVL146:
.L109:
.LM483:
.LM484:
	bne	s3,zero,.L110
.LM485:
.LM486:
.LM487:
	mv	a0,s0
	call	strlen
.LVL147:
.LM488:
	li	a5,64
	bleu	a0,a5,.L111
.LM489:
.LM490:
.LM491:
.LBB172:
.LBI172:
.LM492:
.LBB173:
.LM493:
.LM494:
	lui	a5,%hi(TrapNetCounter)
.LBE173:
.LBE172:
.LM495:
	lw	a5,%lo(TrapNetCounter)(a5)
	beq	a5,zero,.L112
.LM496:
	call	xTaskGetTickCountFromISR
.LVL148:
.L135:
.LM497:
	mv	a1,a0
.LM498:
	lui	a3,%hi(.LC8)
	lui	a2,%hi(.LC9)
	lui	a0,%hi(.LC17)
	li	a4,312
	addi	a3,a3,%lo(.LC8)
	addi	a2,a2,%lo(.LC9)
	addi	a0,a0,%lo(.LC17)
	j	.L132
.L112:
.LM499:
	call	xTaskGetTickCount
.LVL149:
	j	.L135
.L111:
.LM500:
.LM501:
	addi	a2,sp,8
	addi	a1,sp,4
	mv	a0,s0
	call	file_info
.LVL150:
.LM502:
	beq	a0,zero,.L108
.LM503:
.LM504:
.LM505:
.LBB174:
.LBI174:
.LM506:
.LBB175:
.LM507:
.LM508:
	lui	a5,%hi(TrapNetCounter)
.LBE175:
.LBE174:
.LM509:
	lw	a5,%lo(TrapNetCounter)(a5)
	beq	a5,zero,.L114
.LM510:
	call	xTaskGetTickCountFromISR
.LVL151:
.L136:
.LM511:
	lw	a7,8(sp)
	lw	a6,4(sp)
.LM512:
	mv	a1,a0
.LM513:
	lui	a3,%hi(.LC8)
	lui	a2,%hi(.LC12)
	lui	a0,%hi(.LC18)
	mv	a5,s0
	li	a4,316
	addi	a3,a3,%lo(.LC8)
	addi	a2,a2,%lo(.LC12)
	addi	a0,a0,%lo(.LC18)
	call	bl_printk
.LVL152:
.LM514:
.LM515:
.LM516:
.LM517:
	j	.L99
.L114:
.LM518:
	call	xTaskGetTickCount
.LVL153:
	j	.L136
.L110:
.LM519:
	li	a2,65
	li	a1,0
	addi	a0,sp,12
	call	memset
.LVL154:
.LM520:
	sub	a2,s3,s0
	mv	a1,s0
	addi	a0,sp,12
	call	memcpy
.LVL155:
.LM521:
.LM522:
.LM523:
	addi	a2,sp,8
	addi	a1,sp,4
	addi	a0,sp,12
	call	file_info
.LVL156:
.LM524:
	beq	a0,zero,.L116
.LM525:
.LM526:
.LM527:
.LBB176:
.LBI176:
.LM528:
.LBB177:
.LM529:
.LM530:
	lui	a5,%hi(TrapNetCounter)
.LBE177:
.LBE176:
.LM531:
	lw	a5,%lo(TrapNetCounter)(a5)
	beq	a5,zero,.L117
.LM532:
	call	xTaskGetTickCountFromISR
.LVL157:
.L137:
.LM533:
	mv	a1,a0
.LM534:
	lui	a3,%hi(.LC8)
	lui	a2,%hi(.LC9)
	lui	a0,%hi(.LC19)
	li	a4,327
	addi	a3,a3,%lo(.LC8)
	addi	a2,a2,%lo(.LC9)
	addi	a0,a0,%lo(.LC19)
	j	.L132
.L117:
.LM535:
	call	xTaskGetTickCount
.LVL158:
	j	.L137
.L116:
.LM536:
.LVL159:
.LM537:
.LM538:
	addi	s0,s3,1
.LVL160:
.LM539:
.LM540:
.LM541:
	li	s2,1
.LM542:
	j	.L119
.LVL161:
.L108:
.LM543:
.LM544:
.LM545:
	lw	a5,4(sp)
.LM546:
	li	a0,0
.LM547:
	sw	a5,0(s6)
.LM548:
.LM549:
	lw	a5,8(sp)
	sw	a5,0(s7)
.LM550:
.LM551:
	j	.L98
.LVL162:
.L120:
.LM552:
	li	a0,-2
	j	.L98
	.cfi_endproc
.LFE14:
	.size	dirent_file, .-dirent_file
	.section	.rodata.romfs_opendir.str1.4,"aMS",@progbits,1
	.align	2
.LC20:
	.string	"[%10u][%s: %s:%4d] romfs_root is null.\r\n"
	.section	.text.romfs_opendir,"ax",@progbits
	.align	1
	.type	romfs_opendir, @function
romfs_opendir:
.LVL163:
.LFB21:
.LM553:
	.cfi_startproc
.LM554:
.LM555:
.LM556:
.LM557:
.LM558:
.LM559:
.LM560:
	addi	sp,sp,-32
	.cfi_def_cfa_offset 32
	sw	s0,24(sp)
	.cfi_offset 8, -8
.LM561:
	lui	s0,%hi(romfs_root)
.LM562:
	lw	a5,%lo(romfs_root)(s0)
.LM563:
	sw	ra,28(sp)
	sw	s1,20(sp)
	sw	s2,16(sp)
	.cfi_offset 1, -4
	.cfi_offset 9, -12
	.cfi_offset 18, -16
.LM564:
	bne	a5,zero,.L139
.LM565:
.LM566:
.LM567:
.LBB178:
.LBI178:
.LM568:
.LBB179:
.LM569:
.LM570:
	lui	a5,%hi(TrapNetCounter)
.LBE179:
.LBE178:
.LM571:
	lw	a5,%lo(TrapNetCounter)(a5)
	beq	a5,zero,.L140
.LM572:
	call	xTaskGetTickCountFromISR
.LVL164:
.L153:
.LM573:
	mv	a1,a0
.LM574:
	lui	a3,%hi(.LC8)
	lui	a2,%hi(.LC9)
	lui	a0,%hi(.LC20)
	li	a4,525
	addi	a3,a3,%lo(.LC8)
	addi	a2,a2,%lo(.LC9)
	addi	a0,a0,%lo(.LC20)
	call	bl_printk
.LVL165:
.LM575:
.LM576:
.LM577:
.L142:
.LM578:
	li	s1,0
.L138:
.LM579:
	lw	ra,28(sp)
	.cfi_remember_state
	.cfi_restore 1
	lw	s0,24(sp)
	.cfi_restore 8
	lw	s2,16(sp)
	.cfi_restore 18
	mv	a0,s1
	lw	s1,20(sp)
	.cfi_restore 9
	addi	sp,sp,32
	.cfi_def_cfa_offset 0
	jr	ra
.LVL166:
.L140:
	.cfi_restore_state
.LM580:
	call	xTaskGetTickCount
.LVL167:
.LM581:
	j	.L153
.LVL168:
.L139:
.LM582:
	li	a0,93
.LVL169:
.LM583:
	mv	s2,a1
.LM584:
.LM585:
	call	aos_malloc
.LVL170:
.LM586:
	mv	s1,a0
.LVL171:
.LM587:
.LM588:
	beq	a0,zero,.L142
.LM589:
	li	a2,93
	li	a1,0
	call	memset
.LVL172:
.LM590:
.LM591:
	addi	a2,sp,12
	addi	a1,sp,8
	mv	a0,s2
	call	dirent_file
.LVL173:
.LM592:
.LM593:
.LM594:
	bne	a0,zero,.L145
.LM595:
.LM596:
	lw	s2,8(sp)
.LVL174:
.LM597:
	lw	s0,%lo(romfs_root)(s0)
.LM598:
	bne	s2,s0,.L146
.LM599:
.LM600:
	addi	a0,s2,16
.LVL175:
.LM601:
	call	strlen
.LVL176:
.LM602:
	addi	s0,a0,16
.LM603:
	andi	s0,s0,-16
.LM604:
	addi	s0,s0,80
.LM605:
	add	s0,s2,s0
.L147:
.LM606:
	lw	a5,12(sp)
.LM607:
	sw	s0,8(s1)
.LM608:
.LM609:
	sw	zero,16(s1)
.LM610:
	sw	a5,12(s1)
.LM611:
.LM612:
.LM613:
	j	.L138
.LVL177:
.L146:
.LM614:
.LM615:
	mv	a0,s2
.LVL178:
.LM616:
	call	dirent_childaddr
.LVL179:
.LM617:
	beq	a0,zero,.L142
.LM618:
.LM619:
	add	s0,s0,a0
	j	.L147
.LVL180:
.L145:
.LM620:
	mv	a0,s1
.LVL181:
.LM621:
	call	aos_free
.LVL182:
.LM622:
.LM623:
	j	.L142
	.cfi_endproc
.LFE21:
	.size	romfs_opendir, .-romfs_opendir
	.section	.rodata.romfs_stat.str1.4,"aMS",@progbits,1
	.align	2
.LC21:
	.string	"[%10u][%s: %s:%4d] dirent_file res = %d\r\n"
	.align	2
.LC22:
	.string	"[%10u][%s: %s:%4d] dirent_type err.\r\n"
	.section	.text.romfs_stat,"ax",@progbits
	.align	1
	.type	romfs_stat, @function
romfs_stat:
.LVL183:
.LFB20:
.LM624:
	.cfi_startproc
.LM625:
.LM626:
	addi	sp,sp,-32
	.cfi_def_cfa_offset 32
	sw	s1,20(sp)
	mv	a0,a1
.LVL184:
	.cfi_offset 9, -12
.LM627:
	mv	s1,a2
.LM628:
	addi	a1,sp,8
.LVL185:
.LM629:
	addi	a2,sp,12
.LVL186:
.LM630:
	sw	s0,24(sp)
	sw	ra,28(sp)
	sw	s2,16(sp)
	.cfi_offset 8, -8
	.cfi_offset 1, -4
	.cfi_offset 18, -16
.LM631:
	sw	zero,8(sp)
.LM632:
.LM633:
.LM634:
.LM635:
.LM636:
	call	dirent_file
.LVL187:
.LM637:
	mv	s0,a0
.LVL188:
.LM638:
.LM639:
	beq	a0,zero,.L155
.LM640:
.LM641:
.LM642:
.LBB180:
.LBI180:
.LM643:
.LBB181:
.LM644:
.LM645:
	lui	a5,%hi(TrapNetCounter)
.LBE181:
.LBE180:
.LM646:
	lw	a5,%lo(TrapNetCounter)(a5)
	beq	a5,zero,.L156
.LM647:
	call	xTaskGetTickCountFromISR
.LVL189:
.L166:
.LM648:
	mv	a1,a0
.LM649:
	lui	a3,%hi(.LC8)
	lui	a2,%hi(.LC12)
	lui	a0,%hi(.LC21)
	mv	a5,s0
	li	a4,490
	addi	a3,a3,%lo(.LC8)
	addi	a2,a2,%lo(.LC12)
	addi	a0,a0,%lo(.LC21)
	call	bl_printk
.LVL190:
.LM650:
.LM651:
.LM652:
.LM653:
	li	s0,-1
.LVL191:
.L154:
.LM654:
	lw	ra,28(sp)
	.cfi_remember_state
	.cfi_restore 1
	mv	a0,s0
	lw	s0,24(sp)
	.cfi_restore 8
	lw	s1,20(sp)
	.cfi_restore 9
.LVL192:
.LM655:
	lw	s2,16(sp)
	.cfi_restore 18
	addi	sp,sp,32
	.cfi_def_cfa_offset 0
	jr	ra
.LVL193:
.L156:
	.cfi_restore_state
.LM656:
	call	xTaskGetTickCount
.LVL194:
	j	.L166
.L155:
.LM657:
.LM658:
	lui	a5,%hi(romfs_root)
	lw	s2,8(sp)
.LM659:
	lw	a5,%lo(romfs_root)(a5)
	bne	s2,a5,.L159
.LM660:
.LM661:
	sw	zero,16(s1)
	j	.L154
.L159:
.LM662:
.LM663:
	mv	a0,s2
	call	dirent_type
.LVL195:
.LM664:
	li	a5,1
	bne	a0,a5,.L160
.LM665:
.LM666:
	sw	zero,16(s1)
.LM667:
.LM668:
	li	a5,16384
.L168:
.LM669:
	sw	a5,4(s1)
	j	.L154
.L160:
.LM670:
.LM671:
	li	a5,2
	bne	a0,a5,.L162
.LM672:
.LM673:
	mv	a0,s2
	call	dirent_size
.LVL196:
.LM674:
	sw	a0,16(s1)
.LM675:
.LM676:
.LM677:
	li	a5,32768
	j	.L168
.L162:
.LM678:
.LM679:
.LM680:
.LBB182:
.LBI182:
.LM681:
.LBB183:
.LM682:
.LM683:
	lui	a5,%hi(TrapNetCounter)
.LBE183:
.LBE182:
.LM684:
	lw	a5,%lo(TrapNetCounter)(a5)
	beq	a5,zero,.L163
.LM685:
	call	xTaskGetTickCountFromISR
.LVL197:
.L167:
.LM686:
	mv	a1,a0
.LM687:
	lui	a3,%hi(.LC8)
	lui	a2,%hi(.LC12)
	lui	a0,%hi(.LC22)
	li	a4,506
	addi	a3,a3,%lo(.LC8)
	addi	a2,a2,%lo(.LC12)
	addi	a0,a0,%lo(.LC22)
	call	bl_printk
.LVL198:
.LM688:
.LM689:
.LM690:
.LM691:
	li	s0,-2
.LVL199:
.LM692:
	j	.L154
.LVL200:
.L163:
.LM693:
	call	xTaskGetTickCount
.LVL201:
	j	.L167
	.cfi_endproc
.LFE20:
	.size	romfs_stat, .-romfs_stat
	.section	.rodata.romfs_open.str1.4,"aMS",@progbits,1
	.align	2
.LC23:
	.string	"[%10u][%s: %s:%4d] format is error.\r\n"
	.align	2
.LC24:
	.string	"[%10u][%s: %s:%4d] is_path_ch. i = %d\r\n"
	.align	2
.LC25:
	.string	"[%10u][%s: %s:%4d] format error.\r\n"
	.align	2
.LC26:
	.string	"[%10u][%s: %s:%4d] path format is error.\r\n"
	.section	.text.romfs_open,"ax",@progbits
	.align	1
	.type	romfs_open, @function
romfs_open:
.LVL202:
.LFB15:
.LM694:
	.cfi_startproc
.LM695:
.LM696:
.LM697:
.LM698:
.LM699:
	lui	a5,%hi(romfs_root)
.LM700:
	lw	a5,%lo(romfs_root)(a5)
.LM701:
	addi	sp,sp,-48
	.cfi_def_cfa_offset 48
	sw	ra,44(sp)
	sw	s0,40(sp)
	sw	s1,36(sp)
	sw	s2,32(sp)
	sw	s3,28(sp)
	sw	s4,24(sp)
	sw	s5,20(sp)
	.cfi_offset 1, -4
	.cfi_offset 8, -8
	.cfi_offset 9, -12
	.cfi_offset 18, -16
	.cfi_offset 19, -20
	.cfi_offset 20, -24
	.cfi_offset 21, -28
.LM702:
	bne	a5,zero,.L170
.LM703:
.LM704:
.LM705:
.LBB198:
.LBI198:
.LM706:
.LBB199:
.LM707:
.LM708:
	lui	a5,%hi(TrapNetCounter)
.LBE199:
.LBE198:
.LM709:
	lw	a5,%lo(TrapNetCounter)(a5)
	beq	a5,zero,.L171
.LM710:
	call	xTaskGetTickCountFromISR
.LVL203:
.L199:
.LM711:
	mv	a1,a0
.LM712:
	lui	a3,%hi(.LC8)
	lui	a2,%hi(.LC9)
	lui	a0,%hi(.LC20)
	li	a4,354
	addi	a3,a3,%lo(.LC8)
	addi	a2,a2,%lo(.LC9)
	addi	a0,a0,%lo(.LC20)
.L205:
.LM713:
	call	bl_printk
.LVL204:
.LM714:
.LM715:
.LM716:
.LM717:
	li	s1,-1
.L169:
.LM718:
	lw	ra,44(sp)
	.cfi_remember_state
	.cfi_restore 1
	lw	s0,40(sp)
	.cfi_restore 8
	lw	s2,32(sp)
	.cfi_restore 18
	lw	s3,28(sp)
	.cfi_restore 19
	lw	s4,24(sp)
	.cfi_restore 20
	lw	s5,20(sp)
	.cfi_restore 21
	mv	a0,s1
	lw	s1,36(sp)
	.cfi_restore 9
	addi	sp,sp,48
	.cfi_def_cfa_offset 0
	jr	ra
.LVL205:
.L171:
	.cfi_restore_state
.LM719:
	call	xTaskGetTickCount
.LVL206:
.LM720:
	j	.L199
.LVL207:
.L170:
.LM721:
	mv	s2,a0
.LM722:
	mv	a0,a1
.LVL208:
.LM723:
	mv	s4,a1
.LM724:
.LBB200:
.LBB201:
.LM725:
	lui	s0,%hi(.LC15)
.LBE201:
.LBE200:
.LM726:
	call	strlen
.LVL209:
.LM727:
	mv	s5,a0
.LVL210:
.LBB217:
.LBI200:
.LM728:
.LBB214:
.LM729:
.LM730:
.LM731:
.LM732:
.LM733:
	addi	a0,s0,%lo(.LC15)
.LVL211:
.LM734:
	call	strlen
.LVL212:
	mv	a2,a0
.LM735:
	addi	a1,s0,%lo(.LC15)
	mv	a0,s4
	call	strncmp
.LVL213:
	mv	s1,a0
.LVL214:
.LM736:
.LM737:
	bne	a0,zero,.L174
.LM738:
	li	s0,0
.LBB202:
.LBB203:
.LM739:
	li	a3,25
.LBE203:
.LBE202:
.LM740:
	li	a2,47
.L175:
.LVL215:
.LM741:
	bne	s0,s5,.L187
.LVL216:
.LM742:
.LBE214:
.LBE217:
.LM743:
.LM744:
	addi	a2,sp,12
	addi	a1,sp,8
	mv	a0,s4
	call	dirent_file
.LVL217:
.LM745:
	beq	a0,zero,.L197
.LM746:
	li	s1,-2
	j	.L169
.LVL218:
.L174:
.LBB218:
.LBB215:
.LM747:
.LM748:
.LM749:
.LBB206:
.LBI206:
.LM750:
.LBB207:
.LM751:
.LM752:
	lui	a5,%hi(TrapNetCounter)
.LBE207:
.LBE206:
.LM753:
	lw	a5,%lo(TrapNetCounter)(a5)
	beq	a5,zero,.L176
.LM754:
	call	xTaskGetTickCountFromISR
.LVL219:
.L200:
.LM755:
	mv	a1,a0
.LM756:
	lui	a3,%hi(.LC8)
	lui	a2,%hi(.LC9)
	lui	a0,%hi(.LC23)
	li	a4,97
	addi	a3,a3,%lo(.LC8)
	addi	a2,a2,%lo(.LC9)
	addi	a0,a0,%lo(.LC23)
.L203:
.LM757:
	call	bl_printk
.LVL220:
.LM758:
.LM759:
.LM760:
.LM761:
	j	.L178
.LVL221:
.L176:
.LM762:
	call	xTaskGetTickCount
.LVL222:
	j	.L200
.LVL223:
.L187:
.LM763:
.LM764:
	add	a5,s4,s0
	lbu	a4,0(a5)
.LVL224:
.LBB208:
.LBI202:
.LM765:
.LBB204:
.LM766:
.LM767:
	andi	a5,a4,-33
	addi	a5,a5,-65
	andi	a5,a5,0xff
	bleu	a5,a3,.L179
.LM768:
	addi	a5,a4,-45
	sltiu	a5,a5,13
	bne	a5,zero,.L180
.LM769:
	addi	a5,a4,-95
.LM770:
	beq	a5,zero,.L180
.LVL225:
.LM771:
.LBE204:
.LBE208:
.LM772:
.LM773:
.LM774:
.LBB209:
.LBI209:
.LM775:
.LBB210:
.LM776:
.LM777:
	lui	a5,%hi(TrapNetCounter)
.LBE210:
.LBE209:
.LM778:
	lw	a5,%lo(TrapNetCounter)(a5)
	bne	a5,zero,.L181
.LM779:
	call	xTaskGetTickCount
.LVL226:
	j	.L201
.LVL227:
.L180:
.LBB211:
.LBB205:
.LM780:
.LM781:
.LBE205:
.LBE211:
.LM782:
.LM783:
	beq	a4,a2,.L196
.LVL228:
.L179:
.LM784:
	addi	s0,s0,1
.LVL229:
.LM785:
	j	.L175
.LVL230:
.L181:
.LM786:
	call	xTaskGetTickCountFromISR
.LVL231:
.L201:
.LM787:
	mv	a1,a0
.LM788:
	lui	a3,%hi(.LC8)
	lui	a2,%hi(.LC9)
	lui	a0,%hi(.LC24)
	mv	a5,s0
	li	a4,105
	addi	a3,a3,%lo(.LC8)
	addi	a2,a2,%lo(.LC9)
	addi	a0,a0,%lo(.LC24)
	call	bl_printk
.LVL232:
.LM789:
.LM790:
.LM791:
.L178:
.LM792:
.LBE215:
.LBE218:
.LM793:
.LM794:
.LM795:
.LBB219:
.LBI219:
.LM796:
.LBB220:
.LM797:
.LM798:
	lui	a5,%hi(TrapNetCounter)
.LBE220:
.LBE219:
.LM799:
	lw	a5,%lo(TrapNetCounter)(a5)
	beq	a5,zero,.L190
.LM800:
	call	xTaskGetTickCountFromISR
.LVL233:
.L204:
.LM801:
	mv	a1,a0
.LM802:
	lui	a3,%hi(.LC8)
	lui	a2,%hi(.LC9)
	lui	a0,%hi(.LC26)
	li	a4,360
	addi	a3,a3,%lo(.LC8)
	addi	a2,a2,%lo(.LC9)
	addi	a0,a0,%lo(.LC26)
	j	.L205
.LVL234:
.L196:
.LBB221:
.LBB216:
.LM803:
.LM804:
	beq	s0,zero,.L192
.LM805:
.LM806:
	bne	s0,s3,.L193
.LM807:
.LM808:
.LM809:
.LBB212:
.LBI212:
.LM810:
.LBB213:
.LM811:
.LM812:
	lui	a5,%hi(TrapNetCounter)
.LBE213:
.LBE212:
.LM813:
	lw	a5,%lo(TrapNetCounter)(a5)
	beq	a5,zero,.L185
.LM814:
	call	xTaskGetTickCountFromISR
.LVL235:
.L202:
.LM815:
	mv	a1,a0
.LM816:
	lui	a3,%hi(.LC8)
	lui	a2,%hi(.LC9)
	lui	a0,%hi(.LC25)
	li	a4,115
	addi	a3,a3,%lo(.LC8)
	addi	a2,a2,%lo(.LC9)
	addi	a0,a0,%lo(.LC25)
	j	.L203
.L185:
.LM817:
	call	xTaskGetTickCount
.LVL236:
	j	.L202
.L192:
.LM818:
	li	s3,0
.LVL237:
.LM819:
	j	.L179
.LVL238:
.L193:
.LM820:
	mv	s3,s0
.LVL239:
.LM821:
	j	.L179
.LVL240:
.L190:
.LM822:
.LBE216:
.LBE221:
.LM823:
	call	xTaskGetTickCount
.LVL241:
	j	.L204
.L197:
.LM824:
.LM825:
	lw	a5,8(sp)
.LM826:
	sw	zero,8(s2)
.LM827:
	sw	a5,4(s2)
.LM828:
.LM829:
.LM830:
	j	.L169
	.cfi_endproc
.LFE15:
	.size	romfs_open, .-romfs_open
	.section	.rodata.romfs_register.str1.4,"aMS",@progbits,1
	.align	2
.LC27:
	.string	"media"
	.align	2
.LC28:
	.string	"[%10u][%s: %s:%4d] [EF] [PART] [XIP] error when get romfs partition %d\r\n"
	.align	2
.LC29:
	.string	"[%10u][%s: %s:%4d] romfs has no XIP-Addr\r\n"
	.align	2
.LC30:
	.string	"-rom1fs-"
	.align	2
.LC31:
	.string	"[%10u][%s: %s:%4d] romfs magic is NOT correct\r\n"
	.section	.text.romfs_register,"ax",@progbits
	.align	1
	.globl	romfs_register
	.type	romfs_register, @function
romfs_register:
.LFB24:
.LM831:
	.cfi_startproc
.LM832:
.LBB230:
.LBI230:
.LM833:
.LBB231:
.LM834:
.LM835:
.LM836:
.LBE231:
.LBE230:
.LM837:
	addi	sp,sp,-48
	.cfi_def_cfa_offset 48
	sw	s1,36(sp)
.LBB243:
.LBB240:
.LM838:
	lui	a0,%hi(.LC27)
	.cfi_offset 9, -12
	lui	s1,%hi(handle_romfs)
	li	a2,2
	addi	a1,s1,%lo(handle_romfs)
	addi	a0,a0,%lo(.LC27)
.LBE240:
.LBE243:
.LM839:
	sw	s0,40(sp)
	sw	ra,44(sp)
	sw	s2,32(sp)
	.cfi_offset 8, -8
	.cfi_offset 1, -4
	.cfi_offset 18, -16
.LBB244:
.LBB241:
.LM840:
	call	bl_mtd_open
.LVL242:
.LM841:
	lui	s0,%hi(.LC8)
.LM842:
	beq	a0,zero,.L207
.LBB232:
.LBB233:
.LM843:
	lui	a5,%hi(TrapNetCounter)
.LBE233:
.LBE232:
.LM844:
	lw	a5,%lo(TrapNetCounter)(a5)
	mv	s2,a0
.LM845:
.LM846:
.LM847:
.LBB235:
.LBI232:
.LM848:
.LBB234:
.LM849:
.LBE234:
.LBE235:
.LM850:
	beq	a5,zero,.L208
.LM851:
	call	xTaskGetTickCountFromISR
.LVL243:
.L219:
.LM852:
	mv	a1,a0
.LM853:
	lui	a2,%hi(.LC9)
	lui	a0,%hi(.LC28)
	mv	a5,s2
	li	a4,134
	addi	a3,s0,%lo(.LC8)
	addi	a2,a2,%lo(.LC9)
	addi	a0,a0,%lo(.LC28)
	call	bl_printk
.LVL244:
.LM854:
.LM855:
.LM856:
.L210:
.LM857:
.LBE241:
.LBE244:
.LM858:
	lw	ra,44(sp)
	.cfi_remember_state
	.cfi_restore 1
	lw	s0,40(sp)
	.cfi_restore 8
	lw	s1,36(sp)
	.cfi_restore 9
	lw	s2,32(sp)
	.cfi_restore 18
	li	a0,-1
	addi	sp,sp,48
	.cfi_def_cfa_offset 0
	jr	ra
.LVL245:
.L208:
	.cfi_restore_state
.LBB245:
.LBB242:
.LM859:
	call	xTaskGetTickCount
.LVL246:
.LM860:
	j	.L219
.LVL247:
.L207:
.LM861:
	li	a2,28
	li	a1,0
	addi	a0,sp,4
.LVL248:
.LM862:
	call	memset
.LVL249:
.LM863:
	lw	a0,%lo(handle_romfs)(s1)
	addi	a1,sp,4
	call	bl_mtd_info
.LVL250:
.LM864:
.LM865:
	lw	s1,28(sp)
.LM866:
	bne	s1,zero,.L211
.LM867:
.LM868:
.LM869:
.LBB236:
.LBI236:
.LM870:
.LBB237:
.LM871:
.LM872:
	lui	a5,%hi(TrapNetCounter)
.LBE237:
.LBE236:
.LM873:
	lw	a5,%lo(TrapNetCounter)(a5)
	beq	a5,zero,.L212
.LM874:
	call	xTaskGetTickCountFromISR
.LVL251:
.L220:
.LM875:
	mv	a1,a0
.LM876:
	lui	a2,%hi(.LC9)
	lui	a0,%hi(.LC29)
	li	a4,141
	addi	a3,s0,%lo(.LC8)
	addi	a2,a2,%lo(.LC9)
	addi	a0,a0,%lo(.LC29)
.L222:
.LM877:
	call	bl_printk
.LVL252:
.LM878:
.LM879:
.LM880:
.LM881:
	j	.L210
.LVL253:
.L212:
.LM882:
	call	xTaskGetTickCount
.LVL254:
	j	.L220
.L211:
.LM883:
.LM884:
	lui	s2,%hi(.LC30)
	addi	a0,s2,%lo(.LC30)
	call	strlen
.LVL255:
	mv	a2,a0
.LM885:
	addi	a1,s2,%lo(.LC30)
	mv	a0,s1
	call	memcmp
.LVL256:
.LM886:
	beq	a0,zero,.L215
.LM887:
.LM888:
.LM889:
.LBB238:
.LBI238:
.LM890:
.LBB239:
.LM891:
.LM892:
	lui	a5,%hi(TrapNetCounter)
.LBE239:
.LBE238:
.LM893:
	lw	a5,%lo(TrapNetCounter)(a5)
	beq	a5,zero,.L216
.LM894:
	call	xTaskGetTickCountFromISR
.LVL257:
.L221:
.LM895:
	mv	a1,a0
.LM896:
	lui	a2,%hi(.LC9)
	lui	a0,%hi(.LC31)
	li	a4,146
	addi	a3,s0,%lo(.LC8)
	addi	a2,a2,%lo(.LC9)
	addi	a0,a0,%lo(.LC31)
	j	.L222
.L216:
.LM897:
	call	xTaskGetTickCount
.LVL258:
	j	.L221
.L215:
.LM898:
.LM899:
	lw	a2,28(sp)
.LM900:
	lui	a5,%hi(romfs_root)
.LM901:
	li	a1,152
	addi	a0,s0,%lo(.LC8)
	li	a4,0
	li	a3,64
.LM902:
	sw	a2,%lo(romfs_root)(a5)
.LM903:
.LM904:
	call	log_buf_out
.LVL259:
.LM905:
.LM906:
.LBE242:
.LBE245:
.LM907:
.LM908:
	lw	s0,40(sp)
	.cfi_restore 8
	lw	ra,44(sp)
	.cfi_restore 1
	lw	s1,36(sp)
	.cfi_restore 9
	lw	s2,32(sp)
	.cfi_restore 18
.LM909:
	lui	a1,%hi(romfs_ops)
	lui	a0,%hi(.LC15)
.LM910:
.LM911:
	li	a2,0
	addi	a1,a1,%lo(romfs_ops)
	addi	a0,a0,%lo(.LC15)
.LM912:
	addi	sp,sp,48
	.cfi_def_cfa_offset 0
.LM913:
	tail	aos_register_fs
.LVL260:
	.cfi_endproc
.LFE24:
	.size	romfs_register, .-romfs_register
	.section	.rodata.test1_romfs.str1.4,"aMS",@progbits,1
	.align	2
.LC32:
	.string	"/romfs/child/aa.bin"
	.align	2
.LC33:
	.string	"\033[32mINFO  \033[0m"
	.align	2
.LC34:
	.string	"[%10u][%s: %s:%4d] fd = %d\r\n"
	.align	2
.LC35:
	.string	"[%10u][%s: %s:%4d] open error.\r\n"
	.align	2
.LC36:
	.string	"[%10u][%s: %s:%4d] case1:len = %d\r\n"
	.align	2
.LC37:
	.string	"[%10u][%s: %s:%4d] case2:len = %d\r\n"
	.align	2
.LC38:
	.string	"[%10u][%s: %s:%4d] case3:len = %d\r\n"
	.align	2
.LC39:
	.string	"[%10u][%s: %s:%4d] case4:len = %d\r\n"
	.align	2
.LC40:
	.string	"[%10u][%s: %s:%4d] buf:\r\n"
	.align	2
.LC41:
	.string	"[%10u][%s: %s:%4d] filebuf.buf = %p\r\n"
	.align	2
.LC42:
	.string	"[%10u][%s: %s:%4d] filebuf.bufsize = %lu\r\n"
	.align	2
.LC43:
	.string	"[%10u][%s: %s:%4d] aos_lseek(end) = 0x%08lx\r\n"
	.align	2
.LC44:
	.string	"[%10u][%s: %s:%4d] case5:len = %d\r\n"
	.section	.text.test1_romfs,"ax",@progbits
	.align	1
	.globl	test1_romfs
	.type	test1_romfs, @function
test1_romfs:
.LFB25:
.LM914:
	.cfi_startproc
.LM915:
.LVL261:
.LM916:
.LM917:
.LM918:
.LM919:
.LM920:
.LM921:
	addi	sp,sp,-96
	.cfi_def_cfa_offset 96
.LM922:
	li	a2,50
	li	a1,0
	addi	a0,sp,12
.LM923:
	sw	ra,92(sp)
	sw	s1,84(sp)
	sw	s3,76(sp)
	sw	s0,88(sp)
	sw	s2,80(sp)
	sw	s4,72(sp)
	.cfi_offset 1, -4
	.cfi_offset 9, -12
	.cfi_offset 19, -20
	.cfi_offset 8, -8
	.cfi_offset 18, -16
	.cfi_offset 20, -24
.LM924:
	call	memset
.LVL262:
.LM925:
.LM926:
	lui	a0,%hi(.LC32)
	li	a1,0
	addi	a0,a0,%lo(.LC32)
	call	aos_open
.LVL263:
.LBB246:
.LBB247:
.LM927:
	lui	s1,%hi(TrapNetCounter)
.LBE247:
.LBE246:
.LM928:
	lw	a5,%lo(TrapNetCounter)(s1)
.LM929:
	mv	s3,a0
.LVL264:
.LM930:
.LM931:
.LM932:
.LBB249:
.LBI246:
.LM933:
.LBB248:
.LM934:
.LBE248:
.LBE249:
.LM935:
	beq	a5,zero,.L224
.LM936:
	call	xTaskGetTickCountFromISR
.LVL265:
.L249:
.LM937:
	mv	a1,a0
.LM938:
	lui	s0,%hi(.LC8)
	lui	s2,%hi(.LC33)
	lui	a0,%hi(.LC34)
	mv	a5,s3
	li	a4,670
	addi	a3,s0,%lo(.LC8)
	addi	a2,s2,%lo(.LC33)
	addi	a0,a0,%lo(.LC34)
	call	bl_printk
.LVL266:
.LM939:
.LM940:
.LM941:
.LM942:
	bge	s3,zero,.L226
.LM943:
.LM944:
.LM945:
.LBB250:
.LBI250:
.LM946:
.LBB251:
.LM947:
.LBE251:
.LBE250:
.LM948:
	lw	a5,%lo(TrapNetCounter)(s1)
	beq	a5,zero,.L227
.LM949:
	call	xTaskGetTickCountFromISR
.LVL267:
.L250:
.LM950:
	mv	a1,a0
.LM951:
	lui	a2,%hi(.LC9)
	lui	a0,%hi(.LC35)
	li	a4,672
	addi	a3,s0,%lo(.LC8)
	addi	a2,a2,%lo(.LC9)
	addi	a0,a0,%lo(.LC35)
	call	bl_printk
.LVL268:
.LM952:
.LM953:
.LM954:
.L223:
.LM955:
	lw	ra,92(sp)
	.cfi_remember_state
	.cfi_restore 1
	lw	s0,88(sp)
	.cfi_restore 8
	lw	s1,84(sp)
	.cfi_restore 9
	lw	s2,80(sp)
	.cfi_restore 18
	lw	s3,76(sp)
	.cfi_restore 19
.LVL269:
.LM956:
	lw	s4,72(sp)
	.cfi_restore 20
	addi	sp,sp,96
	.cfi_def_cfa_offset 0
	jr	ra
.LVL270:
.L224:
	.cfi_restore_state
.LM957:
	call	xTaskGetTickCount
.LVL271:
.LM958:
	j	.L249
.L227:
.LM959:
	call	xTaskGetTickCount
.LVL272:
	j	.L250
.L226:
.LM960:
.LM961:
	li	a2,1
	addi	a1,sp,12
	mv	a0,s3
	call	aos_read
.LVL273:
.LM962:
	lw	a5,%lo(TrapNetCounter)(s1)
.LM963:
	mv	s4,a0
.LVL274:
.LM964:
.LM965:
.LM966:
.LBB252:
.LBI252:
.LM967:
.LBB253:
.LM968:
.LBE253:
.LBE252:
.LM969:
	beq	a5,zero,.L230
.LM970:
	call	xTaskGetTickCountFromISR
.LVL275:
.L251:
.LM971:
	mv	a1,a0
.LM972:
	lui	a0,%hi(.LC36)
	mv	a5,s4
	li	a4,677
	addi	a3,s0,%lo(.LC8)
	addi	a2,s2,%lo(.LC33)
	addi	a0,a0,%lo(.LC36)
	call	bl_printk
.LVL276:
.LM973:
.LM974:
.LM975:
	li	a4,0
	li	a3,1
	addi	a2,sp,12
	li	a1,678
	addi	a0,s0,%lo(.LC8)
	call	log_buf_out
.LVL277:
.LM976:
	li	a2,1
	mv	a1,a2
	mv	a0,s3
	call	aos_lseek
.LVL278:
.LM977:
	li	a2,50
	li	a1,0
	addi	a0,sp,12
	call	memset
.LVL279:
.LM978:
.LM979:
	li	a2,1
	addi	a1,sp,12
	mv	a0,s3
	call	aos_read
.LVL280:
.LM980:
	lw	a5,%lo(TrapNetCounter)(s1)
.LM981:
	mv	s4,a0
.LVL281:
.LM982:
.LM983:
.LM984:
.LBB254:
.LBI254:
.LM985:
.LBB255:
.LM986:
.LBE255:
.LBE254:
.LM987:
	beq	a5,zero,.L232
.LM988:
	call	xTaskGetTickCountFromISR
.LVL282:
.L252:
.LM989:
	mv	a1,a0
.LM990:
	lui	a0,%hi(.LC37)
	mv	a5,s4
	li	a4,683
	addi	a3,s0,%lo(.LC8)
	addi	a2,s2,%lo(.LC33)
	addi	a0,a0,%lo(.LC37)
	call	bl_printk
.LVL283:
.LM991:
.LM992:
.LM993:
	li	a4,0
	li	a3,1
	addi	a2,sp,12
	li	a1,684
	addi	a0,s0,%lo(.LC8)
	call	log_buf_out
.LVL284:
.LM994:
.LM995:
	li	a2,50
	addi	a1,sp,12
	mv	a0,s3
	call	aos_read
.LVL285:
.LM996:
	lw	a5,%lo(TrapNetCounter)(s1)
.LM997:
	mv	s4,a0
.LVL286:
.LM998:
.LM999:
.LM1000:
.LBB256:
.LBI256:
.LM1001:
.LBB257:
.LM1002:
.LBE257:
.LBE256:
.LM1003:
	beq	a5,zero,.L234
.LM1004:
	call	xTaskGetTickCountFromISR
.LVL287:
.L253:
.LM1005:
	mv	a1,a0
.LM1006:
	lui	a0,%hi(.LC38)
	mv	a5,s4
	li	a4,687
	addi	a3,s0,%lo(.LC8)
	addi	a2,s2,%lo(.LC33)
	addi	a0,a0,%lo(.LC38)
	call	bl_printk
.LVL288:
.LM1007:
.LM1008:
.LM1009:
	li	a4,0
	li	a3,50
	addi	a2,sp,12
	li	a1,688
	addi	a0,s0,%lo(.LC8)
	call	log_buf_out
.LVL289:
.LM1010:
	li	a2,0
	li	a1,0
	mv	a0,s3
	call	aos_lseek
.LVL290:
.LM1011:
	li	a2,50
	li	a1,0
	addi	a0,sp,12
	call	memset
.LVL291:
.LM1012:
.LM1013:
	li	a2,50
	addi	a1,sp,12
	mv	a0,s3
	call	aos_read
.LVL292:
.LM1014:
	lw	a5,%lo(TrapNetCounter)(s1)
.LM1015:
	mv	s4,a0
.LVL293:
.LM1016:
.LM1017:
.LM1018:
.LBB258:
.LBI258:
.LM1019:
.LBB259:
.LM1020:
.LBE259:
.LBE258:
.LM1021:
	beq	a5,zero,.L236
.LM1022:
	call	xTaskGetTickCountFromISR
.LVL294:
.L254:
.LM1023:
	mv	a1,a0
.LM1024:
	lui	a0,%hi(.LC39)
	mv	a5,s4
	li	a4,693
	addi	a3,s0,%lo(.LC8)
	addi	a2,s2,%lo(.LC33)
	addi	a0,a0,%lo(.LC39)
	call	bl_printk
.LVL295:
.LM1025:
.LM1026:
.LM1027:
.LM1028:
.LM1029:
.LBB260:
.LBI260:
.LM1030:
.LBB261:
.LM1031:
.LBE261:
.LBE260:
.LM1032:
	lw	a5,%lo(TrapNetCounter)(s1)
	beq	a5,zero,.L238
.LM1033:
	call	xTaskGetTickCountFromISR
.LVL296:
.L255:
.LM1034:
	mv	a1,a0
.LM1035:
	lui	a0,%hi(.LC40)
	li	a4,694
	addi	a3,s0,%lo(.LC8)
	addi	a2,s2,%lo(.LC33)
	addi	a0,a0,%lo(.LC40)
	call	bl_printk
.LVL297:
.LM1036:
.LM1037:
.LM1038:
	li	a4,0
	li	a3,50
	addi	a2,sp,12
	li	a1,695
	addi	a0,s0,%lo(.LC8)
	call	log_buf_out
.LVL298:
.LM1039:
	addi	a2,sp,4
	li	a1,1
	mv	a0,s3
	call	aos_ioctl
.LVL299:
.LM1040:
.LM1041:
.LM1042:
.LBB262:
.LBI262:
.LM1043:
.LBB263:
.LM1044:
.LBE263:
.LBE262:
.LM1045:
	lw	a5,%lo(TrapNetCounter)(s1)
	beq	a5,zero,.L240
.LM1046:
	call	xTaskGetTickCountFromISR
.LVL300:
.L256:
.LM1047:
	lw	a5,4(sp)
.LM1048:
	mv	a1,a0
.LM1049:
	lui	a0,%hi(.LC41)
	li	a4,698
	addi	a3,s0,%lo(.LC8)
	addi	a2,s2,%lo(.LC33)
	addi	a0,a0,%lo(.LC41)
	call	bl_printk
.LVL301:
.LM1050:
.LM1051:
.LM1052:
.LM1053:
.LM1054:
.LBB264:
.LBI264:
.LM1055:
.LBB265:
.LM1056:
.LBE265:
.LBE264:
.LM1057:
	lw	a5,%lo(TrapNetCounter)(s1)
	beq	a5,zero,.L242
.LM1058:
	call	xTaskGetTickCountFromISR
.LVL302:
.L257:
.LM1059:
	lw	a5,8(sp)
.LM1060:
	mv	a1,a0
.LM1061:
	lui	a0,%hi(.LC42)
	li	a4,699
	addi	a3,s0,%lo(.LC8)
	addi	a2,s2,%lo(.LC33)
	addi	a0,a0,%lo(.LC42)
	call	bl_printk
.LVL303:
.LM1062:
.LM1063:
.LM1064:
.LM1065:
	li	a2,2
	li	a1,0
	mv	a0,s3
	call	aos_lseek
.LVL304:
.LM1066:
	lw	a5,%lo(TrapNetCounter)(s1)
.LM1067:
	mv	s4,a0
.LVL305:
.LM1068:
.LM1069:
.LM1070:
.LBB266:
.LBI266:
.LM1071:
.LBB267:
.LM1072:
.LBE267:
.LBE266:
.LM1073:
	beq	a5,zero,.L244
.LM1074:
	call	xTaskGetTickCountFromISR
.LVL306:
.L258:
.LM1075:
	mv	a1,a0
.LM1076:
	lui	a0,%hi(.LC43)
	mv	a5,s4
	li	a4,702
	addi	a3,s0,%lo(.LC8)
	addi	a2,s2,%lo(.LC33)
	addi	a0,a0,%lo(.LC43)
	call	bl_printk
.LVL307:
.LM1077:
.LM1078:
.LM1079:
	li	a2,50
	li	a1,0
	addi	a0,sp,12
	call	memset
.LVL308:
.LM1080:
.LM1081:
	li	a2,50
	addi	a1,sp,12
	mv	a0,s3
	call	aos_read
.LVL309:
.LM1082:
	lw	a5,%lo(TrapNetCounter)(s1)
.LM1083:
	mv	s4,a0
.LVL310:
.LM1084:
.LM1085:
.LM1086:
.LBB268:
.LBI268:
.LM1087:
.LBB269:
.LM1088:
.LBE269:
.LBE268:
.LM1089:
	beq	a5,zero,.L246
.LM1090:
	call	xTaskGetTickCountFromISR
.LVL311:
.L259:
.LM1091:
	mv	a1,a0
.LM1092:
	lui	a0,%hi(.LC44)
	mv	a5,s4
	addi	a3,s0,%lo(.LC8)
	addi	a2,s2,%lo(.LC33)
	li	a4,706
	addi	a0,a0,%lo(.LC44)
	call	bl_printk
.LVL312:
.LM1093:
.LM1094:
.LM1095:
	li	a4,0
	li	a3,50
	addi	a2,sp,12
	li	a1,707
	addi	a0,s0,%lo(.LC8)
	call	log_buf_out
.LVL313:
.LM1096:
	mv	a0,s3
	call	aos_close
.LVL314:
	j	.L223
.LVL315:
.L230:
.LM1097:
	call	xTaskGetTickCount
.LVL316:
.LM1098:
	j	.L251
.LVL317:
.L232:
.LM1099:
	call	xTaskGetTickCount
.LVL318:
.LM1100:
	j	.L252
.LVL319:
.L234:
.LM1101:
	call	xTaskGetTickCount
.LVL320:
.LM1102:
	j	.L253
.LVL321:
.L236:
.LM1103:
	call	xTaskGetTickCount
.LVL322:
.LM1104:
	j	.L254
.L238:
.LM1105:
	call	xTaskGetTickCount
.LVL323:
	j	.L255
.L240:
.LM1106:
	call	xTaskGetTickCount
.LVL324:
	j	.L256
.L242:
.LM1107:
	call	xTaskGetTickCount
.LVL325:
	j	.L257
.LVL326:
.L244:
.LM1108:
	call	xTaskGetTickCount
.LVL327:
.LM1109:
	j	.L258
.LVL328:
.L246:
.LM1110:
	call	xTaskGetTickCount
.LVL329:
.LM1111:
	j	.L259
	.cfi_endproc
.LFE25:
	.size	test1_romfs, .-test1_romfs
	.section	.rodata.test2_romfs.str1.4,"aMS",@progbits,1
	.align	2
.LC46:
	.string	"[%10u][%s: %s:%4d] test[%d] %s \r\n"
	.align	2
.LC47:
	.string	"[%10u][%s: %s:%4d] test[%d] open %s error, fd = %d\r\n"
	.align	2
.LC48:
	.string	"[%10u][%s: %s:%4d] test[%d] open fd = %d\r\n"
	.align	2
.LC49:
	.string	"[%10u][%s: %s:%4d] test[%d] buf:\r\n"
	.section	.text.test2_romfs,"ax",@progbits
	.align	1
	.globl	test2_romfs
	.type	test2_romfs, @function
test2_romfs:
.LFB26:
.LM1112:
	.cfi_startproc
.LM1113:
.LM1114:
.LVL330:
.LM1115:
.LM1116:
.LM1117:
.LM1118:
	addi	sp,sp,-208
	.cfi_def_cfa_offset 208
.LM1119:
	lui	a1,%hi(.LANCHOR0)
	li	a2,28
	addi	a1,a1,%lo(.LANCHOR0)
	addi	a0,sp,4
.LM1120:
	sw	s0,200(sp)
	sw	s1,196(sp)
	sw	s3,188(sp)
	sw	s4,184(sp)
	sw	s9,164(sp)
	sw	ra,204(sp)
	sw	s2,192(sp)
	sw	s5,180(sp)
	sw	s6,176(sp)
	sw	s7,172(sp)
	sw	s8,168(sp)
	.cfi_offset 8, -8
	.cfi_offset 9, -12
	.cfi_offset 19, -20
	.cfi_offset 20, -24
	.cfi_offset 25, -44
	.cfi_offset 1, -4
	.cfi_offset 18, -16
	.cfi_offset 21, -28
	.cfi_offset 22, -32
	.cfi_offset 23, -36
	.cfi_offset 24, -40
.LM1121:
	call	memcpy
.LVL331:
.LM1122:
.LM1123:
.LM1124:
	lui	a5,%hi(.LC12)
	addi	s1,sp,4
.LM1125:
	li	s0,0
.LM1126:
	lui	s3,%hi(.LC8)
	addi	s9,a5,%lo(.LC12)
.LM1127:
	lui	s4,%hi(.LC33)
.LVL332:
.L273:
.LM1128:
.LM1129:
.LM1130:
.LBB270:
.LBI270:
.LM1131:
.LBB271:
.LM1132:
.LM1133:
	lui	s2,%hi(TrapNetCounter)
.LBE271:
.LBE270:
.LM1134:
	lw	a5,%lo(TrapNetCounter)(s2)
	beq	a5,zero,.L261
.LM1135:
	call	xTaskGetTickCountFromISR
.LVL333:
.L276:
.LM1136:
	lw	a5,0(s1)
.LM1137:
	mv	a1,a0
.LM1138:
	lui	a0,%hi(.LC46)
	mv	a6,a5
	mv	s5,a5
	li	a4,730
	mv	a5,s0
	addi	a3,s3,%lo(.LC8)
	mv	a2,s9
	addi	a0,a0,%lo(.LC46)
	call	bl_printk
.LVL334:
.LM1139:
.LM1140:
.LM1141:
.LM1142:
	li	a1,0
	mv	a0,s5
	call	aos_open
.LVL335:
.LBB272:
.LBB273:
.LM1143:
	lw	a5,%lo(TrapNetCounter)(s2)
.LBE273:
.LBE272:
.LM1144:
	mv	s6,a0
.LVL336:
.LM1145:
.LM1146:
	bge	a0,zero,.L263
.LM1147:
.LM1148:
.LM1149:
.LBB275:
.LBI272:
.LM1150:
.LBB274:
.LM1151:
.LBE274:
.LBE275:
.LM1152:
	beq	a5,zero,.L264
.LM1153:
	call	xTaskGetTickCountFromISR
.LVL337:
.L277:
.LM1154:
	mv	a1,a0
.LM1155:
	lui	a3,%hi(.LC8)
	lui	a2,%hi(.LC9)
	lui	a0,%hi(.LC47)
	mv	a7,s6
	mv	a6,s5
	mv	a5,s0
	li	a4,735
	addi	a3,a3,%lo(.LC8)
	addi	a2,a2,%lo(.LC9)
	addi	a0,a0,%lo(.LC47)
	call	bl_printk
.LVL338:
.LM1156:
.LM1157:
.LM1158:
.L266:
.LM1159:
	addi	s0,s0,1
.LVL339:
.LM1160:
	li	a5,7
	addi	s1,s1,4
	bne	s0,a5,.L273
.LM1161:
	lw	ra,204(sp)
	.cfi_remember_state
	.cfi_restore 1
	lw	s0,200(sp)
	.cfi_restore 8
.LVL340:
.LM1162:
	lw	s1,196(sp)
	.cfi_restore 9
	lw	s2,192(sp)
	.cfi_restore 18
	lw	s3,188(sp)
	.cfi_restore 19
	lw	s4,184(sp)
	.cfi_restore 20
	lw	s5,180(sp)
	.cfi_restore 21
	lw	s6,176(sp)
	.cfi_restore 22
.LVL341:
.LM1163:
	lw	s7,172(sp)
	.cfi_restore 23
	lw	s8,168(sp)
	.cfi_restore 24
	lw	s9,164(sp)
	.cfi_restore 25
	addi	sp,sp,208
	.cfi_def_cfa_offset 0
	jr	ra
.LVL342:
.L261:
	.cfi_restore_state
.LM1164:
	call	xTaskGetTickCount
.LVL343:
	j	.L276
.LVL344:
.L264:
.LM1165:
	call	xTaskGetTickCount
.LVL345:
.LM1166:
	j	.L277
.LVL346:
.L263:
.LM1167:
.LM1168:
.LM1169:
.LM1170:
	beq	a5,zero,.L267
.LM1171:
	call	xTaskGetTickCountFromISR
.LVL347:
.L278:
.LM1172:
	mv	a1,a0
.LM1173:
	lui	a3,%hi(.LC8)
	lui	a0,%hi(.LC48)
	mv	a5,s0
	mv	a6,s6
	li	a4,738
	addi	a3,a3,%lo(.LC8)
	addi	a2,s4,%lo(.LC33)
	addi	a0,a0,%lo(.LC48)
	call	bl_printk
.LVL348:
.LM1174:
.LM1175:
.LM1176:
.LM1177:
	lui	a5,%hi(.LC49)
	addi	s8,a5,%lo(.LC49)
.L269:
.LM1178:
.LM1179:
	li	a2,128
	addi	a1,sp,32
	mv	a0,s6
	call	aos_read
.LVL349:
	mv	s7,a0
.LVL350:
.LM1180:
	bgt	a0,zero,.L272
.LM1181:
	mv	a0,s6
.LVL351:
.LM1182:
	call	aos_close
.LVL352:
	j	.L266
.LVL353:
.L267:
.LM1183:
	call	xTaskGetTickCount
.LVL354:
.LM1184:
	j	.L278
.LVL355:
.L272:
.LM1185:
.LM1186:
.LM1187:
.LBB276:
.LBI276:
.LM1188:
.LBB277:
.LM1189:
.LBE277:
.LBE276:
.LM1190:
	lw	a5,%lo(TrapNetCounter)(s2)
	beq	a5,zero,.L270
.LM1191:
	call	xTaskGetTickCountFromISR
.LVL356:
.L279:
.LM1192:
	lui	s5,%hi(.LC8)
	lui	a2,%hi(.LC33)
.LM1193:
	mv	a1,a0
.LM1194:
	addi	a3,s5,%lo(.LC8)
	mv	a0,s8
	mv	a5,s0
	li	a4,742
	addi	a2,a2,%lo(.LC33)
	call	bl_printk
.LVL357:
.LM1195:
.LM1196:
.LM1197:
	li	a4,0
	mv	a3,s7
	addi	a2,sp,32
	li	a1,743
	addi	a0,s5,%lo(.LC8)
	call	log_buf_out
.LVL358:
	j	.L269
.LVL359:
.L270:
.LM1198:
	call	xTaskGetTickCount
.LVL360:
.LM1199:
	j	.L279
	.cfi_endproc
.LFE26:
	.size	test2_romfs, .-test2_romfs
	.section	.rodata.test3_romfs.str1.4,"aMS",@progbits,1
	.align	2
.LC50:
	.string	"[%10u][%s: %s:%4d] test /romfs .\r\n"
	.align	2
.LC51:
	.string	"[%10u][%s: %s:%4d] addr = %ld\r\n"
	.align	2
.LC52:
	.string	"[%10u][%s: %s:%4d] test start_addr:%p, end_addr:%p\r\n"
	.align	2
.LC53:
	.string	"[%10u][%s: %s:%4d] st.st_size = %ld\r\n"
	.align	2
.LC54:
	.string	"[%10u][%s: %s:%4d] test /romfs/ .\r\n"
	.align	2
.LC55:
	.string	"/romfs/"
	.align	2
.LC56:
	.string	"[%10u][%s: %s:%4d] test /romf .\r\n"
	.align	2
.LC57:
	.string	"/romf"
	.align	2
.LC58:
	.string	"[%10u][%s: %s:%4d] test /romfs/child_dir1/\r\n"
	.align	2
.LC59:
	.string	"/romfs/child_dir1/"
	.align	2
.LC60:
	.string	"[%10u][%s: %s:%4d] test /romfs/child_dir1/aa.bin\r\n"
	.align	2
.LC0:
	.string	"/romfs/child_dir1/aa.bin"
	.align	2
.LC61:
	.string	"[%10u][%s: %s:%4d] test /romfs/child_dir2\r\n"
	.align	2
.LC62:
	.string	"/romfs/child_dir2"
	.align	2
.LC63:
	.string	"[%10u][%s: %s:%4d] test /romfs/child_dir2/bb.bin\r\n"
	.align	2
.LC2:
	.string	"/romfs/child_dir2/bb.bin"
	.align	2
.LC64:
	.string	"[%10u][%s: %s:%4d] test /romfs/child_dir2/son_dir\r\n"
	.align	2
.LC65:
	.string	"/romfs/child_dir2/son_dir"
	.align	2
.LC66:
	.string	"[%10u][%s: %s:%4d] test /romfs/child_dir2/son_dir/EE.bin\r\n"
	.align	2
.LC1:
	.string	"/romfs/child_dir2/son_dir/EE.bin"
	.section	.text.test3_romfs,"ax",@progbits
	.align	1
	.globl	test3_romfs
	.type	test3_romfs, @function
test3_romfs:
.LFB27:
.LM1200:
	.cfi_startproc
.LM1201:
.LM1202:
	addi	sp,sp,-144
	.cfi_def_cfa_offset 144
	sw	s1,132(sp)
	.cfi_offset 9, -12
.LBB278:
.LBB279:
.LM1203:
	lui	s1,%hi(TrapNetCounter)
.LBE279:
.LBE278:
.LM1204:
	lw	a5,%lo(TrapNetCounter)(s1)
.LM1205:
	sw	ra,140(sp)
	sw	s0,136(sp)
	sw	s2,128(sp)
	sw	s3,124(sp)
	sw	s4,120(sp)
	sw	s5,116(sp)
	sw	s6,112(sp)
	sw	s7,108(sp)
	.cfi_offset 1, -4
	.cfi_offset 8, -8
	.cfi_offset 18, -16
	.cfi_offset 19, -20
	.cfi_offset 20, -24
	.cfi_offset 21, -28
	.cfi_offset 22, -32
	.cfi_offset 23, -36
.LM1206:
	sw	zero,0(sp)
.LM1207:
.LM1208:
	sw	zero,4(sp)
.LM1209:
.LM1210:
.LM1211:
.LM1212:
.LM1213:
.LBB281:
.LBI278:
.LM1214:
.LBB280:
.LM1215:
.LBE280:
.LBE281:
.LM1216:
	beq	a5,zero,.L281
.LM1217:
	call	xTaskGetTickCountFromISR
.LVL361:
.L363:
.LM1218:
	mv	a1,a0
.LM1219:
	lui	s0,%hi(.LC8)
	lui	s5,%hi(.LC12)
	lui	a0,%hi(.LC50)
	li	a4,757
	addi	a3,s0,%lo(.LC8)
	addi	a2,s5,%lo(.LC12)
	addi	a0,a0,%lo(.LC50)
	call	bl_printk
.LVL362:
.LM1220:
.LM1221:
.LM1222:
.LM1223:
.LM1224:
.LBB282:
.LBI282:
.LM1225:
.LBB283:
.LM1226:
.LBE283:
.LBE282:
.LM1227:
	lw	a5,%lo(TrapNetCounter)(s1)
	beq	a5,zero,.L283
.LM1228:
	call	xTaskGetTickCountFromISR
.LVL363:
.L364:
.LM1229:
	lui	s7,%hi(.LC15)
.LM1230:
	mv	s3,a0
.LM1231:
	addi	a2,sp,4
	mv	a1,sp
	addi	a0,s7,%lo(.LC15)
	call	dirent_file
.LVL364:
.LM1232:
	lui	s2,%hi(.LC33)
	lui	s4,%hi(.LC51)
.LM1233:
	mv	a5,a0
.LM1234:
	li	a4,758
	addi	a3,s0,%lo(.LC8)
	addi	a2,s2,%lo(.LC33)
	mv	a1,s3
	addi	a0,s4,%lo(.LC51)
	call	bl_printk
.LVL365:
.LM1235:
.LM1236:
.LM1237:
.LM1238:
.LM1239:
.LBB284:
.LBI284:
.LM1240:
.LBB285:
.LM1241:
.LBE285:
.LBE284:
.LM1242:
	lw	a5,%lo(TrapNetCounter)(s1)
	beq	a5,zero,.L285
.LM1243:
	call	xTaskGetTickCountFromISR
.LVL366:
.L365:
.LM1244:
	lw	a6,4(sp)
	lw	a5,0(sp)
	lui	s3,%hi(.LC52)
.LM1245:
	mv	a1,a0
.LM1246:
	addi	a2,s2,%lo(.LC33)
	addi	a0,s3,%lo(.LC52)
	li	a4,759
	addi	a3,s0,%lo(.LC8)
	call	bl_printk
.LVL367:
.LM1247:
.LM1248:
.LM1249:
.LM1250:
	addi	a2,sp,8
	addi	a1,s7,%lo(.LC15)
	li	a0,0
	sw	zero,24(sp)
	call	romfs_stat
.LVL368:
.LM1251:
.LM1252:
	bne	a0,zero,.L287
.LM1253:
	lw	a5,%lo(TrapNetCounter)(s1)
.LM1254:
	lw	s6,24(sp)
.LM1255:
.LM1256:
.LM1257:
.LBB286:
.LBI286:
.LM1258:
.LBB287:
.LM1259:
.LBE287:
.LBE286:
.LM1260:
	beq	a5,zero,.L288
.LM1261:
	call	xTaskGetTickCountFromISR
.LVL369:
.L366:
.LM1262:
	mv	a1,a0
.LM1263:
	lui	a0,%hi(.LC53)
	mv	a5,s6
	li	a4,762
	addi	a3,s0,%lo(.LC8)
	addi	a2,s2,%lo(.LC33)
	addi	a0,a0,%lo(.LC53)
	call	bl_printk
.LVL370:
.L287:
.LM1264:
.LM1265:
.LM1266:
.LM1267:
.LM1268:
.LBB288:
.LBI288:
.LM1269:
.LBB289:
.LM1270:
.LBE289:
.LBE288:
.LM1271:
	lw	a5,%lo(TrapNetCounter)(s1)
	beq	a5,zero,.L290
.LM1272:
	call	xTaskGetTickCountFromISR
.LVL371:
.L367:
.LM1273:
	mv	a1,a0
.LM1274:
	lui	a0,%hi(.LC54)
	li	a4,765
	addi	a3,s0,%lo(.LC8)
	addi	a2,s5,%lo(.LC12)
	addi	a0,a0,%lo(.LC54)
	call	bl_printk
.LVL372:
.LM1275:
.LM1276:
.LM1277:
.LM1278:
.LM1279:
.LBB290:
.LBI290:
.LM1280:
.LBB291:
.LM1281:
.LBE291:
.LBE290:
.LM1282:
	lw	a5,%lo(TrapNetCounter)(s1)
	beq	a5,zero,.L292
.LM1283:
	call	xTaskGetTickCountFromISR
.LVL373:
.L368:
.LM1284:
	mv	s6,a0
.LM1285:
	lui	a0,%hi(.LC55)
	addi	a2,sp,4
	mv	a1,sp
	addi	a0,a0,%lo(.LC55)
	call	dirent_file
.LVL374:
	mv	a5,a0
.LM1286:
	li	a4,766
	addi	a3,s0,%lo(.LC8)
	addi	a2,s2,%lo(.LC33)
	mv	a1,s6
	addi	a0,s4,%lo(.LC51)
	call	bl_printk
.LVL375:
.LM1287:
.LM1288:
.LM1289:
.LM1290:
.LM1291:
.LBB292:
.LBI292:
.LM1292:
.LBB293:
.LM1293:
.LBE293:
.LBE292:
.LM1294:
	lw	a5,%lo(TrapNetCounter)(s1)
	beq	a5,zero,.L294
.LM1295:
	call	xTaskGetTickCountFromISR
.LVL376:
.L369:
.LM1296:
	lw	a6,4(sp)
	lw	a5,0(sp)
.LM1297:
	mv	a1,a0
.LM1298:
	addi	a2,s2,%lo(.LC33)
	addi	a0,s3,%lo(.LC52)
	li	a4,767
	addi	a3,s0,%lo(.LC8)
	call	bl_printk
.LVL377:
.LM1299:
.LM1300:
.LM1301:
.LM1302:
	addi	a2,sp,8
	addi	a1,s7,%lo(.LC15)
	li	a0,0
	call	romfs_stat
.LVL378:
.LM1303:
.LM1304:
	bne	a0,zero,.L296
.LM1305:
	lw	a5,%lo(TrapNetCounter)(s1)
.LM1306:
	lw	s6,24(sp)
.LM1307:
.LM1308:
.LM1309:
.LBB294:
.LBI294:
.LM1310:
.LBB295:
.LM1311:
.LBE295:
.LBE294:
.LM1312:
	beq	a5,zero,.L297
.LM1313:
	call	xTaskGetTickCountFromISR
.LVL379:
.L370:
.LM1314:
	mv	a1,a0
.LM1315:
	lui	a0,%hi(.LC53)
	mv	a5,s6
	li	a4,770
	addi	a3,s0,%lo(.LC8)
	addi	a2,s2,%lo(.LC33)
	addi	a0,a0,%lo(.LC53)
	call	bl_printk
.LVL380:
.L296:
.LM1316:
.LM1317:
.LM1318:
.LM1319:
.LM1320:
.LBB296:
.LBI296:
.LM1321:
.LBB297:
.LM1322:
.LBE297:
.LBE296:
.LM1323:
	lw	a5,%lo(TrapNetCounter)(s1)
	beq	a5,zero,.L299
.LM1324:
	call	xTaskGetTickCountFromISR
.LVL381:
.L371:
.LM1325:
	mv	a1,a0
.LM1326:
	lui	a0,%hi(.LC56)
	li	a4,773
	addi	a3,s0,%lo(.LC8)
	addi	a2,s5,%lo(.LC12)
	addi	a0,a0,%lo(.LC56)
	call	bl_printk
.LVL382:
.LM1327:
.LM1328:
.LM1329:
.LM1330:
.LM1331:
.LBB298:
.LBI298:
.LM1332:
.LBB299:
.LM1333:
.LBE299:
.LBE298:
.LM1334:
	lw	a5,%lo(TrapNetCounter)(s1)
	beq	a5,zero,.L301
.LM1335:
	call	xTaskGetTickCountFromISR
.LVL383:
.L372:
.LM1336:
	lui	s7,%hi(.LC57)
.LM1337:
	mv	s6,a0
.LM1338:
	addi	a2,sp,4
	mv	a1,sp
	addi	a0,s7,%lo(.LC57)
	call	dirent_file
.LVL384:
	mv	a5,a0
.LM1339:
	li	a4,774
	addi	a3,s0,%lo(.LC8)
	addi	a2,s2,%lo(.LC33)
	mv	a1,s6
	addi	a0,s4,%lo(.LC51)
	call	bl_printk
.LVL385:
.LM1340:
.LM1341:
.LM1342:
.LM1343:
.LM1344:
.LBB300:
.LBI300:
.LM1345:
.LBB301:
.LM1346:
.LBE301:
.LBE300:
.LM1347:
	lw	a5,%lo(TrapNetCounter)(s1)
	beq	a5,zero,.L303
.LM1348:
	call	xTaskGetTickCountFromISR
.LVL386:
.L373:
.LM1349:
	lw	a6,4(sp)
	lw	a5,0(sp)
.LM1350:
	mv	a1,a0
.LM1351:
	addi	a2,s2,%lo(.LC33)
	addi	a0,s3,%lo(.LC52)
	li	a4,775
	addi	a3,s0,%lo(.LC8)
	call	bl_printk
.LVL387:
.LM1352:
.LM1353:
.LM1354:
.LM1355:
	addi	a2,sp,8
	addi	a1,s7,%lo(.LC57)
	li	a0,0
	call	romfs_stat
.LVL388:
.LM1356:
.LM1357:
	bne	a0,zero,.L305
.LM1358:
	lw	a5,%lo(TrapNetCounter)(s1)
.LM1359:
	lw	s6,24(sp)
.LM1360:
.LM1361:
.LM1362:
.LBB302:
.LBI302:
.LM1363:
.LBB303:
.LM1364:
.LBE303:
.LBE302:
.LM1365:
	beq	a5,zero,.L306
.LM1366:
	call	xTaskGetTickCountFromISR
.LVL389:
.L374:
.LM1367:
	mv	a1,a0
.LM1368:
	lui	a0,%hi(.LC53)
	mv	a5,s6
	li	a4,778
	addi	a3,s0,%lo(.LC8)
	addi	a2,s2,%lo(.LC33)
	addi	a0,a0,%lo(.LC53)
	call	bl_printk
.LVL390:
.L305:
.LM1369:
.LM1370:
.LM1371:
.LM1372:
.LM1373:
.LBB304:
.LBI304:
.LM1374:
.LBB305:
.LM1375:
.LBE305:
.LBE304:
.LM1376:
	lw	a5,%lo(TrapNetCounter)(s1)
	beq	a5,zero,.L308
.LM1377:
	call	xTaskGetTickCountFromISR
.LVL391:
.L375:
.LM1378:
	mv	a1,a0
.LM1379:
	lui	a0,%hi(.LC58)
	li	a4,782
	addi	a3,s0,%lo(.LC8)
	addi	a2,s5,%lo(.LC12)
	addi	a0,a0,%lo(.LC58)
	call	bl_printk
.LVL392:
.LM1380:
.LM1381:
.LM1382:
.LM1383:
.LM1384:
.LBB306:
.LBI306:
.LM1385:
.LBB307:
.LM1386:
.LBE307:
.LBE306:
.LM1387:
	lw	a5,%lo(TrapNetCounter)(s1)
	beq	a5,zero,.L310
.LM1388:
	call	xTaskGetTickCountFromISR
.LVL393:
.L376:
.LM1389:
	lui	s7,%hi(.LC59)
.LM1390:
	mv	s6,a0
.LM1391:
	addi	a2,sp,4
	mv	a1,sp
	addi	a0,s7,%lo(.LC59)
	call	dirent_file
.LVL394:
	mv	a5,a0
.LM1392:
	li	a4,783
	addi	a3,s0,%lo(.LC8)
	addi	a2,s2,%lo(.LC33)
	mv	a1,s6
	addi	a0,s4,%lo(.LC51)
	call	bl_printk
.LVL395:
.LM1393:
.LM1394:
.LM1395:
.LM1396:
.LM1397:
.LBB308:
.LBI308:
.LM1398:
.LBB309:
.LM1399:
.LBE309:
.LBE308:
.LM1400:
	lw	a5,%lo(TrapNetCounter)(s1)
	beq	a5,zero,.L312
.LM1401:
	call	xTaskGetTickCountFromISR
.LVL396:
.L377:
.LM1402:
	lw	a6,4(sp)
	lw	a5,0(sp)
.LM1403:
	mv	a1,a0
.LM1404:
	addi	a2,s2,%lo(.LC33)
	addi	a0,s3,%lo(.LC52)
	li	a4,784
	addi	a3,s0,%lo(.LC8)
	call	bl_printk
.LVL397:
.LM1405:
.LM1406:
.LM1407:
.LM1408:
	addi	a2,sp,8
	addi	a1,s7,%lo(.LC59)
	li	a0,0
	call	romfs_stat
.LVL398:
.LM1409:
.LM1410:
	bne	a0,zero,.L314
.LM1411:
	lw	a5,%lo(TrapNetCounter)(s1)
.LM1412:
	lw	s6,24(sp)
.LM1413:
.LM1414:
.LM1415:
.LBB310:
.LBI310:
.LM1416:
.LBB311:
.LM1417:
.LBE311:
.LBE310:
.LM1418:
	beq	a5,zero,.L315
.LM1419:
	call	xTaskGetTickCountFromISR
.LVL399:
.L378:
.LM1420:
	mv	a1,a0
.LM1421:
	lui	a0,%hi(.LC53)
	mv	a5,s6
	li	a4,787
	addi	a3,s0,%lo(.LC8)
	addi	a2,s2,%lo(.LC33)
	addi	a0,a0,%lo(.LC53)
	call	bl_printk
.LVL400:
.L314:
.LM1422:
.LM1423:
.LM1424:
.LM1425:
.LM1426:
.LBB312:
.LBI312:
.LM1427:
.LBB313:
.LM1428:
.LBE313:
.LBE312:
.LM1429:
	lw	a5,%lo(TrapNetCounter)(s1)
	beq	a5,zero,.L317
.LM1430:
	call	xTaskGetTickCountFromISR
.LVL401:
.L379:
.LM1431:
	mv	a1,a0
.LM1432:
	lui	a0,%hi(.LC60)
	li	a4,790
	addi	a3,s0,%lo(.LC8)
	addi	a2,s5,%lo(.LC12)
	addi	a0,a0,%lo(.LC60)
	call	bl_printk
.LVL402:
.LM1433:
.LM1434:
.LM1435:
.LM1436:
.LM1437:
.LBB314:
.LBI314:
.LM1438:
.LBB315:
.LM1439:
.LBE315:
.LBE314:
.LM1440:
	lw	a5,%lo(TrapNetCounter)(s1)
	beq	a5,zero,.L319
.LM1441:
	call	xTaskGetTickCountFromISR
.LVL403:
.L380:
.LM1442:
	lui	s7,%hi(.LC0)
.LM1443:
	mv	s6,a0
.LM1444:
	addi	a2,sp,4
	mv	a1,sp
	addi	a0,s7,%lo(.LC0)
	call	dirent_file
.LVL404:
	mv	a5,a0
.LM1445:
	li	a4,791
	addi	a3,s0,%lo(.LC8)
	addi	a2,s2,%lo(.LC33)
	mv	a1,s6
	addi	a0,s4,%lo(.LC51)
	call	bl_printk
.LVL405:
.LM1446:
.LM1447:
.LM1448:
.LM1449:
.LM1450:
.LBB316:
.LBI316:
.LM1451:
.LBB317:
.LM1452:
.LBE317:
.LBE316:
.LM1453:
	lw	a5,%lo(TrapNetCounter)(s1)
	beq	a5,zero,.L321
.LM1454:
	call	xTaskGetTickCountFromISR
.LVL406:
.L381:
.LM1455:
	lw	a6,4(sp)
	lw	a5,0(sp)
.LM1456:
	mv	a1,a0
.LM1457:
	addi	a2,s2,%lo(.LC33)
	addi	a0,s3,%lo(.LC52)
	li	a4,792
	addi	a3,s0,%lo(.LC8)
	call	bl_printk
.LVL407:
.LM1458:
.LM1459:
.LM1460:
.LM1461:
	addi	a2,sp,8
	addi	a1,s7,%lo(.LC0)
	li	a0,0
	call	romfs_stat
.LVL408:
.LM1462:
.LM1463:
	bne	a0,zero,.L323
.LM1464:
	lw	a5,%lo(TrapNetCounter)(s1)
.LM1465:
	lw	s6,24(sp)
.LM1466:
.LM1467:
.LM1468:
.LBB318:
.LBI318:
.LM1469:
.LBB319:
.LM1470:
.LBE319:
.LBE318:
.LM1471:
	beq	a5,zero,.L324
.LM1472:
	call	xTaskGetTickCountFromISR
.LVL409:
.L382:
.LM1473:
	mv	a1,a0
.LM1474:
	lui	a0,%hi(.LC53)
	mv	a5,s6
	li	a4,795
	addi	a3,s0,%lo(.LC8)
	addi	a2,s2,%lo(.LC33)
	addi	a0,a0,%lo(.LC53)
	call	bl_printk
.LVL410:
.L323:
.LM1475:
.LM1476:
.LM1477:
.LM1478:
.LM1479:
.LBB320:
.LBI320:
.LM1480:
.LBB321:
.LM1481:
.LBE321:
.LBE320:
.LM1482:
	lw	a5,%lo(TrapNetCounter)(s1)
	beq	a5,zero,.L326
.LM1483:
	call	xTaskGetTickCountFromISR
.LVL411:
.L383:
.LM1484:
	mv	a1,a0
.LM1485:
	lui	a0,%hi(.LC61)
	li	a4,799
	addi	a3,s0,%lo(.LC8)
	addi	a2,s5,%lo(.LC12)
	addi	a0,a0,%lo(.LC61)
	call	bl_printk
.LVL412:
.LM1486:
.LM1487:
.LM1488:
.LM1489:
.LM1490:
.LBB322:
.LBI322:
.LM1491:
.LBB323:
.LM1492:
.LBE323:
.LBE322:
.LM1493:
	lw	a5,%lo(TrapNetCounter)(s1)
	beq	a5,zero,.L328
.LM1494:
	call	xTaskGetTickCountFromISR
.LVL413:
.L384:
.LM1495:
	lui	s7,%hi(.LC62)
.LM1496:
	mv	s6,a0
.LM1497:
	addi	a2,sp,4
	mv	a1,sp
	addi	a0,s7,%lo(.LC62)
	call	dirent_file
.LVL414:
	mv	a5,a0
.LM1498:
	li	a4,800
	addi	a3,s0,%lo(.LC8)
	addi	a2,s2,%lo(.LC33)
	mv	a1,s6
	addi	a0,s4,%lo(.LC51)
	call	bl_printk
.LVL415:
.LM1499:
.LM1500:
.LM1501:
.LM1502:
.LM1503:
.LBB324:
.LBI324:
.LM1504:
.LBB325:
.LM1505:
.LBE325:
.LBE324:
.LM1506:
	lw	a5,%lo(TrapNetCounter)(s1)
	beq	a5,zero,.L330
.LM1507:
	call	xTaskGetTickCountFromISR
.LVL416:
.L385:
.LM1508:
	lw	a6,4(sp)
	lw	a5,0(sp)
.LM1509:
	mv	a1,a0
.LM1510:
	addi	a2,s2,%lo(.LC33)
	addi	a0,s3,%lo(.LC52)
	li	a4,801
	addi	a3,s0,%lo(.LC8)
	call	bl_printk
.LVL417:
.LM1511:
.LM1512:
.LM1513:
.LM1514:
	addi	a2,sp,8
	addi	a1,s7,%lo(.LC62)
	li	a0,0
	call	romfs_stat
.LVL418:
.LM1515:
.LM1516:
	bne	a0,zero,.L332
.LM1517:
	lw	a5,%lo(TrapNetCounter)(s1)
.LM1518:
	lw	s6,24(sp)
.LM1519:
.LM1520:
.LM1521:
.LBB326:
.LBI326:
.LM1522:
.LBB327:
.LM1523:
.LBE327:
.LBE326:
.LM1524:
	beq	a5,zero,.L333
.LM1525:
	call	xTaskGetTickCountFromISR
.LVL419:
.L386:
.LM1526:
	mv	a1,a0
.LM1527:
	lui	a0,%hi(.LC53)
	mv	a5,s6
	li	a4,804
	addi	a3,s0,%lo(.LC8)
	addi	a2,s2,%lo(.LC33)
	addi	a0,a0,%lo(.LC53)
	call	bl_printk
.LVL420:
.L332:
.LM1528:
.LM1529:
.LM1530:
.LM1531:
.LM1532:
.LBB328:
.LBI328:
.LM1533:
.LBB329:
.LM1534:
.LBE329:
.LBE328:
.LM1535:
	lw	a5,%lo(TrapNetCounter)(s1)
	beq	a5,zero,.L335
.LM1536:
	call	xTaskGetTickCountFromISR
.LVL421:
.L387:
.LM1537:
	mv	a1,a0
.LM1538:
	lui	a0,%hi(.LC63)
	li	a4,807
	addi	a3,s0,%lo(.LC8)
	addi	a2,s5,%lo(.LC12)
	addi	a0,a0,%lo(.LC63)
	call	bl_printk
.LVL422:
.LM1539:
.LM1540:
.LM1541:
.LM1542:
.LM1543:
.LBB330:
.LBI330:
.LM1544:
.LBB331:
.LM1545:
.LBE331:
.LBE330:
.LM1546:
	lw	a5,%lo(TrapNetCounter)(s1)
	beq	a5,zero,.L337
.LM1547:
	call	xTaskGetTickCountFromISR
.LVL423:
.L388:
.LM1548:
	lui	s7,%hi(.LC2)
.LM1549:
	mv	s6,a0
.LM1550:
	addi	a2,sp,4
	mv	a1,sp
	addi	a0,s7,%lo(.LC2)
	call	dirent_file
.LVL424:
	mv	a5,a0
.LM1551:
	li	a4,808
	addi	a3,s0,%lo(.LC8)
	addi	a2,s2,%lo(.LC33)
	mv	a1,s6
	addi	a0,s4,%lo(.LC51)
	call	bl_printk
.LVL425:
.LM1552:
.LM1553:
.LM1554:
.LM1555:
.LM1556:
.LBB332:
.LBI332:
.LM1557:
.LBB333:
.LM1558:
.LBE333:
.LBE332:
.LM1559:
	lw	a5,%lo(TrapNetCounter)(s1)
	beq	a5,zero,.L339
.LM1560:
	call	xTaskGetTickCountFromISR
.LVL426:
.L389:
.LM1561:
	lw	a6,4(sp)
	lw	a5,0(sp)
.LM1562:
	mv	a1,a0
.LM1563:
	addi	a2,s2,%lo(.LC33)
	addi	a0,s3,%lo(.LC52)
	li	a4,809
	addi	a3,s0,%lo(.LC8)
	call	bl_printk
.LVL427:
.LM1564:
.LM1565:
.LM1566:
.LM1567:
	addi	a2,sp,8
	addi	a1,s7,%lo(.LC2)
	li	a0,0
	call	romfs_stat
.LVL428:
.LM1568:
.LM1569:
	bne	a0,zero,.L341
.LM1570:
	lw	a5,%lo(TrapNetCounter)(s1)
.LM1571:
	lw	s6,24(sp)
.LM1572:
.LM1573:
.LM1574:
.LBB334:
.LBI334:
.LM1575:
.LBB335:
.LM1576:
.LBE335:
.LBE334:
.LM1577:
	beq	a5,zero,.L342
.LM1578:
	call	xTaskGetTickCountFromISR
.LVL429:
.L390:
.LM1579:
	mv	a1,a0
.LM1580:
	lui	a0,%hi(.LC53)
	mv	a5,s6
	li	a4,812
	addi	a3,s0,%lo(.LC8)
	addi	a2,s2,%lo(.LC33)
	addi	a0,a0,%lo(.LC53)
	call	bl_printk
.LVL430:
.L341:
.LM1581:
.LM1582:
.LM1583:
.LM1584:
.LM1585:
.LBB336:
.LBI336:
.LM1586:
.LBB337:
.LM1587:
.LBE337:
.LBE336:
.LM1588:
	lw	a5,%lo(TrapNetCounter)(s1)
	beq	a5,zero,.L344
.LM1589:
	call	xTaskGetTickCountFromISR
.LVL431:
.L391:
.LM1590:
	mv	a1,a0
.LM1591:
	lui	a0,%hi(.LC64)
	li	a4,815
	addi	a3,s0,%lo(.LC8)
	addi	a2,s5,%lo(.LC12)
	addi	a0,a0,%lo(.LC64)
	call	bl_printk
.LVL432:
.LM1592:
.LM1593:
.LM1594:
.LM1595:
.LM1596:
.LBB338:
.LBI338:
.LM1597:
.LBB339:
.LM1598:
.LBE339:
.LBE338:
.LM1599:
	lw	a5,%lo(TrapNetCounter)(s1)
	beq	a5,zero,.L346
.LM1600:
	call	xTaskGetTickCountFromISR
.LVL433:
.L392:
.LM1601:
	lui	s6,%hi(.LC65)
.LM1602:
	mv	s5,a0
.LM1603:
	addi	a2,sp,4
	mv	a1,sp
	addi	a0,s6,%lo(.LC65)
	call	dirent_file
.LVL434:
	mv	a5,a0
.LM1604:
	li	a4,816
	addi	a3,s0,%lo(.LC8)
	addi	a2,s2,%lo(.LC33)
	mv	a1,s5
	addi	a0,s4,%lo(.LC51)
	call	bl_printk
.LVL435:
.LM1605:
.LM1606:
.LM1607:
.LM1608:
.LM1609:
.LBB340:
.LBI340:
.LM1610:
.LBB341:
.LM1611:
.LBE341:
.LBE340:
.LM1612:
	lw	a5,%lo(TrapNetCounter)(s1)
	beq	a5,zero,.L348
.LM1613:
	call	xTaskGetTickCountFromISR
.LVL436:
.L393:
.LM1614:
	lw	a6,4(sp)
	lw	a5,0(sp)
.LM1615:
	mv	a1,a0
.LM1616:
	addi	a2,s2,%lo(.LC33)
	addi	a0,s3,%lo(.LC52)
	li	a4,817
	addi	a3,s0,%lo(.LC8)
	call	bl_printk
.LVL437:
.LM1617:
.LM1618:
.LM1619:
.LM1620:
	addi	a2,sp,8
	addi	a1,s6,%lo(.LC65)
	li	a0,0
	call	romfs_stat
.LVL438:
.LM1621:
	lui	s3,%hi(TrapNetCounter)
	lui	s1,%hi(.LC8)
	lui	s2,%hi(.LC33)
.LM1622:
	bne	a0,zero,.L350
.LM1623:
	lw	a5,%lo(TrapNetCounter)(s3)
.LM1624:
	lw	s0,24(sp)
.LM1625:
.LM1626:
.LM1627:
.LBB342:
.LBI342:
.LM1628:
.LBB343:
.LM1629:
.LBE343:
.LBE342:
.LM1630:
	beq	a5,zero,.L351
.LM1631:
	call	xTaskGetTickCountFromISR
.LVL439:
.L394:
.LM1632:
	mv	a1,a0
.LM1633:
	lui	a0,%hi(.LC53)
	mv	a5,s0
	li	a4,820
	addi	a3,s1,%lo(.LC8)
	addi	a2,s2,%lo(.LC33)
	addi	a0,a0,%lo(.LC53)
	call	bl_printk
.LVL440:
.L350:
.LM1634:
.LM1635:
.LM1636:
.LM1637:
.LM1638:
.LBB344:
.LBI344:
.LM1639:
.LBB345:
.LM1640:
.LBE345:
.LBE344:
.LM1641:
	lw	a5,%lo(TrapNetCounter)(s3)
	beq	a5,zero,.L353
.LM1642:
	call	xTaskGetTickCountFromISR
.LVL441:
.L395:
.LM1643:
	mv	a1,a0
.LM1644:
	lui	a2,%hi(.LC12)
	lui	a0,%hi(.LC66)
	li	a4,823
	addi	a3,s1,%lo(.LC8)
	addi	a2,a2,%lo(.LC12)
	addi	a0,a0,%lo(.LC66)
	call	bl_printk
.LVL442:
.LM1645:
.LM1646:
.LM1647:
.LM1648:
.LM1649:
.LBB346:
.LBI346:
.LM1650:
.LBB347:
.LM1651:
.LBE347:
.LBE346:
.LM1652:
	lw	a5,%lo(TrapNetCounter)(s3)
	beq	a5,zero,.L355
.LM1653:
	call	xTaskGetTickCountFromISR
.LVL443:
.L396:
.LM1654:
	lui	s4,%hi(.LC1)
.LM1655:
	mv	s0,a0
.LM1656:
	addi	a2,sp,4
	mv	a1,sp
	addi	a0,s4,%lo(.LC1)
	call	dirent_file
.LVL444:
	mv	a5,a0
.LM1657:
	lui	a0,%hi(.LC51)
	li	a4,824
	addi	a3,s1,%lo(.LC8)
	addi	a2,s2,%lo(.LC33)
	mv	a1,s0
	addi	a0,a0,%lo(.LC51)
	call	bl_printk
.LVL445:
.LM1658:
.LM1659:
.LM1660:
.LM1661:
.LM1662:
.LBB348:
.LBI348:
.LM1663:
.LBB349:
.LM1664:
.LBE349:
.LBE348:
.LM1665:
	lw	a5,%lo(TrapNetCounter)(s3)
	beq	a5,zero,.L357
.LM1666:
	call	xTaskGetTickCountFromISR
.LVL446:
.L397:
.LM1667:
	lw	a6,4(sp)
	lw	a5,0(sp)
.LM1668:
	mv	a1,a0
.LM1669:
	lui	a0,%hi(.LC52)
	addi	a2,s2,%lo(.LC33)
	addi	a0,a0,%lo(.LC52)
	li	a4,825
	addi	a3,s1,%lo(.LC8)
	call	bl_printk
.LVL447:
.LM1670:
.LM1671:
.LM1672:
.LM1673:
	addi	a2,sp,8
	addi	a1,s4,%lo(.LC1)
	li	a0,0
	call	romfs_stat
.LVL448:
.LM1674:
.LM1675:
	bne	a0,zero,.L280
.LM1676:
	lw	a5,%lo(TrapNetCounter)(s3)
.LM1677:
	lw	s0,24(sp)
.LM1678:
.LM1679:
.LM1680:
.LBB350:
.LBI350:
.LM1681:
.LBB351:
.LM1682:
.LBE351:
.LBE350:
.LM1683:
	beq	a5,zero,.L360
.LM1684:
	call	xTaskGetTickCountFromISR
.LVL449:
.L398:
.LM1685:
	mv	a5,s0
.LM1686:
	lw	s0,136(sp)
	.cfi_remember_state
	.cfi_restore 8
.LVL450:
.LM1687:
	lw	ra,140(sp)
	.cfi_restore 1
	lw	s3,124(sp)
	.cfi_restore 19
	lw	s4,120(sp)
	.cfi_restore 20
	lw	s5,116(sp)
	.cfi_restore 21
	lw	s6,112(sp)
	.cfi_restore 22
	lw	s7,108(sp)
	.cfi_restore 23
.LM1688:
	addi	a3,s1,%lo(.LC8)
	addi	a2,s2,%lo(.LC33)
.LM1689:
	lw	s1,132(sp)
	.cfi_restore 9
	lw	s2,128(sp)
	.cfi_restore 18
.LM1690:
	mv	a1,a0
.LM1691:
	lui	a0,%hi(.LC53)
.LM1692:
.LM1693:
	li	a4,828
	addi	a0,a0,%lo(.LC53)
.LM1694:
	addi	sp,sp,144
	.cfi_def_cfa_offset 0
.LM1695:
	tail	bl_printk
.LVL451:
.L281:
	.cfi_restore_state
.LM1696:
	call	xTaskGetTickCount
.LVL452:
	j	.L363
.L283:
.LM1697:
	call	xTaskGetTickCount
.LVL453:
	j	.L364
.L285:
.LM1698:
	call	xTaskGetTickCount
.LVL454:
	j	.L365
.LVL455:
.L288:
.LM1699:
	call	xTaskGetTickCount
.LVL456:
.LM1700:
	j	.L366
.LVL457:
.L290:
.LM1701:
	call	xTaskGetTickCount
.LVL458:
	j	.L367
.L292:
.LM1702:
	call	xTaskGetTickCount
.LVL459:
	j	.L368
.L294:
.LM1703:
	call	xTaskGetTickCount
.LVL460:
	j	.L369
.LVL461:
.L297:
.LM1704:
	call	xTaskGetTickCount
.LVL462:
.LM1705:
	j	.L370
.LVL463:
.L299:
.LM1706:
	call	xTaskGetTickCount
.LVL464:
	j	.L371
.L301:
.LM1707:
	call	xTaskGetTickCount
.LVL465:
	j	.L372
.L303:
.LM1708:
	call	xTaskGetTickCount
.LVL466:
	j	.L373
.LVL467:
.L306:
.LM1709:
	call	xTaskGetTickCount
.LVL468:
.LM1710:
	j	.L374
.LVL469:
.L308:
.LM1711:
	call	xTaskGetTickCount
.LVL470:
	j	.L375
.L310:
.LM1712:
	call	xTaskGetTickCount
.LVL471:
	j	.L376
.L312:
.LM1713:
	call	xTaskGetTickCount
.LVL472:
	j	.L377
.LVL473:
.L315:
.LM1714:
	call	xTaskGetTickCount
.LVL474:
.LM1715:
	j	.L378
.LVL475:
.L317:
.LM1716:
	call	xTaskGetTickCount
.LVL476:
	j	.L379
.L319:
.LM1717:
	call	xTaskGetTickCount
.LVL477:
	j	.L380
.L321:
.LM1718:
	call	xTaskGetTickCount
.LVL478:
	j	.L381
.LVL479:
.L324:
.LM1719:
	call	xTaskGetTickCount
.LVL480:
.LM1720:
	j	.L382
.LVL481:
.L326:
.LM1721:
	call	xTaskGetTickCount
.LVL482:
	j	.L383
.L328:
.LM1722:
	call	xTaskGetTickCount
.LVL483:
	j	.L384
.L330:
.LM1723:
	call	xTaskGetTickCount
.LVL484:
	j	.L385
.LVL485:
.L333:
.LM1724:
	call	xTaskGetTickCount
.LVL486:
.LM1725:
	j	.L386
.LVL487:
.L335:
.LM1726:
	call	xTaskGetTickCount
.LVL488:
	j	.L387
.L337:
.LM1727:
	call	xTaskGetTickCount
.LVL489:
	j	.L388
.L339:
.LM1728:
	call	xTaskGetTickCount
.LVL490:
	j	.L389
.LVL491:
.L342:
.LM1729:
	call	xTaskGetTickCount
.LVL492:
.LM1730:
	j	.L390
.LVL493:
.L344:
.LM1731:
	call	xTaskGetTickCount
.LVL494:
	j	.L391
.L346:
.LM1732:
	call	xTaskGetTickCount
.LVL495:
	j	.L392
.L348:
.LM1733:
	call	xTaskGetTickCount
.LVL496:
	j	.L393
.LVL497:
.L351:
.LM1734:
	call	xTaskGetTickCount
.LVL498:
.LM1735:
	j	.L394
.LVL499:
.L353:
.LM1736:
	call	xTaskGetTickCount
.LVL500:
	j	.L395
.L355:
.LM1737:
	call	xTaskGetTickCount
.LVL501:
	j	.L396
.L357:
.LM1738:
	call	xTaskGetTickCount
.LVL502:
	j	.L397
.LVL503:
.L360:
.LM1739:
	call	xTaskGetTickCount
.LVL504:
.LM1740:
	j	.L398
.LVL505:
.L280:
.LM1741:
	lw	ra,140(sp)
	.cfi_restore 1
	lw	s0,136(sp)
	.cfi_restore 8
	lw	s1,132(sp)
	.cfi_restore 9
	lw	s2,128(sp)
	.cfi_restore 18
	lw	s3,124(sp)
	.cfi_restore 19
	lw	s4,120(sp)
	.cfi_restore 20
	lw	s5,116(sp)
	.cfi_restore 21
	lw	s6,112(sp)
	.cfi_restore 22
	lw	s7,108(sp)
	.cfi_restore 23
	addi	sp,sp,144
	.cfi_def_cfa_offset 0
.LVL506:
.LM1742:
	jr	ra
	.cfi_endproc
.LFE27:
	.size	test3_romfs, .-test3_romfs
	.section	.rodata.str1.4,"aMS",@progbits,1
	.align	2
.LC3:
	.string	"/romfs/child_dir3/cc.bin"
	.align	2
.LC4:
	.string	"/romfs/11.bin"
	.align	2
.LC5:
	.string	"/romfs/22.bin"
	.align	2
.LC6:
	.string	"/romfs/33.bin"
	.section	.rodata.romfs_ops,"a"
	.align	2
	.type	romfs_ops, @object
	.size	romfs_ops, 80
romfs_ops:
	.word	romfs_open
	.word	romfs_close
	.word	romfs_read
	.word	0
	.word	romfs_lseek
	.zero	4
	.word	romfs_stat
	.word	0
	.zero	4
	.word	romfs_opendir
	.word	romfs_readdir
	.word	romfs_closedir
	.zero	12
	.word	0
	.word	0
	.word	romfs_ioctl
	.zero	4
	.word	0
	.section	.sbss.handle_romfs,"aw",@nobits
	.align	2
	.type	handle_romfs, @object
	.size	handle_romfs, 4
handle_romfs:
	.zero	4
	.section	.sbss.romfs_root,"aw",@nobits
	.align	2
	.type	romfs_root, @object
	.size	romfs_root, 4
romfs_root:
	.zero	4
	.globl	romfh_t
	.section	.bss.romfh_t,"aw",@nobits
	.align	2
	.type	romfh_t, @object
	.size	romfh_t, 16
romfh_t:
	.zero	16
	.section	.rodata
	.align	2
	.set	.LANCHOR0,. + 0
.LC45:
	.word	.LC0
	.word	.LC1
	.word	.LC2
	.word	.LC3
	.word	.LC4
	.word	.LC5
	.word	.LC6
	.text
.Letext0:
	.section	.note.GNU-stack,"",@progbits
