	.file	"bl602_mfg_efuse.c"
	.option nopic
	.attribute arch, "rv32i2p1_m2p0_f2p2_c2p0_zicsr2p0_zmmul1p0_zca1p0_zcf1p0"
	.attribute unaligned_access, 0
	.attribute stack_align, 16
	.text
.Ltext0:
	.cfi_sections	.debug_frame
	.section	.text.mfg_efuse_get_rf_cal_slots,"ax",@progbits
	.align	1
	.globl	mfg_efuse_get_rf_cal_slots
	.type	mfg_efuse_get_rf_cal_slots, @function
mfg_efuse_get_rf_cal_slots:
.LFB8:
.LM1:
	.cfi_startproc
.LM2:
.LM3:
	lui	a5,%hi(rf_cal_slots)
	lbu	a0,%lo(rf_cal_slots)(a5)
	ret
	.cfi_endproc
.LFE8:
	.size	mfg_efuse_get_rf_cal_slots, .-mfg_efuse_get_rf_cal_slots
	.section	.text.mfg_efuse_set_rf_cal_slots,"ax",@progbits
	.align	1
	.globl	mfg_efuse_set_rf_cal_slots
	.type	mfg_efuse_set_rf_cal_slots, @function
mfg_efuse_set_rf_cal_slots:
.LVL0:
.LFB9:
.LM4:
	.cfi_startproc
.LM5:
.LM6:
	lui	a5,%hi(rf_cal_slots)
	sb	a0,%lo(rf_cal_slots)(a5)
.LM7:
	ret
	.cfi_endproc
.LFE9:
	.size	mfg_efuse_set_rf_cal_slots, .-mfg_efuse_set_rf_cal_slots
	.section	.rodata.mfg_efuse_is_xtal_capcode_slot_empty.str1.4,"aMS",@progbits,1
	.align	2
.LC0:
	.string	"Empty slot:%d\r\n"
	.align	2
.LC1:
	.string	"No empty slot found\r\n"
	.section	.text.mfg_efuse_is_xtal_capcode_slot_empty,"ax",@progbits
	.align	1
	.globl	mfg_efuse_is_xtal_capcode_slot_empty
	.type	mfg_efuse_is_xtal_capcode_slot_empty, @function
mfg_efuse_is_xtal_capcode_slot_empty:
.LVL1:
.LFB10:
.LM8:
	.cfi_startproc
.LM9:
.LM10:
.LM11:
.LM12:
	addi	sp,sp,-32
	.cfi_def_cfa_offset 32
	sw	ra,28(sp)
	sw	s0,24(sp)
	sw	s2,16(sp)
	sw	s3,12(sp)
	sw	s4,8(sp)
	sw	s1,20(sp)
	.cfi_offset 1, -4
	.cfi_offset 8, -8
	.cfi_offset 18, -16
	.cfi_offset 19, -20
	.cfi_offset 20, -24
	.cfi_offset 9, -12
.LM13:
	mv	s2,a0
.LM14:
	call	GLB_Get_BCLK_Div
.LVL2:
.LM15:
	mv	s3,a0
.LVL3:
.LM16:
.LM17:
	call	GLB_Get_HCLK_Div
.LVL4:
	mv	s4,a0
.LVL5:
.LM18:
	li	a0,1
	call	HBN_Set_ROOT_CLK_Sel
.LVL6:
.LM19:
.LM20:
	lui	s0,%hi(rf_cal_slots)
.LM21:
	lbu	a5,%lo(rf_cal_slots)(s0)
	beq	a5,zero,.L9
.LM22:
	mv	a1,s2
	li	a0,0
	call	EF_Ctrl_Is_CapCode_Slot_Empty
.LVL7:
.LM23:
	li	a1,0
.LM24:
	bne	a0,zero,.L18
.LM25:
.LM26:
	lbu	a5,%lo(rf_cal_slots)(s0)
	li	s1,1
	bleu	a5,s1,.L9
.LM27:
	mv	a1,s2
	mv	a0,s1
	call	EF_Ctrl_Is_CapCode_Slot_Empty
.LVL8:
.LM28:
	beq	a0,zero,.L7
.LM29:
	mv	a1,s1
.L18:
	lui	a0,%hi(.LC0)
	addi	a0,a0,%lo(.LC0)
	call	printf
.LVL9:
.LM30:
.LM31:
	li	s0,1
.LVL10:
.L8:
.LM32:
	mv	a1,s3
	mv	a0,s4
	call	GLB_Set_System_CLK_Div
.LVL11:
.LM33:
	li	a0,2
	call	HBN_Set_ROOT_CLK_Sel
.LVL12:
.LM34:
.LM35:
	lw	ra,28(sp)
	.cfi_remember_state
	.cfi_restore 1
	mv	a0,s0
	lw	s0,24(sp)
	.cfi_restore 8
.LVL13:
.LM36:
	lw	s1,20(sp)
	.cfi_restore 9
	lw	s2,16(sp)
	.cfi_restore 18
.LVL14:
.LM37:
	lw	s3,12(sp)
	.cfi_restore 19
.LVL15:
.LM38:
	lw	s4,8(sp)
	.cfi_restore 20
.LVL16:
.LM39:
	addi	sp,sp,32
	.cfi_def_cfa_offset 0
	jr	ra
.LVL17:
.L7:
	.cfi_restore_state
.LM40:
.LM41:
	lbu	a5,%lo(rf_cal_slots)(s0)
	li	s0,2
	bleu	a5,s0,.L9
.LM42:
	mv	a1,s2
	mv	a0,s0
	call	EF_Ctrl_Is_CapCode_Slot_Empty
.LVL18:
.LM43:
	mv	a1,s0
.LM44:
	bne	a0,zero,.L18
.L9:
.LM45:
.LM46:
	lui	a0,%hi(.LC1)
	addi	a0,a0,%lo(.LC1)
	call	printf
.LVL19:
.LM47:
	li	s0,0
	j	.L8
	.cfi_endproc
.LFE10:
	.size	mfg_efuse_is_xtal_capcode_slot_empty, .-mfg_efuse_is_xtal_capcode_slot_empty
	.section	.rodata.mfg_efuse_write_xtal_capcode_pre.str1.4,"aMS",@progbits,1
	.align	2
.LC2:
	.string	"Write slot:%d\r\n"
	.section	.text.mfg_efuse_write_xtal_capcode_pre,"ax",@progbits
	.align	1
	.globl	mfg_efuse_write_xtal_capcode_pre
	.type	mfg_efuse_write_xtal_capcode_pre, @function
mfg_efuse_write_xtal_capcode_pre:
.LVL20:
.LFB11:
.LM48:
	.cfi_startproc
.LM49:
.LM50:
.LM51:
.LM52:
.LM53:
	addi	sp,sp,-32
	.cfi_def_cfa_offset 32
	sw	ra,28(sp)
	sw	s0,24(sp)
	sw	s1,20(sp)
	sw	s2,16(sp)
	sw	s3,12(sp)
	.cfi_offset 1, -4
	.cfi_offset 8, -8
	.cfi_offset 9, -12
	.cfi_offset 18, -16
	.cfi_offset 19, -20
	mv	s2,a1
	sw	s4,8(sp)
	.cfi_offset 20, -24
.LM54:
	mv	s1,a0
.LM55:
	call	GLB_Get_BCLK_Div
.LVL21:
.LM56:
	mv	s3,a0
.LVL22:
.LM57:
.LM58:
	call	GLB_Get_HCLK_Div
.LVL23:
	mv	s4,a0
.LVL24:
.LM59:
	li	a0,1
	call	HBN_Set_ROOT_CLK_Sel
.LVL25:
.LM60:
.LM61:
	lui	s0,%hi(rf_cal_slots)
.LM62:
	lbu	a5,%lo(rf_cal_slots)(s0)
	beq	a5,zero,.L22
.LM63:
	li	a1,1
	li	a0,0
	call	EF_Ctrl_Is_CapCode_Slot_Empty
.LVL26:
.LM64:
	bne	a0,zero,.L24
.LM65:
.LM66:
	lbu	a5,%lo(rf_cal_slots)(s0)
	li	a1,1
	bleu	a5,a1,.L22
.LM67:
	mv	a0,a1
	call	EF_Ctrl_Is_CapCode_Slot_Empty
.LVL27:
.LM68:
	li	a1,1
	bne	a0,zero,.L25
.LM69:
.LM70:
	lbu	a5,%lo(rf_cal_slots)(s0)
	li	s0,2
	bleu	a5,s0,.L22
.LM71:
	mv	a0,s0
	call	EF_Ctrl_Is_CapCode_Slot_Empty
.LVL28:
.LM72:
	beq	a0,zero,.L22
.L21:
.LVL29:
.LM73:
.LM74:
	mv	a1,s1
	mv	a2,s2
	mv	a0,s0
	call	EF_Ctrl_Write_CapCode_Opt
.LVL30:
	mv	s1,a0
.LVL31:
.LM75:
	lui	a0,%hi(.LC2)
	mv	a1,s0
	addi	a0,a0,%lo(.LC2)
	call	printf
.LVL32:
.L23:
.LM76:
	mv	a1,s3
	mv	a0,s4
	call	GLB_Set_System_CLK_Div
.LVL33:
.LM77:
	li	a0,2
	call	HBN_Set_ROOT_CLK_Sel
.LVL34:
.LM78:
.LM79:
	lw	ra,28(sp)
	.cfi_remember_state
	.cfi_restore 1
	lw	s0,24(sp)
	.cfi_restore 8
.LM80:
	snez	a0,s1
.LM81:
	lw	s2,16(sp)
	.cfi_restore 18
.LVL35:
.LM82:
	lw	s1,20(sp)
	.cfi_restore 9
.LVL36:
.LM83:
	lw	s3,12(sp)
	.cfi_restore 19
.LVL37:
.LM84:
	lw	s4,8(sp)
	.cfi_restore 20
.LVL38:
.LM85:
	neg	a0,a0
	addi	sp,sp,32
	.cfi_def_cfa_offset 0
	jr	ra
.LVL39:
.L24:
	.cfi_restore_state
.LM86:
	li	s0,0
	j	.L21
.L25:
.LM87:
	mv	s0,a1
	j	.L21
.L22:
.LM88:
.LM89:
	lui	a0,%hi(.LC1)
	addi	a0,a0,%lo(.LC1)
	call	printf
.LVL40:
.LM90:
.LM91:
	li	s1,0
	j	.L23
	.cfi_endproc
.LFE11:
	.size	mfg_efuse_write_xtal_capcode_pre, .-mfg_efuse_write_xtal_capcode_pre
	.section	.text.mfg_efuse_write_xtal_capcode,"ax",@progbits
	.align	1
	.globl	mfg_efuse_write_xtal_capcode
	.type	mfg_efuse_write_xtal_capcode, @function
mfg_efuse_write_xtal_capcode:
.LFB12:
.LM92:
	.cfi_startproc
.LM93:
.LVL41:
.LM94:
.LM95:
	addi	sp,sp,-16
	.cfi_def_cfa_offset 16
	sw	ra,12(sp)
	sw	s0,8(sp)
	sw	s1,4(sp)
	sw	s2,0(sp)
	.cfi_offset 1, -4
	.cfi_offset 8, -8
	.cfi_offset 9, -12
	.cfi_offset 18, -16
.LM96:
	call	GLB_Get_BCLK_Div
.LVL42:
	mv	s1,a0
.LVL43:
.LM97:
.LM98:
	call	GLB_Get_HCLK_Div
.LVL44:
	mv	s2,a0
.LVL45:
.LM99:
	li	a0,1
	call	HBN_Set_ROOT_CLK_Sel
.LVL46:
.LM100:
	li	a2,0
	li	a1,0
	li	a0,0
	call	EF_Ctrl_Program_Direct_R0
.LVL47:
.LM101:
.LM102:
	li	s0,1
.L35:
.LM103:
.LM104:
	call	EF_Ctrl_Busy
.LVL48:
.LM105:
	beq	a0,s0,.L35
.LM106:
	mv	a1,s1
	mv	a0,s2
	call	GLB_Set_System_CLK_Div
.LVL49:
.LM107:
.LM108:
	lw	s0,8(sp)
	.cfi_restore 8
	lw	ra,12(sp)
	.cfi_restore 1
	lw	s1,4(sp)
	.cfi_restore 9
.LVL50:
.LM109:
	lw	s2,0(sp)
	.cfi_restore 18
.LVL51:
.LM110:
	li	a0,2
.LM111:
	addi	sp,sp,16
	.cfi_def_cfa_offset 0
.LM112:
	tail	HBN_Set_ROOT_CLK_Sel
.LVL52:
	.cfi_endproc
.LFE12:
	.size	mfg_efuse_write_xtal_capcode, .-mfg_efuse_write_xtal_capcode
	.section	.rodata.mfg_efuse_read_xtal_capcode.str1.4,"aMS",@progbits,1
	.align	2
.LC3:
	.string	"Read slot:%d\r\n"
	.align	2
.LC4:
	.string	"No written slot found\r\n"
	.section	.text.mfg_efuse_read_xtal_capcode,"ax",@progbits
	.align	1
	.globl	mfg_efuse_read_xtal_capcode
	.type	mfg_efuse_read_xtal_capcode, @function
mfg_efuse_read_xtal_capcode:
.LVL53:
.LFB13:
.LM113:
	.cfi_startproc
.LM114:
.LM115:
.LM116:
.LM117:
.LM118:
	addi	sp,sp,-32
	.cfi_def_cfa_offset 32
	sw	ra,28(sp)
	sw	s0,24(sp)
	sw	s1,20(sp)
	sw	s2,16(sp)
	sw	s3,12(sp)
	.cfi_offset 1, -4
	.cfi_offset 8, -8
	.cfi_offset 9, -12
	.cfi_offset 18, -16
	.cfi_offset 19, -20
	mv	s2,a1
	sw	s4,8(sp)
	sw	s5,4(sp)
	.cfi_offset 20, -24
	.cfi_offset 21, -28
.LM119:
	mv	s3,a0
.LM120:
	call	GLB_Get_BCLK_Div
.LVL54:
.LM121:
	mv	s4,a0
.LVL55:
.LM122:
.LM123:
	call	GLB_Get_HCLK_Div
.LVL56:
	mv	s5,a0
.LVL57:
.LM124:
	li	a0,1
	call	HBN_Set_ROOT_CLK_Sel
.LVL58:
.LM125:
.LM126:
	lui	s1,%hi(rf_cal_slots)
.LM127:
	lbu	a5,%lo(rf_cal_slots)(s1)
	li	s0,2
	bgtu	a5,s0,.L39
.L43:
.LM128:
.LM129:
	lbu	a5,%lo(rf_cal_slots)(s1)
	li	s0,1
	bleu	a5,s0,.L41
.LM130:
	mv	a1,s2
	mv	a0,s0
	call	EF_Ctrl_Is_CapCode_Slot_Empty
.LVL59:
.LM131:
	beq	a0,zero,.L42
.L41:
.LM132:
.LM133:
	lbu	a5,%lo(rf_cal_slots)(s1)
	bne	a5,zero,.L44
.L45:
.LVL60:
.LM134:
	lui	a0,%hi(.LC4)
	addi	a0,a0,%lo(.LC4)
	call	printf
.LVL61:
.LM135:
	li	s0,1
	j	.L46
.LVL62:
.L39:
.LM136:
	mv	a1,s2
	mv	a0,s0
	call	EF_Ctrl_Is_CapCode_Slot_Empty
.LVL63:
.LM137:
	bne	a0,zero,.L43
.L42:
.LVL64:
.LM138:
	lui	a0,%hi(.LC3)
	mv	a1,s0
	addi	a0,a0,%lo(.LC3)
	call	printf
.LVL65:
.LM139:
.LM140:
	mv	a0,s0
	mv	a2,s2
	mv	a1,s3
	call	EF_Ctrl_Read_CapCode_Opt
.LVL66:
	mv	s0,a0
.LVL67:
.L46:
.LM141:
	mv	a1,s4
	mv	a0,s5
	call	GLB_Set_System_CLK_Div
.LVL68:
.LM142:
	li	a0,2
	call	HBN_Set_ROOT_CLK_Sel
.LVL69:
.LM143:
.LM144:
	lw	ra,28(sp)
	.cfi_remember_state
	.cfi_restore 1
.LM145:
	snez	a0,s0
.LM146:
	lw	s0,24(sp)
	.cfi_restore 8
.LVL70:
.LM147:
	lw	s1,20(sp)
	.cfi_restore 9
	lw	s2,16(sp)
	.cfi_restore 18
.LVL71:
.LM148:
	lw	s3,12(sp)
	.cfi_restore 19
.LVL72:
.LM149:
	lw	s4,8(sp)
	.cfi_restore 20
.LVL73:
.LM150:
	lw	s5,4(sp)
	.cfi_restore 21
.LVL74:
.LM151:
	neg	a0,a0
	addi	sp,sp,32
	.cfi_def_cfa_offset 0
	jr	ra
.LVL75:
.L44:
	.cfi_restore_state
.LM152:
	mv	a1,s2
	li	a0,0
	call	EF_Ctrl_Is_CapCode_Slot_Empty
.LVL76:
	mv	s0,a0
.LM153:
	bne	a0,zero,.L45
	j	.L42
	.cfi_endproc
.LFE13:
	.size	mfg_efuse_read_xtal_capcode, .-mfg_efuse_read_xtal_capcode
	.section	.text.mfg_efuse_is_poweroffset_slot_empty,"ax",@progbits
	.align	1
	.globl	mfg_efuse_is_poweroffset_slot_empty
	.type	mfg_efuse_is_poweroffset_slot_empty, @function
mfg_efuse_is_poweroffset_slot_empty:
.LVL77:
.LFB14:
.LM154:
	.cfi_startproc
.LM155:
.LM156:
.LM157:
.LM158:
	addi	sp,sp,-32
	.cfi_def_cfa_offset 32
	sw	ra,28(sp)
	sw	s0,24(sp)
	sw	s2,16(sp)
	sw	s3,12(sp)
	sw	s4,8(sp)
	sw	s1,20(sp)
	.cfi_offset 1, -4
	.cfi_offset 8, -8
	.cfi_offset 18, -16
	.cfi_offset 19, -20
	.cfi_offset 20, -24
	.cfi_offset 9, -12
.LM159:
	mv	s2,a0
.LM160:
	call	GLB_Get_BCLK_Div
.LVL78:
.LM161:
	mv	s3,a0
.LVL79:
.LM162:
.LM163:
	call	GLB_Get_HCLK_Div
.LVL80:
	mv	s4,a0
.LVL81:
.LM164:
	li	a0,1
	call	HBN_Set_ROOT_CLK_Sel
.LVL82:
.LM165:
.LM166:
	lui	s0,%hi(rf_cal_slots)
.LM167:
	lbu	a5,%lo(rf_cal_slots)(s0)
	beq	a5,zero,.L56
.LM168:
	mv	a1,s2
	li	a0,0
	call	EF_Ctrl_Is_PowerOffset_Slot_Empty
.LVL83:
.LM169:
	li	a1,0
.LM170:
	bne	a0,zero,.L65
.LM171:
.LM172:
	lbu	a5,%lo(rf_cal_slots)(s0)
	li	s1,1
	bleu	a5,s1,.L56
.LM173:
	mv	a1,s2
	mv	a0,s1
	call	EF_Ctrl_Is_PowerOffset_Slot_Empty
.LVL84:
.LM174:
	beq	a0,zero,.L54
.LM175:
	mv	a1,s1
.L65:
	lui	a0,%hi(.LC0)
	addi	a0,a0,%lo(.LC0)
	call	printf
.LVL85:
.LM176:
.LM177:
	li	s0,1
.LVL86:
.L55:
.LM178:
	mv	a1,s3
	mv	a0,s4
	call	GLB_Set_System_CLK_Div
.LVL87:
.LM179:
	li	a0,2
	call	HBN_Set_ROOT_CLK_Sel
.LVL88:
.LM180:
.LM181:
	lw	ra,28(sp)
	.cfi_remember_state
	.cfi_restore 1
	mv	a0,s0
	lw	s0,24(sp)
	.cfi_restore 8
.LVL89:
.LM182:
	lw	s1,20(sp)
	.cfi_restore 9
	lw	s2,16(sp)
	.cfi_restore 18
.LVL90:
.LM183:
	lw	s3,12(sp)
	.cfi_restore 19
.LVL91:
.LM184:
	lw	s4,8(sp)
	.cfi_restore 20
.LVL92:
.LM185:
	addi	sp,sp,32
	.cfi_def_cfa_offset 0
	jr	ra
.LVL93:
.L54:
	.cfi_restore_state
.LM186:
.LM187:
	lbu	a5,%lo(rf_cal_slots)(s0)
	li	s0,2
	bleu	a5,s0,.L56
.LM188:
	mv	a1,s2
	mv	a0,s0
	call	EF_Ctrl_Is_PowerOffset_Slot_Empty
.LVL94:
.LM189:
	mv	a1,s0
.LM190:
	bne	a0,zero,.L65
.L56:
.LM191:
.LM192:
	lui	a0,%hi(.LC1)
	addi	a0,a0,%lo(.LC1)
	call	printf
.LVL95:
.LM193:
	li	s0,0
	j	.L55
	.cfi_endproc
.LFE14:
	.size	mfg_efuse_is_poweroffset_slot_empty, .-mfg_efuse_is_poweroffset_slot_empty
	.section	.text.mfg_efuse_write_poweroffset_pre,"ax",@progbits
	.align	1
	.globl	mfg_efuse_write_poweroffset_pre
	.type	mfg_efuse_write_poweroffset_pre, @function
mfg_efuse_write_poweroffset_pre:
.LVL96:
.LFB15:
.LM194:
	.cfi_startproc
.LM195:
.LM196:
.LM197:
.LM198:
.LM199:
.LM200:
	addi	sp,sp,-48
	.cfi_def_cfa_offset 48
	sw	ra,44(sp)
	sw	s0,40(sp)
	sw	s1,36(sp)
	sw	s2,32(sp)
	sw	s3,28(sp)
	.cfi_offset 1, -4
	.cfi_offset 8, -8
	.cfi_offset 9, -12
	.cfi_offset 18, -16
	.cfi_offset 19, -20
	mv	s2,a1
	sw	s4,24(sp)
	.cfi_offset 20, -24
.LM201:
	mv	s1,a0
.LM202:
	call	GLB_Get_BCLK_Div
.LVL97:
.LM203:
	mv	s3,a0
.LVL98:
.LM204:
.LM205:
	call	GLB_Get_HCLK_Div
.LVL99:
	mv	s4,a0
.LVL100:
.LM206:
	li	a0,1
	call	HBN_Set_ROOT_CLK_Sel
.LVL101:
.LM207:
.LM208:
	lui	s0,%hi(rf_cal_slots)
.LM209:
	lbu	a5,%lo(rf_cal_slots)(s0)
	beq	a5,zero,.L69
.LM210:
	li	a1,1
	li	a0,0
	call	EF_Ctrl_Is_PowerOffset_Slot_Empty
.LVL102:
.LM211:
	bne	a0,zero,.L71
.LM212:
.LM213:
	lbu	a5,%lo(rf_cal_slots)(s0)
	li	a1,1
	bleu	a5,a1,.L69
.LM214:
	mv	a0,a1
	call	EF_Ctrl_Is_PowerOffset_Slot_Empty
.LVL103:
.LM215:
	li	a1,1
	bne	a0,zero,.L72
.LM216:
.LM217:
	lbu	a5,%lo(rf_cal_slots)(s0)
	li	s0,2
	bleu	a5,s0,.L69
.LM218:
	mv	a0,s0
	call	EF_Ctrl_Is_PowerOffset_Slot_Empty
.LVL104:
.LM219:
	beq	a0,zero,.L69
.L68:
.LVL105:
.LM220:
.LM221:
	lbu	a5,0(s1)
.LM222:
	addi	a1,sp,12
	mv	a2,s2
.LM223:
	sb	a5,12(sp)
.LM224:
.LM225:
	lbu	a5,6(s1)
.LM226:
	mv	a0,s0
.LM227:
	sb	a5,13(sp)
.LM228:
.LM229:
	lbu	a5,12(s1)
	sb	a5,14(sp)
.LM230:
.LM231:
	call	EF_Ctrl_Write_PowerOffset_Opt
.LVL106:
	mv	s1,a0
.LVL107:
.LM232:
	lui	a0,%hi(.LC2)
	mv	a1,s0
	addi	a0,a0,%lo(.LC2)
	call	printf
.LVL108:
.L70:
.LM233:
	mv	a1,s3
	mv	a0,s4
	call	GLB_Set_System_CLK_Div
.LVL109:
.LM234:
	li	a0,2
	call	HBN_Set_ROOT_CLK_Sel
.LVL110:
.LM235:
.LM236:
	lw	ra,44(sp)
	.cfi_remember_state
	.cfi_restore 1
	lw	s0,40(sp)
	.cfi_restore 8
.LM237:
	snez	a0,s1
.LM238:
	lw	s2,32(sp)
	.cfi_restore 18
.LVL111:
.LM239:
	lw	s1,36(sp)
	.cfi_restore 9
.LVL112:
.LM240:
	lw	s3,28(sp)
	.cfi_restore 19
.LVL113:
.LM241:
	lw	s4,24(sp)
	.cfi_restore 20
.LVL114:
.LM242:
	neg	a0,a0
	addi	sp,sp,48
	.cfi_def_cfa_offset 0
	jr	ra
.LVL115:
.L71:
	.cfi_restore_state
.LM243:
	li	s0,0
	j	.L68
.L72:
.LM244:
	mv	s0,a1
	j	.L68
.L69:
.LM245:
.LM246:
	lui	a0,%hi(.LC1)
	addi	a0,a0,%lo(.LC1)
	call	printf
.LVL116:
.LM247:
.LM248:
	li	s1,0
.LVL117:
.LM249:
	j	.L70
	.cfi_endproc
.LFE15:
	.size	mfg_efuse_write_poweroffset_pre, .-mfg_efuse_write_poweroffset_pre
	.section	.text.mfg_efuse_write_poweroffset,"ax",@progbits
	.align	1
	.globl	mfg_efuse_write_poweroffset
	.type	mfg_efuse_write_poweroffset, @function
mfg_efuse_write_poweroffset:
.LFB26:
	.cfi_startproc
.LM250:
	tail	mfg_efuse_write_xtal_capcode
	.cfi_endproc
.LFE26:
	.size	mfg_efuse_write_poweroffset, .-mfg_efuse_write_poweroffset
	.section	.text.mfg_efuse_read_poweroffset,"ax",@progbits
	.align	1
	.globl	mfg_efuse_read_poweroffset
	.type	mfg_efuse_read_poweroffset, @function
mfg_efuse_read_poweroffset:
.LVL118:
.LFB17:
.LM251:
	.cfi_startproc
.LM252:
.LM253:
.LM254:
.LM255:
.LM256:
.LM257:
.LM258:
	addi	sp,sp,-48
	.cfi_def_cfa_offset 48
	sw	ra,44(sp)
	sw	s0,40(sp)
	sw	s1,36(sp)
	sw	s2,32(sp)
	sw	s3,28(sp)
	sw	s4,24(sp)
	.cfi_offset 1, -4
	.cfi_offset 8, -8
	.cfi_offset 9, -12
	.cfi_offset 18, -16
	.cfi_offset 19, -20
	.cfi_offset 20, -24
	mv	s3,a1
	sw	s5,20(sp)
	.cfi_offset 21, -28
.LM259:
	mv	s1,a0
.LM260:
	call	GLB_Get_BCLK_Div
.LVL119:
.LM261:
	mv	s4,a0
.LVL120:
.LM262:
.LM263:
	call	GLB_Get_HCLK_Div
.LVL121:
	mv	s5,a0
.LVL122:
.LM264:
	li	a0,1
	call	HBN_Set_ROOT_CLK_Sel
.LVL123:
.LM265:
.LM266:
	lui	s2,%hi(rf_cal_slots)
.LM267:
	lbu	a5,%lo(rf_cal_slots)(s2)
	li	s0,2
	bgtu	a5,s0,.L83
.L87:
.LM268:
.LM269:
	lbu	a5,%lo(rf_cal_slots)(s2)
	li	s0,1
	bleu	a5,s0,.L85
.LM270:
	mv	a1,s3
	mv	a0,s0
	call	EF_Ctrl_Is_PowerOffset_Slot_Empty
.LVL124:
.LM271:
	beq	a0,zero,.L86
.L85:
.LM272:
.LM273:
	lbu	a5,%lo(rf_cal_slots)(s2)
	bne	a5,zero,.L88
.L89:
.LVL125:
.LM274:
	lui	a0,%hi(.LC4)
	addi	a0,a0,%lo(.LC4)
	call	printf
.LVL126:
.LM275:
	li	s0,1
	j	.L90
.LVL127:
.L83:
.LM276:
	mv	a1,s3
	mv	a0,s0
	call	EF_Ctrl_Is_PowerOffset_Slot_Empty
.LVL128:
.LM277:
	bne	a0,zero,.L87
.L86:
.LVL129:
.LM278:
	lui	a0,%hi(.LC3)
	mv	a1,s0
	addi	a0,a0,%lo(.LC3)
	call	printf
.LVL130:
.LM279:
.LM280:
	mv	a2,s3
	addi	a1,sp,12
	mv	a0,s0
	call	EF_Ctrl_Read_PowerOffset_Opt
.LVL131:
.LM281:
	li	a2,14
	li	a1,0
.LM282:
	mv	s0,a0
.LVL132:
.LM283:
	mv	a0,s1
	call	memset
.LVL133:
.LM284:
.LM285:
	lb	a4,13(sp)
.LM286:
	lb	a0,12(sp)
.LM287:
	li	a3,100
.LM288:
	li	t1,6
.LM289:
	sub	a5,a4,a0
.LM290:
	mul	a5,a5,a3
.LM291:
	li	a7,50
.LM292:
	li	a1,3
.LM293:
	lb	a6,14(sp)
.LM294:
	sb	a0,0(s1)
.LM295:
.LM296:
	sb	a4,6(s1)
.LM297:
	sb	a6,12(s1)
.LM298:
	div	a5,a5,t1
.LVL134:
.LM299:
.LM300:
	addi	a2,a5,50
.LM301:
	div	a2,a2,a3
.LM302:
	add	a2,a0,a2
.LM303:
	sb	a2,1(s1)
.LM304:
.LM305:
	addi	a2,a5,25
.LM306:
	div	a2,a2,a7
.LM307:
	add	a2,a0,a2
.LM308:
	sb	a2,2(s1)
.LM309:
.LM310:
	mul	a2,a5,a1
.LM311:
	add	a2,a2,a7
.LM312:
	div	a2,a2,a3
.LM313:
	add	a2,a0,a2
.LM314:
	sb	a2,3(s1)
.LM315:
.LM316:
	slli	a2,a5,2
.LM317:
	add	a2,a2,a7
.LM318:
	div	a2,a2,a3
.LM319:
	add	a2,a0,a2
.LM320:
	sb	a2,4(s1)
.LM321:
.LM322:
	li	a2,5
	mul	a5,a5,a2
.LVL135:
.LM323:
	add	a5,a5,a7
.LM324:
	div	a5,a5,a3
.LM325:
	add	a0,a0,a5
.LVL136:
.LM326:
	sub	a5,a6,a4
.LM327:
	mul	a5,a5,a3
.LM328:
	sb	a0,5(s1)
.LM329:
.LM330:
.LM331:
	div	a5,a5,t1
.LVL137:
.LM332:
.LM333:
	mul	a2,a5,a2
.LM334:
	add	a0,a5,a7
.LM335:
	mul	a1,a5,a1
.LM336:
	add	a2,a2,a7
.LM337:
	div	a2,a2,a3
.LM338:
	add	a1,a1,a7
.LM339:
	div	a0,a0,a3
.LM340:
	add	a2,a4,a2
.LM341:
	sb	a2,11(s1)
.LM342:
	li	a2,7
.LM343:
	div	a1,a1,a3
.LM344:
	add	a0,a4,a0
.LM345:
	sb	a0,7(s1)
.LM346:
.LM347:
	addi	a0,a5,25
.LM348:
	add	a1,a4,a1
.LM349:
	sb	a1,9(s1)
.LM350:
	slli	a1,a5,2
.LM351:
	mul	a5,a5,a2
.LVL138:
.LM352:
	add	a1,a1,a7
.LM353:
	add	a5,a5,a7
.LM354:
	div	a0,a0,a7
.LVL139:
.LM355:
	div	a1,a1,a3
.LM356:
	add	a0,a4,a0
.LM357:
	sb	a0,8(s1)
.LM358:
.LM359:
.LM360:
	div	a5,a5,a3
.LM361:
	add	a1,a4,a1
.LM362:
	sb	a1,10(s1)
.LM363:
.LM364:
.LM365:
.LM366:
	add	a4,a4,a5
.LVL140:
.LM367:
	sb	a4,13(s1)
.LVL141:
.L90:
.LM368:
	mv	a1,s4
	mv	a0,s5
	call	GLB_Set_System_CLK_Div
.LVL142:
.LM369:
	li	a0,2
	call	HBN_Set_ROOT_CLK_Sel
.LVL143:
.LM370:
.LM371:
	lw	ra,44(sp)
	.cfi_remember_state
	.cfi_restore 1
.LM372:
	snez	a0,s0
.LM373:
	lw	s0,40(sp)
	.cfi_restore 8
.LVL144:
.LM374:
	lw	s1,36(sp)
	.cfi_restore 9
.LVL145:
.LM375:
	lw	s2,32(sp)
	.cfi_restore 18
	lw	s3,28(sp)
	.cfi_restore 19
.LVL146:
.LM376:
	lw	s4,24(sp)
	.cfi_restore 20
.LVL147:
.LM377:
	lw	s5,20(sp)
	.cfi_restore 21
.LVL148:
.LM378:
	neg	a0,a0
	addi	sp,sp,48
	.cfi_def_cfa_offset 0
	jr	ra
.LVL149:
.L88:
	.cfi_restore_state
.LM379:
	mv	a1,s3
	li	a0,0
	call	EF_Ctrl_Is_PowerOffset_Slot_Empty
.LVL150:
	mv	s0,a0
.LM380:
	bne	a0,zero,.L89
	j	.L86
	.cfi_endproc
.LFE17:
	.size	mfg_efuse_read_poweroffset, .-mfg_efuse_read_poweroffset
	.section	.text.mfg_efuse_is_macaddr_slot_empty,"ax",@progbits
	.align	1
	.globl	mfg_efuse_is_macaddr_slot_empty
	.type	mfg_efuse_is_macaddr_slot_empty, @function
mfg_efuse_is_macaddr_slot_empty:
.LVL151:
.LFB18:
.LM381:
	.cfi_startproc
.LM382:
.LM383:
.LM384:
.LM385:
	addi	sp,sp,-32
	.cfi_def_cfa_offset 32
	sw	ra,28(sp)
	sw	s0,24(sp)
	sw	s2,16(sp)
	sw	s3,12(sp)
	sw	s4,8(sp)
	sw	s1,20(sp)
	.cfi_offset 1, -4
	.cfi_offset 8, -8
	.cfi_offset 18, -16
	.cfi_offset 19, -20
	.cfi_offset 20, -24
	.cfi_offset 9, -12
.LM386:
	mv	s2,a0
.LM387:
	call	GLB_Get_BCLK_Div
.LVL152:
.LM388:
	mv	s3,a0
.LVL153:
.LM389:
.LM390:
	call	GLB_Get_HCLK_Div
.LVL154:
	mv	s4,a0
.LVL155:
.LM391:
	li	a0,1
	call	HBN_Set_ROOT_CLK_Sel
.LVL156:
.LM392:
.LM393:
	lui	s0,%hi(rf_cal_slots)
.LM394:
	lbu	a5,%lo(rf_cal_slots)(s0)
	beq	a5,zero,.L100
.LM395:
	mv	a1,s2
	li	a0,0
	call	EF_Ctrl_Is_MAC_Address_Slot_Empty
.LVL157:
.LM396:
	li	a1,0
.LM397:
	bne	a0,zero,.L109
.LM398:
.LM399:
	lbu	a5,%lo(rf_cal_slots)(s0)
	li	s1,1
	bleu	a5,s1,.L100
.LM400:
	mv	a1,s2
	mv	a0,s1
	call	EF_Ctrl_Is_MAC_Address_Slot_Empty
.LVL158:
.LM401:
	beq	a0,zero,.L98
.LM402:
	mv	a1,s1
.L109:
	lui	a0,%hi(.LC0)
	addi	a0,a0,%lo(.LC0)
	call	printf
.LVL159:
.LM403:
.LM404:
	li	s0,1
.LVL160:
.L99:
.LM405:
	mv	a1,s3
	mv	a0,s4
	call	GLB_Set_System_CLK_Div
.LVL161:
.LM406:
	li	a0,2
	call	HBN_Set_ROOT_CLK_Sel
.LVL162:
.LM407:
.LM408:
	lw	ra,28(sp)
	.cfi_remember_state
	.cfi_restore 1
	mv	a0,s0
	lw	s0,24(sp)
	.cfi_restore 8
.LVL163:
.LM409:
	lw	s1,20(sp)
	.cfi_restore 9
	lw	s2,16(sp)
	.cfi_restore 18
.LVL164:
.LM410:
	lw	s3,12(sp)
	.cfi_restore 19
.LVL165:
.LM411:
	lw	s4,8(sp)
	.cfi_restore 20
.LVL166:
.LM412:
	addi	sp,sp,32
	.cfi_def_cfa_offset 0
	jr	ra
.LVL167:
.L98:
	.cfi_restore_state
.LM413:
.LM414:
	lbu	a5,%lo(rf_cal_slots)(s0)
	li	s0,2
	bleu	a5,s0,.L100
.LM415:
	mv	a1,s2
	mv	a0,s0
	call	EF_Ctrl_Is_MAC_Address_Slot_Empty
.LVL168:
.LM416:
	mv	a1,s0
.LM417:
	bne	a0,zero,.L109
.L100:
.LM418:
.LM419:
	lui	a0,%hi(.LC1)
	addi	a0,a0,%lo(.LC1)
	call	printf
.LVL169:
.LM420:
	li	s0,0
	j	.L99
	.cfi_endproc
.LFE18:
	.size	mfg_efuse_is_macaddr_slot_empty, .-mfg_efuse_is_macaddr_slot_empty
	.section	.text.mfg_efuse_write_macaddr_pre,"ax",@progbits
	.align	1
	.globl	mfg_efuse_write_macaddr_pre
	.type	mfg_efuse_write_macaddr_pre, @function
mfg_efuse_write_macaddr_pre:
.LVL170:
.LFB19:
.LM421:
	.cfi_startproc
.LM422:
.LM423:
.LM424:
.LM425:
.LM426:
	addi	sp,sp,-32
	.cfi_def_cfa_offset 32
	sw	ra,28(sp)
	sw	s0,24(sp)
	sw	s1,20(sp)
	sw	s2,16(sp)
	sw	s3,12(sp)
	.cfi_offset 1, -4
	.cfi_offset 8, -8
	.cfi_offset 9, -12
	.cfi_offset 18, -16
	.cfi_offset 19, -20
	mv	s2,a1
	sw	s4,8(sp)
	.cfi_offset 20, -24
.LM427:
	mv	s1,a0
.LM428:
	call	GLB_Get_BCLK_Div
.LVL171:
.LM429:
	mv	s3,a0
.LVL172:
.LM430:
.LM431:
	call	GLB_Get_HCLK_Div
.LVL173:
	mv	s4,a0
.LVL174:
.LM432:
	li	a0,1
	call	HBN_Set_ROOT_CLK_Sel
.LVL175:
.LM433:
.LM434:
	lui	s0,%hi(rf_cal_slots)
.LM435:
	lbu	a5,%lo(rf_cal_slots)(s0)
	beq	a5,zero,.L113
.LM436:
	li	a1,1
	li	a0,0
	call	EF_Ctrl_Is_MAC_Address_Slot_Empty
.LVL176:
.LM437:
	bne	a0,zero,.L115
.LM438:
.LM439:
	lbu	a5,%lo(rf_cal_slots)(s0)
	li	a1,1
	bleu	a5,a1,.L113
.LM440:
	mv	a0,a1
	call	EF_Ctrl_Is_MAC_Address_Slot_Empty
.LVL177:
.LM441:
	li	a1,1
	bne	a0,zero,.L116
.LM442:
.LM443:
	lbu	a5,%lo(rf_cal_slots)(s0)
	li	s0,2
	bleu	a5,s0,.L113
.LM444:
	mv	a0,s0
	call	EF_Ctrl_Is_MAC_Address_Slot_Empty
.LVL178:
.LM445:
	beq	a0,zero,.L113
.L112:
.LVL179:
.LM446:
.LM447:
	mv	a1,s1
	mv	a2,s2
	mv	a0,s0
	call	EF_Ctrl_Write_MAC_Address_Opt
.LVL180:
	mv	s1,a0
.LVL181:
.LM448:
	lui	a0,%hi(.LC2)
	mv	a1,s0
	addi	a0,a0,%lo(.LC2)
	call	printf
.LVL182:
.L114:
.LM449:
	mv	a1,s3
	mv	a0,s4
	call	GLB_Set_System_CLK_Div
.LVL183:
.LM450:
	li	a0,2
	call	HBN_Set_ROOT_CLK_Sel
.LVL184:
.LM451:
.LM452:
	lw	ra,28(sp)
	.cfi_remember_state
	.cfi_restore 1
	lw	s0,24(sp)
	.cfi_restore 8
.LM453:
	snez	a0,s1
.LM454:
	lw	s2,16(sp)
	.cfi_restore 18
.LVL185:
.LM455:
	lw	s1,20(sp)
	.cfi_restore 9
.LVL186:
.LM456:
	lw	s3,12(sp)
	.cfi_restore 19
.LVL187:
.LM457:
	lw	s4,8(sp)
	.cfi_restore 20
.LVL188:
.LM458:
	neg	a0,a0
	addi	sp,sp,32
	.cfi_def_cfa_offset 0
	jr	ra
.LVL189:
.L115:
	.cfi_restore_state
.LM459:
	li	s0,0
	j	.L112
.L116:
.LM460:
	mv	s0,a1
	j	.L112
.L113:
.LM461:
.LM462:
	lui	a0,%hi(.LC1)
	addi	a0,a0,%lo(.LC1)
	call	printf
.LVL190:
.LM463:
.LM464:
	li	s1,0
.LVL191:
.LM465:
	j	.L114
	.cfi_endproc
.LFE19:
	.size	mfg_efuse_write_macaddr_pre, .-mfg_efuse_write_macaddr_pre
	.section	.text.mfg_efuse_write_macaddr,"ax",@progbits
	.align	1
	.globl	mfg_efuse_write_macaddr
	.type	mfg_efuse_write_macaddr, @function
mfg_efuse_write_macaddr:
.LFB28:
	.cfi_startproc
.LM466:
	tail	mfg_efuse_write_xtal_capcode
	.cfi_endproc
.LFE28:
	.size	mfg_efuse_write_macaddr, .-mfg_efuse_write_macaddr
	.section	.text.mfg_efuse_read_macaddr,"ax",@progbits
	.align	1
	.globl	mfg_efuse_read_macaddr
	.type	mfg_efuse_read_macaddr, @function
mfg_efuse_read_macaddr:
.LVL192:
.LFB21:
.LM467:
	.cfi_startproc
.LM468:
.LM469:
.LM470:
.LM471:
.LM472:
	addi	sp,sp,-32
	.cfi_def_cfa_offset 32
	sw	ra,28(sp)
	sw	s0,24(sp)
	sw	s1,20(sp)
	sw	s2,16(sp)
	sw	s3,12(sp)
	.cfi_offset 1, -4
	.cfi_offset 8, -8
	.cfi_offset 9, -12
	.cfi_offset 18, -16
	.cfi_offset 19, -20
	mv	s2,a1
	sw	s4,8(sp)
	sw	s5,4(sp)
	.cfi_offset 20, -24
	.cfi_offset 21, -28
.LM473:
	mv	s3,a0
.LM474:
	call	GLB_Get_BCLK_Div
.LVL193:
.LM475:
	mv	s4,a0
.LVL194:
.LM476:
.LM477:
	call	GLB_Get_HCLK_Div
.LVL195:
	mv	s5,a0
.LVL196:
.LM478:
	li	a0,1
	call	HBN_Set_ROOT_CLK_Sel
.LVL197:
.LM479:
.LM480:
	lui	s1,%hi(rf_cal_slots)
.LM481:
	lbu	a5,%lo(rf_cal_slots)(s1)
	li	s0,2
	bgtu	a5,s0,.L127
.L131:
.LM482:
.LM483:
	lbu	a5,%lo(rf_cal_slots)(s1)
	li	s0,1
	bleu	a5,s0,.L129
.LM484:
	mv	a1,s2
	mv	a0,s0
	call	EF_Ctrl_Is_MAC_Address_Slot_Empty
.LVL198:
.LM485:
	beq	a0,zero,.L130
.L129:
.LM486:
.LM487:
	lbu	a5,%lo(rf_cal_slots)(s1)
	bne	a5,zero,.L132
.L133:
.LVL199:
.LM488:
	lui	a0,%hi(.LC4)
	addi	a0,a0,%lo(.LC4)
	call	printf
.LVL200:
.LM489:
	li	s0,1
	j	.L134
.LVL201:
.L127:
.LM490:
	mv	a1,s2
	mv	a0,s0
	call	EF_Ctrl_Is_MAC_Address_Slot_Empty
.LVL202:
.LM491:
	bne	a0,zero,.L131
.L130:
.LVL203:
.LM492:
	lui	a0,%hi(.LC3)
	mv	a1,s0
	addi	a0,a0,%lo(.LC3)
	call	printf
.LVL204:
.LM493:
.LM494:
	mv	a0,s0
	mv	a2,s2
	mv	a1,s3
	call	EF_Ctrl_Read_MAC_Address_Opt
.LVL205:
	mv	s0,a0
.LVL206:
.L134:
.LM495:
	mv	a1,s4
	mv	a0,s5
	call	GLB_Set_System_CLK_Div
.LVL207:
.LM496:
	li	a0,2
	call	HBN_Set_ROOT_CLK_Sel
.LVL208:
.LM497:
.LM498:
	lw	ra,28(sp)
	.cfi_remember_state
	.cfi_restore 1
.LM499:
	snez	a0,s0
.LM500:
	lw	s0,24(sp)
	.cfi_restore 8
.LVL209:
.LM501:
	lw	s1,20(sp)
	.cfi_restore 9
	lw	s2,16(sp)
	.cfi_restore 18
.LVL210:
.LM502:
	lw	s3,12(sp)
	.cfi_restore 19
.LVL211:
.LM503:
	lw	s4,8(sp)
	.cfi_restore 20
.LVL212:
.LM504:
	lw	s5,4(sp)
	.cfi_restore 21
.LVL213:
.LM505:
	neg	a0,a0
	addi	sp,sp,32
	.cfi_def_cfa_offset 0
	jr	ra
.LVL214:
.L132:
	.cfi_restore_state
.LM506:
	mv	a1,s2
	li	a0,0
	call	EF_Ctrl_Is_MAC_Address_Slot_Empty
.LVL215:
	mv	s0,a0
.LM507:
	bne	a0,zero,.L133
	j	.L130
	.cfi_endproc
.LFE21:
	.size	mfg_efuse_read_macaddr, .-mfg_efuse_read_macaddr
	.section	.text.mfg_efuse_write_pre,"ax",@progbits
	.align	1
	.globl	mfg_efuse_write_pre
	.type	mfg_efuse_write_pre, @function
mfg_efuse_write_pre:
.LVL216:
.LFB22:
.LM508:
	.cfi_startproc
.LM509:
.LM510:
.LM511:
.LM512:
	li	a5,128
	bgtu	a0,a5,.L140
.LM513:
	addi	sp,sp,-32
	.cfi_def_cfa_offset 32
	sw	ra,28(sp)
	sw	s0,24(sp)
	sw	s1,20(sp)
	sw	s2,16(sp)
	.cfi_offset 1, -4
	.cfi_offset 8, -8
	.cfi_offset 9, -12
	.cfi_offset 18, -16
	sw	a2,12(sp)
	sw	a1,8(sp)
	mv	s0,a0
.LM514:
.LM515:
	call	GLB_Get_BCLK_Div
.LVL217:
.LM516:
	mv	s1,a0
.LVL218:
.LM517:
.LM518:
	call	GLB_Get_HCLK_Div
.LVL219:
	mv	s2,a0
.LVL220:
.LM519:
	li	a0,1
	call	HBN_Set_ROOT_CLK_Sel
.LVL221:
.LM520:
	lw	a2,12(sp)
	lw	a1,8(sp)
	srli	a0,s0,2
	call	EF_Ctrl_Write_R0
.LVL222:
.LM521:
	mv	a1,s1
	mv	a0,s2
	call	GLB_Set_System_CLK_Div
.LVL223:
.LM522:
	li	a0,2
	call	HBN_Set_ROOT_CLK_Sel
.LVL224:
.LM523:
.LM524:
.LM525:
	lw	ra,28(sp)
	.cfi_restore 1
	lw	s0,24(sp)
	.cfi_restore 8
.LVL225:
.LM526:
	lw	s1,20(sp)
	.cfi_restore 9
.LVL226:
.LM527:
	lw	s2,16(sp)
	.cfi_restore 18
.LVL227:
.LM528:
	li	a0,0
.LM529:
	addi	sp,sp,32
	.cfi_def_cfa_offset 0
.LVL228:
.LM530:
	jr	ra
.LVL229:
.L140:
.LM531:
	li	a0,-1
.LVL230:
.LM532:
	ret
	.cfi_endproc
.LFE22:
	.size	mfg_efuse_write_pre, .-mfg_efuse_write_pre
	.section	.text.mfg_efuse_read,"ax",@progbits
	.align	1
	.globl	mfg_efuse_read
	.type	mfg_efuse_read, @function
mfg_efuse_read:
.LVL231:
.LFB23:
.LM533:
	.cfi_startproc
.LM534:
.LM535:
.LM536:
.LM537:
	li	a5,128
	bgtu	a0,a5,.L149
.LM538:
	addi	sp,sp,-32
	.cfi_def_cfa_offset 32
	sw	a3,12(sp)
	sw	a2,8(sp)
	sw	a1,4(sp)
	sw	ra,28(sp)
	sw	s0,24(sp)
	sw	s1,20(sp)
	sw	s2,16(sp)
	.cfi_offset 1, -4
	.cfi_offset 8, -8
	.cfi_offset 9, -12
	.cfi_offset 18, -16
	mv	s0,a0
.LM539:
.LM540:
	call	GLB_Get_BCLK_Div
.LVL232:
.LM541:
	mv	s1,a0
.LVL233:
.LM542:
.LM543:
	call	GLB_Get_HCLK_Div
.LVL234:
	mv	s2,a0
.LVL235:
.LM544:
	li	a0,1
	call	HBN_Set_ROOT_CLK_Sel
.LVL236:
.LM545:
.LM546:
	lw	a3,12(sp)
	lw	a1,4(sp)
	lw	a2,8(sp)
.LM547:
	srli	a0,s0,2
.LM548:
	beq	a3,zero,.L147
.LM549:
	call	EF_Ctrl_Read_Direct_R0
.LVL237:
.L148:
.LM550:
	mv	a1,s1
	mv	a0,s2
	call	GLB_Set_System_CLK_Div
.LVL238:
.LM551:
	li	a0,2
	call	HBN_Set_ROOT_CLK_Sel
.LVL239:
.LM552:
.LM553:
.LM554:
	lw	ra,28(sp)
	.cfi_remember_state
	.cfi_restore 1
	lw	s0,24(sp)
	.cfi_restore 8
.LVL240:
.LM555:
	lw	s1,20(sp)
	.cfi_restore 9
.LVL241:
.LM556:
	lw	s2,16(sp)
	.cfi_restore 18
.LVL242:
.LM557:
	li	a0,0
.LM558:
	addi	sp,sp,32
	.cfi_def_cfa_offset 0
.LVL243:
.LM559:
	jr	ra
.LVL244:
.L147:
	.cfi_restore_state
.LM560:
	call	EF_Ctrl_Read_R0
.LVL245:
	j	.L148
.LVL246:
.L149:
	.cfi_def_cfa_offset 0
	.cfi_restore 1
	.cfi_restore 8
	.cfi_restore 9
	.cfi_restore 18
.LM561:
	li	a0,-1
.LVL247:
.LM562:
	ret
	.cfi_endproc
.LFE23:
	.size	mfg_efuse_read, .-mfg_efuse_read
	.section	.text.mfg_efuse_program,"ax",@progbits
	.align	1
	.globl	mfg_efuse_program
	.type	mfg_efuse_program, @function
mfg_efuse_program:
.LFB24:
.LM563:
	.cfi_startproc
.LM564:
.LVL248:
.LM565:
.LM566:
.LM567:
	addi	sp,sp,-16
	.cfi_def_cfa_offset 16
	sw	ra,12(sp)
	sw	s0,8(sp)
	sw	s1,4(sp)
	sw	s2,0(sp)
	.cfi_offset 1, -4
	.cfi_offset 8, -8
	.cfi_offset 9, -12
	.cfi_offset 18, -16
.LM568:
	call	GLB_Get_BCLK_Div
.LVL249:
	mv	s1,a0
.LVL250:
.LM569:
.LM570:
	call	GLB_Get_HCLK_Div
.LVL251:
	mv	s2,a0
.LVL252:
.LM571:
	li	a0,1
	call	HBN_Set_ROOT_CLK_Sel
.LVL253:
.LM572:
	li	a2,0
	li	a1,0
	li	a0,0
	call	EF_Ctrl_Program_Direct_R0
.LVL254:
.LM573:
.LM574:
	li	s0,1
.L155:
.LM575:
.LM576:
	call	EF_Ctrl_Busy
.LVL255:
.LM577:
	beq	a0,s0,.L155
.LM578:
	mv	a1,s1
	mv	a0,s2
	call	GLB_Set_System_CLK_Div
.LVL256:
.LM579:
	li	a0,2
	call	HBN_Set_ROOT_CLK_Sel
.LVL257:
.LM580:
.LM581:
.LM582:
	lw	ra,12(sp)
	.cfi_restore 1
	lw	s0,8(sp)
	.cfi_restore 8
	lw	s1,4(sp)
	.cfi_restore 9
.LVL258:
.LM583:
	lw	s2,0(sp)
	.cfi_restore 18
.LVL259:
.LM584:
	li	a0,0
	addi	sp,sp,16
	.cfi_def_cfa_offset 0
	jr	ra
	.cfi_endproc
.LFE24:
	.size	mfg_efuse_program, .-mfg_efuse_program
	.section	.sdata.rf_cal_slots,"aw"
	.type	rf_cal_slots, @object
	.size	rf_cal_slots, 1
rf_cal_slots:
	.byte	3
	.text
.Letext0:
	.section	.note.GNU-stack,"",@progbits
