	.file	"bl602_sflash_ext.c"
	.option nopic
	.attribute arch, "rv32i2p1_m2p0_f2p2_c2p0_zicsr2p0_zmmul1p0_zca1p0_zcf1p0"
	.attribute unaligned_access, 0
	.attribute stack_align, 16
	.text
.Ltext0:
	.cfi_sections	.debug_frame
	.section	.tcm_code,"ax",@progbits
	.align	1
	.globl	SFlash_Restore_From_Powerdown
	.type	SFlash_Restore_From_Powerdown, @function
SFlash_Restore_From_Powerdown:
.LVL0:
.LFB8:
.LM1:
	.cfi_startproc
.LM2:
.LM3:
.LM4:
	addi	sp,sp,-32
	.cfi_def_cfa_offset 32
	sw	ra,28(sp)
	sw	s0,24(sp)
	sw	s2,16(sp)
	sw	s1,20(sp)
	.cfi_offset 1, -4
	.cfi_offset 8, -8
	.cfi_offset 18, -16
	.cfi_offset 9, -12
.LM5:
	lbu	s1,0(a0)
.LM6:
	mv	s0,a0
	mv	s2,a1
.LM7:
	sw	zero,4(sp)
.LM8:
.LM9:
.LM10:
	call	SFlash_Releae_Powerdown
.LVL1:
.LM11:
	li	a0,120
	call	BL602_Delay_US
.LVL2:
.LM12:
	addi	a1,sp,4
	mv	a0,s0
.LM13:
	andi	s1,s1,15
.LVL3:
.LM14:
.LM15:
.LM16:
	call	SFlash_GetJedecId
.LVL4:
.LM17:
.LM18:
	addi	a5,s1,-2
.LM19:
	andi	a5,a5,253
	bne	a5,zero,.L2
.LM20:
	mv	a0,s0
	call	SFlash_Qspi_Enable
.LVL5:
.L2:
.LM21:
.LM22:
	lbu	a5,0(s0)
	andi	a5,a5,16
	beq	a5,zero,.L3
.LM23:
	li	a0,0
	call	L1C_Set_Wrap
.LVL6:
.L4:
.LM24:
.LM25:
	beq	s2,zero,.L5
.LM26:
.LM27:
	li	a5,8
	add	a4,sp,a5
	li	a3,0
	li	a2,1
	mv	a1,s1
	mv	a0,s0
	call	SFlash_Read
.LVL7:
.LM28:
.LM29:
	li	a4,32
	li	a3,0
	li	a2,1
.L8:
.LM30:
	mv	a1,s1
	mv	a0,s0
	call	SFlash_Set_IDbus_Cfg
.LVL8:
.LM31:
.LM32:
	lw	ra,28(sp)
	.cfi_remember_state
	.cfi_restore 1
	lw	s0,24(sp)
	.cfi_restore 8
.LVL9:
.LM33:
	lw	s1,20(sp)
	.cfi_restore 9
.LVL10:
.LM34:
	lw	s2,16(sp)
	.cfi_restore 18
.LVL11:
.LM35:
	addi	sp,sp,32
	.cfi_def_cfa_offset 0
	jr	ra
.LVL12:
.L3:
	.cfi_restore_state
.LM36:
	li	a0,1
	call	L1C_Set_Wrap
.LVL13:
.LM37:
	mv	a0,s0
	call	SFlash_Write_Enable
.LVL14:
.LM38:
	mv	a0,s0
	call	SFlash_SetBurstWrap
.LVL15:
	j	.L4
.L5:
.LM39:
.LM40:
	li	a4,32
	li	a3,0
	li	a2,0
	j	.L8
	.cfi_endproc
.LFE8:
	.size	SFlash_Restore_From_Powerdown, .-SFlash_Restore_From_Powerdown
	.text
.Letext0:
	.section	.note.GNU-stack,"",@progbits
