	.file	"bl602_sf_cfg_ext.c"
	.option nopic
	.attribute arch, "rv32i2p1_m2p0_f2p2_c2p0_zicsr2p0_zmmul1p0_zca1p0_zcf1p0"
	.attribute unaligned_access, 0
	.attribute stack_align, 16
	.text
.Ltext0:
	.cfi_sections	.debug_frame
	.section	.rodata.str1.4,"aMS",@progbits,1
	.align	2
.LC0:
	.string	"FCFG"
	.section	.tcm_code,"ax",@progbits
	.align	1
	.globl	SF_Cfg_Get_Flash_Cfg_Need_Lock_Ext
	.type	SF_Cfg_Get_Flash_Cfg_Need_Lock_Ext, @function
SF_Cfg_Get_Flash_Cfg_Need_Lock_Ext:
.LVL0:
.LFB8:
.LM1:
	.cfi_startproc
.LM2:
.LM3:
.LM4:
.LM5:
.LM6:
	addi	sp,sp,-112
	.cfi_def_cfa_offset 112
	sw	s1,100(sp)
	sw	ra,108(sp)
	sw	s0,104(sp)
	.cfi_offset 9, -12
	.cfi_offset 1, -4
	.cfi_offset 8, -8
.LM7:
	mv	s1,a1
.LM8:
	bne	a0,zero,.L2
.LM9:
	li	a0,587202560
.LVL1:
.LM10:
	li	a2,92
	addi	a1,sp,4
.LVL2:
.LM11:
	addi	a0,a0,8
	call	XIP_SFlash_Read_Via_Cache_Need_Lock
.LVL3:
.LM12:
.LM13:
	li	a2,4
	lui	a1,%hi(.LC0)
	addi	a1,a1,%lo(.LC0)
	add	a0,sp,a2
	call	BL602_MemCmp
.LVL4:
.LM14:
	beq	a0,zero,.L3
.L5:
.LM15:
	li	a0,1
.L4:
.LM16:
	lw	ra,108(sp)
	.cfi_remember_state
	.cfi_restore 1
	lw	s0,104(sp)
	.cfi_restore 8
	lw	s1,100(sp)
	.cfi_restore 9
.LVL5:
.LM17:
	addi	sp,sp,112
	.cfi_def_cfa_offset 0
	jr	ra
.LVL6:
.L3:
	.cfi_restore_state
.LM18:
.LM19:
	li	a1,84
	addi	a0,sp,8
	call	BFLB_Soft_CRC32
.LVL7:
.LM20:
.LM21:
.LM22:
	lw	a5,92(sp)
	bne	a5,a0,.L5
.LM23:
	li	a2,84
	addi	a1,sp,8
.LVL8:
.L11:
.LM24:
	mv	a0,s1
	call	BL602_MemCpy_Fast
.LVL9:
.LM25:
.LM26:
	j	.L6
.LVL10:
.L2:
.LM27:
	mv	s0,a0
.LM28:
.LM29:
	call	SF_Cfg_Get_Flash_Cfg_Need_Lock
.LVL11:
.LM30:
	beq	a0,zero,.L9
.LVL12:
.L6:
.LM31:
	li	a0,0
	j	.L4
.LVL13:
.L9:
.LM32:
.LM33:
.LM34:
	li	a5,1327104
	addi	a5,a5,161
	bne	s0,a5,.L5
.LM35:
	lui	a1,%hi(flashCfg_FM_25Q08)
	li	a2,84
	addi	a1,a1,%lo(flashCfg_FM_25Q08)
	j	.L11
	.cfi_endproc
.LFE8:
	.size	SF_Cfg_Get_Flash_Cfg_Need_Lock_Ext, .-SF_Cfg_Get_Flash_Cfg_Need_Lock_Ext
	.align	1
	.globl	SF_Cfg_Flash_Identify_Ext
	.type	SF_Cfg_Flash_Identify_Ext, @function
SF_Cfg_Flash_Identify_Ext:
.LVL14:
.LFB9:
.LM36:
	.cfi_startproc
.LM37:
.LM38:
.LM39:
.LM40:
.LM41:
	addi	sp,sp,-16
	.cfi_def_cfa_offset 16
	sw	s0,8(sp)
	sw	ra,12(sp)
	.cfi_offset 8, -8
	.cfi_offset 1, -4
.LM42:
	mv	s0,a4
.LM43:
	call	SF_Cfg_Flash_Identify
.LVL15:
.LM44:
.LM45:
	blt	a0,zero,.L12
.LM46:
.LM47:
	slli	a0,a0,8
.LVL16:
.LM48:
	li	a5,1327104
.LM49:
	srli	a0,a0,8
.LVL17:
.LM50:
.LM51:
.LM52:
.LM53:
	addi	a5,a5,161
	bne	a0,a5,.L12
.LM54:
	lui	a1,%hi(flashCfg_FM_25Q08)
	li	a2,84
	addi	a1,a1,%lo(flashCfg_FM_25Q08)
	mv	a0,s0
.LVL18:
.LM55:
	call	BL602_MemCpy_Fast
.LVL19:
.LM56:
.LM57:
.LM58:
.LM59:
	li	a0,-2146156544
	addi	a0,a0,161
.LVL20:
.L12:
.LM60:
	lw	ra,12(sp)
	.cfi_restore 1
	lw	s0,8(sp)
	.cfi_restore 8
.LVL21:
.LM61:
	addi	sp,sp,16
	.cfi_def_cfa_offset 0
	jr	ra
	.cfi_endproc
.LFE9:
	.size	SF_Cfg_Flash_Identify_Ext, .-SF_Cfg_Flash_Identify_Ext
	.section	.tcm_const,"a"
	.align	2
	.type	flashCfg_FM_25Q08, @object
	.size	flashCfg_FM_25Q08, 84
flashCfg_FM_25Q08:
	.byte	4
	.byte	1
	.byte	1
	.byte	63
	.byte	102
	.byte	-103
	.byte	-1
	.byte	3
	.byte	-97
	.byte	0
	.byte	-97
	.byte	0
	.byte	4
	.byte	-56
	.half	256
	.byte	-57
	.byte	32
	.byte	82
	.byte	-40
	.byte	6
	.byte	2
	.byte	50
	.byte	0
	.byte	11
	.byte	1
	.byte	11
	.byte	1
	.byte	59
	.byte	1
	.byte	-69
	.byte	0
	.byte	107
	.byte	1
	.byte	-21
	.byte	2
	.byte	-21
	.byte	2
	.byte	2
	.byte	80
	.byte	0
	.byte	1
	.byte	0
	.byte	1
	.byte	1
	.byte	0
	.byte	0
	.byte	1
	.byte	2
	.byte	1
	.byte	-85
	.byte	1
	.base64	"BTUA"
	.zero	1
	.base64	"AQEA"
	.zero	1
	.byte	56
	.byte	-1
	.byte	32
	.byte	-1
	.byte	119
	.byte	3
	.byte	2
	.byte	64
	.byte	119
	.byte	3
	.byte	2
	.byte	-16
	.half	300
	.half	1200
	.half	1200
	.half	5
	.half	20000
	.byte	20
	.byte	0
	.text
.Letext0:
	.section	.note.GNU-stack,"",@progbits
