	.file	"bl602_uart.c"
	.option nopic
	.attribute arch, "rv32i2p1_m2p0_f2p2_c2p0_zicsr2p0_zmmul1p0_zca1p0_zcf1p0"
	.attribute unaligned_access, 0
	.attribute stack_align, 16
	.text
.Ltext0:
	.cfi_sections	.debug_frame
	.section	.text.UART_Init,"ax",@progbits
	.align	1
	.globl	UART_Init
	.type	UART_Init, @function
UART_Init:
.LVL0:
.LFB8:
.LM1:
	.cfi_startproc
.LM2:
.LM3:
.LM4:
.LM5:
.LM6:
.LM7:
	lui	a5,%hi(uartAddr)
	slli	a0,a0,2
.LVL1:
.LM8:
	addi	a5,a5,%lo(uartAddr)
	add	a5,a5,a0
	lw	a2,0(a5)
.LVL2:
.LM9:
.LM10:
.LM11:
.LM12:
.LM13:
.LM14:
.LM15:
	lw	a0,4(a1)
.LM16:
	lw	a5,0(a1)
.LVL3:
.LM17:
.LM18:
	li	a3,10
.LM19:
	divu	a4,a5,a0
.LVL4:
.LM20:
.LM21:
	mul	a5,a5,a3
.LVL5:
.LM22:
	divu	a5,a5,a0
.LM23:
	li	a0,1
.LVL6:
.LM24:
	remu	a5,a5,a3
.LVL7:
.LM25:
	li	a3,4
.LM26:
	sgtu	a5,a5,a3
.LVL8:
.LM27:
	add	a4,a4,a5
.LVL9:
.LM28:
.LM29:
	addi	a4,a4,-1
.LVL10:
.LM30:
	slli	a5,a4,16
.LM31:
	slli	a4,a4,16
.LVL11:
.LM32:
	srli	a4,a4,16
.LM33:
	or	a5,a5,a4
.LM34:
	sw	a5,8(a2)
.LVL12:
.LM35:
.LM36:
	lbu	a3,10(a1)
.LM37:
	lw	a4,0(a2)
.LVL13:
.LM38:
.LM39:
	lw	a5,4(a2)
.LVL14:
.LM40:
	beq	a3,a0,.L3
	li	a0,2
	beq	a3,a0,.L4
	bne	a3,zero,.L5
.LM41:
.LM42:
	andi	a4,a4,-17
.LVL15:
.LM43:
.LM44:
	andi	a5,a5,-17
.LVL16:
.LM45:
.L5:
.LM46:
.LM47:
	lbu	a3,8(a1)
.LM48:
	andi	a4,a4,-1793
.LVL17:
.LM49:
	andi	a5,a5,-1793
.LVL18:
.LM50:
	addi	a3,a3,4
.LM51:
	slli	a3,a3,8
.LVL19:
.LM52:
.LM53:
	or	a4,a4,a3
.LVL20:
.LM54:
	or	a5,a3,a5
.LVL21:
.LM55:
.LM56:
	li	a3,-12288
	addi	a3,a3,-1
	and	a4,a4,a3
.LVL22:
.LM57:
	lbu	a3,9(a1)
.LM58:
	lbu	a6,11(a1)
	li	a0,1
.LM59:
	addi	a3,a3,1
.LM60:
	slli	a3,a3,12
.LM61:
	or	a4,a3,a4
.LVL23:
.LM62:
.LM63:
	andi	a3,a4,-3
.LM64:
	bne	a6,a0,.L7
.LM65:
.LM66:
	ori	a3,a4,2
.L7:
.LVL24:
.LM67:
.LM68:
	lbu	a4,12(a1)
	bne	a4,a0,.L8
.LM69:
.LM70:
	li	a4,4096
	addi	a4,a4,-2048
	or	a5,a5,a4
.LVL25:
.L9:
.LM71:
.LM72:
	lbu	a6,13(a1)
	li	a0,1
.LM73:
	andi	a4,a5,-3
.LM74:
	bne	a6,a0,.L11
.LM75:
.LM76:
	ori	a4,a5,2
.L11:
.LVL26:
.LM77:
.LM78:
	sw	a3,0(a2)
.LM79:
.LM80:
	sw	a4,4(a2)
.LM81:
.LM82:
	lw	a4,12(a2)
.LVL27:
.LM83:
.LM84:
	lbu	a1,14(a1)
.LVL28:
.LM85:
	li	a3,1
.LM86:
	andi	a5,a4,-2
.LM87:
	bne	a1,a3,.L13
.LM88:
.LM89:
	or	a5,a4,a1
.L13:
.LVL29:
.LM90:
.LM91:
	sw	a5,12(a2)
.LVL30:
.LM92:
.LM93:
	li	a0,0
	ret
.LVL31:
.L3:
.LM94:
.LM95:
.LM96:
	ori	a4,a4,48
.LVL32:
.LM97:
.LM98:
.LM99:
	ori	a5,a5,48
.LVL33:
.LM100:
	j	.L5
.L4:
.LM101:
.LVL34:
.LM102:
	andi	a4,a4,-33
.LVL35:
.LM103:
	andi	a5,a5,-33
.LVL36:
.LM104:
	ori	a4,a4,16
.LVL37:
.LM105:
.LM106:
.LM107:
	ori	a5,a5,16
.LVL38:
.LM108:
	j	.L5
.LVL39:
.L8:
.LM109:
.LM110:
	li	a4,-4096
	addi	a4,a4,2047
	and	a5,a5,a4
.LVL40:
.LM111:
	j	.L9
	.cfi_endproc
.LFE8:
	.size	UART_Init, .-UART_Init
	.section	.text.UART_DeInit,"ax",@progbits
	.align	1
	.globl	UART_DeInit
	.type	UART_DeInit, @function
UART_DeInit:
.LVL41:
.LFB9:
.LM112:
	.cfi_startproc
.LM113:
.LM114:
	addi	sp,sp,-16
	.cfi_def_cfa_offset 16
	sw	ra,12(sp)
	.cfi_offset 1, -4
.LM115:
	bne	a0,zero,.L15
.LM116:
	li	a0,16
.LVL42:
.L18:
.LM117:
	call	GLB_AHB_Slave1_Reset
.LVL43:
.L16:
.LM118:
.LM119:
	lw	ra,12(sp)
	.cfi_remember_state
	.cfi_restore 1
	li	a0,0
	addi	sp,sp,16
	.cfi_def_cfa_offset 0
	jr	ra
.LVL44:
.L15:
	.cfi_restore_state
.LM120:
.LM121:
	li	a5,1
	bne	a0,a5,.L16
.LM122:
	li	a0,17
.LVL45:
.LM123:
	j	.L18
	.cfi_endproc
.LFE9:
	.size	UART_DeInit, .-UART_DeInit
	.section	.text.UART_FifoConfig,"ax",@progbits
	.align	1
	.globl	UART_FifoConfig
	.type	UART_FifoConfig, @function
UART_FifoConfig:
.LVL46:
.LFB10:
.LM124:
	.cfi_startproc
.LM125:
.LM126:
.LM127:
	lui	a5,%hi(uartAddr)
	slli	a0,a0,2
.LVL47:
.LM128:
	addi	a5,a5,%lo(uartAddr)
	add	a5,a5,a0
	lw	a3,0(a5)
.LVL48:
.LM129:
.LM130:
.LM131:
	li	a5,-2031616
	addi	a5,a5,-1
.LM132:
	addi	a2,a3,132
.LM133:
	lw	a4,0(a2)
.LVL49:
.LM134:
.LM135:
	and	a4,a4,a5
.LVL50:
.LM136:
.LM137:
	lbu	a5,0(a1)
.LM138:
	addi	a5,a5,-1
.LM139:
	slli	a5,a5,16
.LM140:
	or	a5,a5,a4
.LM141:
	li	a4,-520093696
.LVL51:
.LM142:
	addi	a4,a4,-1
	and	a5,a5,a4
.LM143:
	lbu	a4,1(a1)
.LM144:
	addi	a4,a4,-1
.LM145:
	slli	a4,a4,24
.LM146:
	or	a5,a4,a5
.LVL52:
.LM147:
.LM148:
	sw	a5,0(a2)
.LM149:
.LM150:
	addi	a5,a3,128
.LVL53:
.LM151:
	lw	a3,0(a5)
.LVL54:
.LM152:
.LM153:
	lbu	a0,2(a1)
.LVL55:
.LM154:
	li	a2,1
.LM155:
	andi	a4,a3,-2
.LM156:
	bne	a0,a2,.L21
.LM157:
.LM158:
	or	a4,a3,a0
.L21:
.LVL56:
.LM159:
.LM160:
	lbu	a1,3(a1)
.LVL57:
.LM161:
	andi	a3,a4,-3
.LM162:
	bne	a1,a2,.L23
.LM163:
.LM164:
	ori	a3,a4,2
.L23:
.LVL58:
.LM165:
.LM166:
	sw	a3,0(a5)
.LM167:
.LM168:
	li	a0,0
	ret
	.cfi_endproc
.LFE10:
	.size	UART_FifoConfig, .-UART_FifoConfig
	.section	.text.UART_IrConfig,"ax",@progbits
	.align	1
	.globl	UART_IrConfig
	.type	UART_IrConfig, @function
UART_IrConfig:
.LVL59:
.LFB11:
.LM169:
	.cfi_startproc
.LM170:
.LM171:
.LM172:
	lui	a5,%hi(uartAddr)
	slli	a0,a0,2
.LVL60:
.LM173:
	addi	a5,a5,%lo(uartAddr)
	add	a5,a5,a0
	lw	a5,0(a5)
.LVL61:
.LM174:
.LM175:
.LM176:
	lbu	a0,0(a1)
	li	a2,1
.LM177:
	lw	a3,0(a5)
.LVL62:
.LM178:
.LM179:
	andi	a4,a3,-65
.LM180:
	bne	a0,a2,.L26
.LM181:
.LM182:
	ori	a4,a3,64
.L26:
.LVL63:
.LM183:
.LM184:
	lbu	a0,2(a1)
.LM185:
	andi	a3,a4,-129
.LM186:
	bne	a0,a2,.L28
.LM187:
.LM188:
	ori	a3,a4,128
.L28:
.LVL64:
.LM189:
.LM190:
	sw	a3,0(a5)
.LM191:
.LM192:
	lw	a3,4(a5)
.LVL65:
.LM193:
.LM194:
	lbu	a0,1(a1)
	li	a2,1
.LM195:
	andi	a4,a3,-65
.LM196:
	bne	a0,a2,.L30
.LM197:
.LM198:
	ori	a4,a3,64
.L30:
.LVL66:
.LM199:
.LM200:
	lbu	a0,3(a1)
.LM201:
	andi	a3,a4,-129
.LM202:
	bne	a0,a2,.L32
.LM203:
.LM204:
	ori	a3,a4,128
.L32:
.LVL67:
.LM205:
.LM206:
	sw	a3,4(a5)
.LM207:
	lhu	a4,6(a1)
	lhu	a3,4(a1)
.LVL68:
.LM208:
	li	a0,0
	slli	a4,a4,16
	or	a4,a4,a3
.LM209:
	sw	a4,16(a5)
.LVL69:
.LM210:
.LM211:
	lhu	a4,8(a1)
.LM212:
	sw	a4,20(a5)
.LM213:
.LM214:
	ret
	.cfi_endproc
.LFE11:
	.size	UART_IrConfig, .-UART_IrConfig
	.section	.text.UART_Enable,"ax",@progbits
	.align	1
	.globl	UART_Enable
	.type	UART_Enable, @function
UART_Enable:
.LVL70:
.LFB12:
.LM215:
	.cfi_startproc
.LM216:
.LM217:
.LM218:
	lui	a5,%hi(uartAddr)
	slli	a0,a0,2
.LVL71:
.LM219:
	addi	a5,a5,%lo(uartAddr)
	add	a5,a5,a0
.LM220:
	andi	a4,a1,253
.LM221:
	lw	a5,0(a5)
.LVL72:
.LM222:
.LM223:
.LM224:
.LM225:
	bne	a4,zero,.L34
.LM226:
.LM227:
	lw	a4,0(a5)
.LVL73:
.LM228:
.LM229:
	ori	a4,a4,1
.LVL74:
.LM230:
	sw	a4,0(a5)
.LVL75:
.L34:
.LM231:
.LM232:
	addi	a1,a1,-1
.LVL76:
.LM233:
	andi	a1,a1,0xff
	li	a4,1
	bgtu	a1,a4,.L35
.LM234:
.LM235:
	lw	a4,4(a5)
.LVL77:
.LM236:
.LM237:
	ori	a4,a4,1
.LVL78:
.LM238:
	sw	a4,4(a5)
.LVL79:
.L35:
.LM239:
.LM240:
	li	a0,0
	ret
	.cfi_endproc
.LFE12:
	.size	UART_Enable, .-UART_Enable
	.section	.text.UART_Disable,"ax",@progbits
	.align	1
	.globl	UART_Disable
	.type	UART_Disable, @function
UART_Disable:
.LVL80:
.LFB13:
.LM241:
	.cfi_startproc
.LM242:
.LM243:
.LM244:
	lui	a5,%hi(uartAddr)
	slli	a0,a0,2
.LVL81:
.LM245:
	addi	a5,a5,%lo(uartAddr)
	add	a5,a5,a0
.LM246:
	andi	a4,a1,253
.LM247:
	lw	a5,0(a5)
.LVL82:
.LM248:
.LM249:
.LM250:
.LM251:
	bne	a4,zero,.L37
.LM252:
.LM253:
	lw	a4,0(a5)
.LVL83:
.LM254:
.LM255:
	andi	a4,a4,-2
.LVL84:
.LM256:
	sw	a4,0(a5)
.LVL85:
.L37:
.LM257:
.LM258:
	addi	a1,a1,-1
.LVL86:
.LM259:
	andi	a1,a1,0xff
	li	a4,1
	bgtu	a1,a4,.L38
.LM260:
.LM261:
	lw	a4,4(a5)
.LVL87:
.LM262:
.LM263:
	andi	a4,a4,-2
.LVL88:
.LM264:
	sw	a4,4(a5)
.LVL89:
.L38:
.LM265:
.LM266:
	li	a0,0
	ret
	.cfi_endproc
.LFE13:
	.size	UART_Disable, .-UART_Disable
	.section	.text.UART_SetTxDataLength,"ax",@progbits
	.align	1
	.globl	UART_SetTxDataLength
	.type	UART_SetTxDataLength, @function
UART_SetTxDataLength:
.LVL90:
.LFB14:
.LM267:
	.cfi_startproc
.LM268:
.LM269:
.LM270:
.LM271:
.LM272:
	lui	a5,%hi(uartAddr)
	slli	a0,a0,2
.LVL91:
.LM273:
	addi	a5,a5,%lo(uartAddr)
	add	a5,a5,a0
.LM274:
	lw	a4,0(a5)
.LM275:
	addi	a1,a1,-1
.LVL92:
.LM276:
	slli	a1,a1,16
.LVL93:
.LM277:
	lw	a5,0(a4)
.LVL94:
.LM278:
.LM279:
	li	a0,0
.LM280:
	slli	a5,a5,16
.LVL95:
.LM281:
	srli	a5,a5,16
.LM282:
	or	a1,a1,a5
.LM283:
	sw	a1,0(a4)
.LM284:
.LM285:
	ret
	.cfi_endproc
.LFE14:
	.size	UART_SetTxDataLength, .-UART_SetTxDataLength
	.section	.text.UART_SetRxDataLength,"ax",@progbits
	.align	1
	.globl	UART_SetRxDataLength
	.type	UART_SetRxDataLength, @function
UART_SetRxDataLength:
.LVL96:
.LFB15:
.LM286:
	.cfi_startproc
.LM287:
.LM288:
.LM289:
.LM290:
.LM291:
	lui	a5,%hi(uartAddr)
	slli	a0,a0,2
.LVL97:
.LM292:
	addi	a5,a5,%lo(uartAddr)
	add	a5,a5,a0
.LM293:
	lw	a4,0(a5)
.LM294:
	addi	a1,a1,-1
.LVL98:
.LM295:
	slli	a1,a1,16
.LVL99:
.LM296:
	lw	a5,4(a4)
.LVL100:
.LM297:
.LM298:
	li	a0,0
.LM299:
	slli	a5,a5,16
.LVL101:
.LM300:
	srli	a5,a5,16
.LM301:
	or	a1,a1,a5
.LM302:
	sw	a1,4(a4)
.LM303:
.LM304:
	ret
	.cfi_endproc
.LFE15:
	.size	UART_SetRxDataLength, .-UART_SetRxDataLength
	.section	.text.UART_SetRxTimeoutValue,"ax",@progbits
	.align	1
	.globl	UART_SetRxTimeoutValue
	.type	UART_SetRxTimeoutValue, @function
UART_SetRxTimeoutValue:
.LVL102:
.LFB16:
.LM305:
	.cfi_startproc
.LM306:
.LM307:
.LM308:
.LM309:
.LM310:
	lui	a5,%hi(uartAddr)
	slli	a0,a0,2
.LVL103:
.LM311:
	addi	a5,a5,%lo(uartAddr)
	add	a5,a5,a0
.LM312:
	lw	a4,0(a5)
.LM313:
	addi	a1,a1,-1
.LVL104:
.LM314:
	li	a0,0
.LM315:
	lw	a5,24(a4)
.LVL105:
.LM316:
.LM317:
	andi	a5,a5,-256
.LVL106:
.LM318:
	or	a1,a1,a5
.LVL107:
.LM319:
.LM320:
	sw	a1,24(a4)
.LM321:
.LM322:
	ret
	.cfi_endproc
.LFE16:
	.size	UART_SetRxTimeoutValue, .-UART_SetRxTimeoutValue
	.section	.text.UART_SetDeglitchCount,"ax",@progbits
	.align	1
	.globl	UART_SetDeglitchCount
	.type	UART_SetDeglitchCount, @function
UART_SetDeglitchCount:
.LVL108:
.LFB17:
.LM323:
	.cfi_startproc
.LM324:
.LM325:
.LM326:
.LM327:
.LM328:
	lui	a5,%hi(uartAddr)
	slli	a0,a0,2
.LVL109:
.LM329:
	addi	a5,a5,%lo(uartAddr)
	add	a5,a5,a0
.LM330:
	lw	a3,0(a5)
.LM331:
	li	a4,-61440
	addi	a4,a4,-1
.LM332:
	lw	a5,4(a3)
.LVL110:
.LM333:
.LM334:
	addi	a1,a1,-1
.LVL111:
.LM335:
	slli	a1,a1,12
.LVL112:
.LM336:
	and	a5,a5,a4
.LVL113:
.LM337:
	or	a1,a1,a5
.LVL114:
.LM338:
.LM339:
	sw	a1,4(a3)
.LM340:
.LM341:
	li	a0,0
	ret
	.cfi_endproc
.LFE17:
	.size	UART_SetDeglitchCount, .-UART_SetDeglitchCount
	.section	.text.UART_SetRtsValue,"ax",@progbits
	.align	1
	.globl	UART_SetRtsValue
	.type	UART_SetRtsValue, @function
UART_SetRtsValue:
.LVL115:
.LFB19:
.LM342:
	.cfi_startproc
.LM343:
.LM344:
.LM345:
.LM346:
.LM347:
	lui	a5,%hi(uartAddr)
	slli	a0,a0,2
.LVL116:
.LM348:
	addi	a5,a5,%lo(uartAddr)
	add	a5,a5,a0
.LM349:
	lw	a4,0(a5)
.LM350:
	li	a0,0
.LM351:
	lw	a5,4(a4)
.LVL117:
.LM352:
.LM353:
	ori	a5,a5,4
.LVL118:
.LM354:
	sw	a5,4(a4)
.LM355:
.LM356:
	ret
	.cfi_endproc
.LFE19:
	.size	UART_SetRtsValue, .-UART_SetRtsValue
	.section	.text.UART_ClrRtsValue,"ax",@progbits
	.align	1
	.globl	UART_ClrRtsValue
	.type	UART_ClrRtsValue, @function
UART_ClrRtsValue:
.LVL119:
.LFB20:
.LM357:
	.cfi_startproc
.LM358:
.LM359:
.LM360:
.LM361:
.LM362:
	lui	a5,%hi(uartAddr)
	slli	a0,a0,2
.LVL120:
.LM363:
	addi	a5,a5,%lo(uartAddr)
	add	a5,a5,a0
.LM364:
	lw	a4,0(a5)
.LM365:
	li	a0,0
.LM366:
	lw	a5,4(a4)
.LVL121:
.LM367:
.LM368:
	andi	a5,a5,-5
.LVL122:
.LM369:
	sw	a5,4(a4)
.LM370:
.LM371:
	ret
	.cfi_endproc
.LFE20:
	.size	UART_ClrRtsValue, .-UART_ClrRtsValue
	.section	.text.UART_TxFreeRun,"ax",@progbits
	.align	1
	.globl	UART_TxFreeRun
	.type	UART_TxFreeRun, @function
UART_TxFreeRun:
.LVL123:
.LFB21:
.LM372:
	.cfi_startproc
.LM373:
.LM374:
.LM375:
.LM376:
.LM377:
	lui	a5,%hi(uartAddr)
	slli	a0,a0,2
.LVL124:
.LM378:
	addi	a5,a5,%lo(uartAddr)
	add	a5,a5,a0
.LM379:
	lw	a4,0(a5)
.LM380:
	li	a3,1
.LM381:
	lw	a5,0(a4)
.LVL125:
.LM382:
.LM383:
	bne	a1,a3,.L46
.LM384:
.LM385:
	ori	a5,a5,4
.LVL126:
.L48:
.LM386:
	sw	a5,0(a4)
.LM387:
.LM388:
	li	a0,0
	ret
.LVL127:
.L46:
.LM389:
.LM390:
	andi	a5,a5,-5
.LVL128:
.LM391:
	j	.L48
	.cfi_endproc
.LFE21:
	.size	UART_TxFreeRun, .-UART_TxFreeRun
	.section	.text.UART_AutoBaudDetection,"ax",@progbits
	.align	1
	.globl	UART_AutoBaudDetection
	.type	UART_AutoBaudDetection, @function
UART_AutoBaudDetection:
.LVL129:
.LFB22:
.LM392:
	.cfi_startproc
.LM393:
.LM394:
.LM395:
.LM396:
.LM397:
	lui	a5,%hi(uartAddr)
	slli	a0,a0,2
.LVL130:
.LM398:
	addi	a5,a5,%lo(uartAddr)
	add	a5,a5,a0
.LM399:
	lw	a4,0(a5)
.LM400:
	li	a3,1
.LM401:
	lw	a5,4(a4)
.LVL131:
.LM402:
.LM403:
	bne	a1,a3,.L50
.LM404:
.LM405:
	ori	a5,a5,8
.LVL132:
.L52:
.LM406:
	sw	a5,4(a4)
.LM407:
.LM408:
	li	a0,0
	ret
.LVL133:
.L50:
.LM409:
.LM410:
	andi	a5,a5,-9
.LVL134:
.LM411:
	j	.L52
	.cfi_endproc
.LFE22:
	.size	UART_AutoBaudDetection, .-UART_AutoBaudDetection
	.section	.text.UART_TxFifoClear,"ax",@progbits
	.align	1
	.globl	UART_TxFifoClear
	.type	UART_TxFifoClear, @function
UART_TxFifoClear:
.LVL135:
.LFB23:
.LM412:
	.cfi_startproc
.LM413:
.LM414:
.LM415:
.LM416:
.LM417:
	lui	a5,%hi(uartAddr)
	slli	a0,a0,2
.LVL136:
.LM418:
	addi	a5,a5,%lo(uartAddr)
	add	a5,a5,a0
.LM419:
	lw	a5,0(a5)
.LM420:
	li	a0,0
.LM421:
	addi	a5,a5,128
.LM422:
	lw	a4,0(a5)
.LVL137:
.LM423:
.LM424:
	ori	a4,a4,4
.LVL138:
.LM425:
	sw	a4,0(a5)
.LM426:
.LM427:
	ret
	.cfi_endproc
.LFE23:
	.size	UART_TxFifoClear, .-UART_TxFifoClear
	.section	.text.UART_RxFifoClear,"ax",@progbits
	.align	1
	.globl	UART_RxFifoClear
	.type	UART_RxFifoClear, @function
UART_RxFifoClear:
.LVL139:
.LFB24:
.LM428:
	.cfi_startproc
.LM429:
.LM430:
.LM431:
.LM432:
.LM433:
	lui	a5,%hi(uartAddr)
	slli	a0,a0,2
.LVL140:
.LM434:
	addi	a5,a5,%lo(uartAddr)
	add	a5,a5,a0
.LM435:
	lw	a5,0(a5)
.LM436:
	li	a0,0
.LM437:
	addi	a5,a5,128
.LM438:
	lw	a4,0(a5)
.LVL141:
.LM439:
.LM440:
	ori	a4,a4,8
.LVL142:
.LM441:
	sw	a4,0(a5)
.LM442:
.LM443:
	ret
	.cfi_endproc
.LFE24:
	.size	UART_RxFifoClear, .-UART_RxFifoClear
	.section	.text.UART_IntMask,"ax",@progbits
	.align	1
	.globl	UART_IntMask
	.type	UART_IntMask, @function
UART_IntMask:
.LVL143:
.LFB25:
.LM444:
	.cfi_startproc
.LM445:
.LM446:
.LM447:
.LM448:
.LM449:
.LM450:
.LM451:
	lui	a5,%hi(uartAddr)
	slli	a0,a0,2
.LVL144:
.LM452:
	addi	a5,a5,%lo(uartAddr)
	add	a5,a5,a0
.LM453:
	lw	a3,0(a5)
.LM454:
	li	a0,8
	li	a4,1
.LM455:
	lw	a5,36(a3)
.LVL145:
.LM456:
.LM457:
	bne	a1,a0,.L56
.LM458:
.LM459:
	li	a1,0
.LVL146:
.LM460:
	bne	a2,a4,.L57
.LM461:
.LM462:
	ori	a1,a5,255
.LVL147:
.L57:
.LM463:
.LM464:
	sw	a1,36(a3)
.LM465:
.LM466:
	li	a0,0
	ret
.LVL148:
.L56:
.LM467:
.LM468:
	sll	a1,a4,a1
.LVL149:
.LM469:
	bne	a2,a4,.L58
.LM470:
.LM471:
	or	a1,a1,a5
.LVL150:
.LM472:
	j	.L57
.LVL151:
.L58:
.LM473:
.LM474:
	not	a1,a1
.LM475:
	and	a1,a1,a5
	j	.L57
	.cfi_endproc
.LFE25:
	.size	UART_IntMask, .-UART_IntMask
	.section	.text.UART_IntClear,"ax",@progbits
	.align	1
	.globl	UART_IntClear
	.type	UART_IntClear, @function
UART_IntClear:
.LVL152:
.LFB26:
.LM476:
	.cfi_startproc
.LM477:
.LM478:
.LM479:
.LM480:
.LM481:
.LM482:
	lui	a5,%hi(uartAddr)
	slli	a0,a0,2
.LVL153:
.LM483:
	addi	a5,a5,%lo(uartAddr)
	add	a5,a5,a0
.LM484:
	lw	a3,0(a5)
.LM485:
	li	a4,8
.LM486:
	lw	a5,40(a3)
.LVL154:
.LM487:
.LM488:
	bne	a1,a4,.L61
.LM489:
.LM490:
	ori	a5,a5,255
.LVL155:
.L62:
.LM491:
.LM492:
	sw	a5,40(a3)
.LM493:
.LM494:
	li	a0,0
	ret
.L61:
.LM495:
.LM496:
	li	a4,1
	sll	a4,a4,a1
.LM497:
	or	a5,a4,a5
.LVL156:
.LM498:
	j	.L62
	.cfi_endproc
.LFE26:
	.size	UART_IntClear, .-UART_IntClear
	.section	.text.UART_Int_Callback_Install,"ax",@progbits
	.align	1
	.globl	UART_Int_Callback_Install
	.type	UART_Int_Callback_Install, @function
UART_Int_Callback_Install:
.LVL157:
.LFB27:
.LM499:
	.cfi_startproc
.LM500:
.LM501:
.LM502:
.LM503:
.LM504:
	li	a0,0
.LVL158:
.LM505:
	ret
	.cfi_endproc
.LFE27:
	.size	UART_Int_Callback_Install, .-UART_Int_Callback_Install
	.section	.text.UART_GetAutoBaudCount,"ax",@progbits
	.align	1
	.globl	UART_GetAutoBaudCount
	.type	UART_GetAutoBaudCount, @function
UART_GetAutoBaudCount:
.LVL159:
.LFB31:
.LM506:
	.cfi_startproc
.LM507:
.LM508:
.LM509:
.LM510:
.LM511:
	lui	a5,%hi(uartAddr)
	slli	a0,a0,2
.LVL160:
.LM512:
	addi	a5,a5,%lo(uartAddr)
	add	a5,a5,a0
.LM513:
	lw	a5,0(a5)
.LM514:
	lw	a0,52(a5)
.LM515:
	bne	a1,zero,.L66
.LM516:
.LM517:
	srli	a0,a0,16
.L66:
.LM518:
	slli	a0,a0,16
	srli	a0,a0,16
	ret
	.cfi_endproc
.LFE31:
	.size	UART_GetAutoBaudCount, .-UART_GetAutoBaudCount
	.section	.text.UART_SetBaudrate,"ax",@progbits
	.align	1
	.globl	UART_SetBaudrate
	.type	UART_SetBaudrate, @function
UART_SetBaudrate:
.LVL161:
.LFB18:
.LM519:
	.cfi_startproc
.LM520:
.LM521:
	lui	a5,%hi(uartAddr)
	slli	a4,a0,2
	addi	a5,a5,%lo(uartAddr)
.LM522:
	addi	sp,sp,-16
	.cfi_def_cfa_offset 16
.LM523:
	add	a5,a5,a4
.LM524:
	sw	s0,8(sp)
	sw	ra,12(sp)
	.cfi_offset 8, -8
	.cfi_offset 1, -4
.LM525:
	lw	s0,0(a5)
.LVL162:
.LM526:
.LM527:
.LM528:
.LM529:
	call	UART_GetAutoBaudCount
.LVL163:
.LM530:
.LM531:
	li	a5,65536
	addi	a5,a5,1
	mul	a0,a0,a5
.LVL164:
.LM532:
	sw	a0,8(s0)
.LM533:
.LM534:
	lw	ra,12(sp)
	.cfi_restore 1
	lw	s0,8(sp)
	.cfi_restore 8
.LVL165:
.LM535:
	li	a0,0
	addi	sp,sp,16
	.cfi_def_cfa_offset 0
	jr	ra
	.cfi_endproc
.LFE18:
	.size	UART_SetBaudrate, .-UART_SetBaudrate
	.section	.text.UART_GetTxFifoCount,"ax",@progbits
	.align	1
	.globl	UART_GetTxFifoCount
	.type	UART_GetTxFifoCount, @function
UART_GetTxFifoCount:
.LVL166:
.LFB32:
.LM536:
	.cfi_startproc
.LM537:
.LM538:
.LM539:
.LM540:
	lui	a5,%hi(uartAddr)
	slli	a0,a0,2
.LVL167:
.LM541:
	addi	a5,a5,%lo(uartAddr)
	add	a5,a5,a0
.LM542:
	lw	a5,0(a5)
	addi	a5,a5,132
.LM543:
	lw	a0,0(a5)
.LM544:
	andi	a0,a0,63
	ret
	.cfi_endproc
.LFE32:
	.size	UART_GetTxFifoCount, .-UART_GetTxFifoCount
	.section	.text.UART_SendData,"ax",@progbits
	.align	1
	.globl	UART_SendData
	.type	UART_SendData, @function
UART_SendData:
.LVL168:
.LFB28:
.LM545:
	.cfi_startproc
.LM546:
.LM547:
.LM548:
	lui	a5,%hi(uartAddr)
	slli	a4,a0,2
	addi	a5,a5,%lo(uartAddr)
.LM549:
	addi	sp,sp,-48
	.cfi_def_cfa_offset 48
.LM550:
	add	a5,a5,a4
.LM551:
	sw	s2,32(sp)
	.cfi_offset 18, -16
.LM552:
	lw	s2,0(a5)
.LVL169:
.LM553:
.LM554:
.LM555:
.LM556:
	sw	s0,40(sp)
	.cfi_offset 8, -8
.LM557:
	li	s0,159744
.LM558:
	sw	s1,36(sp)
	sw	s3,28(sp)
	sw	ra,44(sp)
	.cfi_offset 9, -12
	.cfi_offset 19, -20
	.cfi_offset 1, -4
.LM559:
	mv	s3,a0
.LM560:
	addi	s0,s0,256
.LM561:
	li	s1,0
.LVL170:
.L71:
.LM562:
	bltu	s1,a2,.L75
.LM563:
	li	a0,0
.L74:
.LM564:
	lw	ra,44(sp)
	.cfi_remember_state
	.cfi_restore 1
	lw	s0,40(sp)
	.cfi_restore 8
.LVL171:
.LM565:
	lw	s1,36(sp)
	.cfi_restore 9
.LVL172:
.LM566:
	lw	s2,32(sp)
	.cfi_restore 18
.LVL173:
.LM567:
	lw	s3,28(sp)
	.cfi_restore 19
.LVL174:
.LM568:
	addi	sp,sp,48
	.cfi_def_cfa_offset 0
	jr	ra
.LVL175:
.L75:
	.cfi_restore_state
.LM569:
	mv	a0,s3
	sw	a2,12(sp)
	sw	a1,8(sp)
.LM570:
.LM571:
	call	UART_GetTxFifoCount
.LVL176:
.LM572:
	lw	a1,8(sp)
	lw	a2,12(sp)
	beq	a0,zero,.L72
.LM573:
.LVL177:
.LM574:
	add	a5,a1,s1
	lbu	a5,0(a5)
.LM575:
	li	s0,159744
.LVL178:
.LM576:
	addi	s1,s1,1
.LVL179:
.LM577:
	sb	a5,136(s2)
.LM578:
.LVL180:
.LM579:
	addi	s0,s0,256
	j	.L71
.LVL181:
.L72:
.LM580:
.LM581:
	addi	s0,s0,-1
.LVL182:
.LM582:
.LM583:
	bne	s0,zero,.L71
.LM584:
	li	a0,2
	j	.L74
	.cfi_endproc
.LFE28:
	.size	UART_SendData, .-UART_SendData
	.section	.text.UART_GetRxFifoCount,"ax",@progbits
	.align	1
	.globl	UART_GetRxFifoCount
	.type	UART_GetRxFifoCount, @function
UART_GetRxFifoCount:
.LVL183:
.LFB33:
.LM585:
	.cfi_startproc
.LM586:
.LM587:
.LM588:
.LM589:
	lui	a5,%hi(uartAddr)
	slli	a0,a0,2
.LVL184:
.LM590:
	addi	a5,a5,%lo(uartAddr)
	add	a5,a5,a0
.LM591:
	lw	a5,0(a5)
	addi	a5,a5,132
.LM592:
	lw	a0,0(a5)
.LM593:
	srli	a0,a0,8
.LM594:
	andi	a0,a0,63
	ret
	.cfi_endproc
.LFE33:
	.size	UART_GetRxFifoCount, .-UART_GetRxFifoCount
	.section	.text.UART_ReceiveData,"ax",@progbits
	.align	1
	.globl	UART_ReceiveData
	.type	UART_ReceiveData, @function
UART_ReceiveData:
.LVL185:
.LFB30:
.LM595:
	.cfi_startproc
.LM596:
.LM597:
.LM598:
	lui	a5,%hi(uartAddr)
	slli	a4,a0,2
	addi	a5,a5,%lo(uartAddr)
.LM599:
	addi	sp,sp,-32
	.cfi_def_cfa_offset 32
.LM600:
	add	a5,a5,a4
.LM601:
	sw	s1,20(sp)
	.cfi_offset 9, -12
.LM602:
	lw	s1,0(a5)
.LVL186:
.LM603:
.LM604:
.LM605:
	sw	s0,24(sp)
	sw	s2,16(sp)
	sw	ra,28(sp)
	.cfi_offset 8, -8
	.cfi_offset 18, -16
	.cfi_offset 1, -4
.LM606:
	mv	s2,a0
.LM607:
	li	s0,0
.LVL187:
.L80:
.LM608:
	beq	a2,s0,.L79
.LM609:
	mv	a0,s2
	sw	a2,8(sp)
	sw	a1,12(sp)
	call	UART_GetRxFifoCount
.LVL188:
.LM610:
	lw	a2,8(sp)
	lw	a1,12(sp)
	bne	a0,zero,.L82
.L79:
.LM611:
	lw	ra,28(sp)
	.cfi_remember_state
	.cfi_restore 1
	mv	a0,s0
	lw	s0,24(sp)
	.cfi_restore 8
.LVL189:
.LM612:
	lw	s1,20(sp)
	.cfi_restore 9
.LVL190:
.LM613:
	lw	s2,16(sp)
	.cfi_restore 18
.LVL191:
.LM614:
	addi	sp,sp,32
	.cfi_def_cfa_offset 0
	jr	ra
.LVL192:
.L82:
	.cfi_restore_state
.LM615:
.LM616:
	lbu	a4,140(s1)
.LM617:
	add	a5,a1,s0
	addi	s0,s0,1
.LVL193:
.LM618:
	sb	a4,0(a5)
	j	.L80
	.cfi_endproc
.LFE30:
	.size	UART_ReceiveData, .-UART_ReceiveData
	.section	.text.UART_GetIntStatus,"ax",@progbits
	.align	1
	.globl	UART_GetIntStatus
	.type	UART_GetIntStatus, @function
UART_GetIntStatus:
.LVL194:
.LFB34:
.LM619:
	.cfi_startproc
.LM620:
.LM621:
.LM622:
.LM623:
.LM624:
.LM625:
	lui	a5,%hi(uartAddr)
	slli	a0,a0,2
.LVL195:
.LM626:
	addi	a5,a5,%lo(uartAddr)
	add	a5,a5,a0
.LM627:
	lw	a5,0(a5)
.LM628:
	li	a4,8
.LM629:
	lw	a5,32(a5)
.LVL196:
.LM630:
.LM631:
	bne	a1,a4,.L86
.LM632:
.LM633:
	andi	a5,a5,255
.LVL197:
.LM634:
	snez	a0,a5
	ret
.LVL198:
.L86:
.LM635:
.LM636:
	li	a0,1
	sll	a0,a0,a1
.LM637:
	and	a0,a0,a5
.LM638:
	snez	a0,a0
.LM639:
	ret
	.cfi_endproc
.LFE34:
	.size	UART_GetIntStatus, .-UART_GetIntStatus
	.section	.text.UART_GetTxBusBusyStatus,"ax",@progbits
	.align	1
	.globl	UART_GetTxBusBusyStatus
	.type	UART_GetTxBusBusyStatus, @function
UART_GetTxBusBusyStatus:
.LVL199:
.LFB35:
.LM640:
	.cfi_startproc
.LM641:
.LM642:
.LM643:
.LM644:
.LM645:
	lui	a5,%hi(uartAddr)
	slli	a0,a0,2
.LVL200:
.LM646:
	addi	a5,a5,%lo(uartAddr)
	add	a5,a5,a0
.LM647:
	lw	a5,0(a5)
.LM648:
	lw	a0,48(a5)
.LVL201:
.LM649:
.LM650:
	andi	a0,a0,1
.LVL202:
.LM651:
	ret
	.cfi_endproc
.LFE35:
	.size	UART_GetTxBusBusyStatus, .-UART_GetTxBusBusyStatus
	.section	.text.UART_SendDataBlock,"ax",@progbits
	.align	1
	.globl	UART_SendDataBlock
	.type	UART_SendDataBlock, @function
UART_SendDataBlock:
.LVL203:
.LFB29:
.LM652:
	.cfi_startproc
.LM653:
.LM654:
.LM655:
	lui	a5,%hi(uartAddr)
	slli	a4,a0,2
	addi	a5,a5,%lo(uartAddr)
.LM656:
	addi	sp,sp,-48
	.cfi_def_cfa_offset 48
.LM657:
	add	a5,a5,a4
.LM658:
	sw	s2,32(sp)
	.cfi_offset 18, -16
.LM659:
	lw	s2,0(a5)
.LVL204:
.LM660:
.LM661:
.LM662:
.LM663:
	sw	s0,40(sp)
	.cfi_offset 8, -8
.LM664:
	li	s0,159744
.LM665:
	sw	s1,36(sp)
	sw	s3,28(sp)
	sw	ra,44(sp)
	.cfi_offset 9, -12
	.cfi_offset 19, -20
	.cfi_offset 1, -4
.LM666:
	mv	s3,a0
.LM667:
	addi	s0,s0,256
.LM668:
	li	s1,0
.LVL205:
.L90:
.LM669:
	bltu	s1,a2,.L94
.LM670:
	li	s0,1
.LVL206:
.L95:
.LM671:
.LM672:
.LM673:
	mv	a0,s3
	call	UART_GetTxBusBusyStatus
.LVL207:
.LM674:
	beq	a0,s0,.L95
.LVL208:
.L93:
.LM675:
	lw	ra,44(sp)
	.cfi_remember_state
	.cfi_restore 1
	lw	s0,40(sp)
	.cfi_restore 8
	lw	s1,36(sp)
	.cfi_restore 9
.LVL209:
.LM676:
	lw	s2,32(sp)
	.cfi_restore 18
.LVL210:
.LM677:
	lw	s3,28(sp)
	.cfi_restore 19
.LVL211:
.LM678:
	addi	sp,sp,48
	.cfi_def_cfa_offset 0
	jr	ra
.LVL212:
.L94:
	.cfi_restore_state
.LM679:
	mv	a0,s3
	sw	a2,12(sp)
	sw	a1,8(sp)
.LM680:
.LM681:
	call	UART_GetTxFifoCount
.LVL213:
.LM682:
	lw	a1,8(sp)
	lw	a2,12(sp)
	beq	a0,zero,.L91
.LM683:
.LVL214:
.LM684:
	add	a5,a1,s1
	lbu	a5,0(a5)
.LM685:
	li	s0,159744
.LVL215:
.LM686:
	addi	s1,s1,1
.LVL216:
.LM687:
	sb	a5,136(s2)
.LM688:
.LVL217:
.LM689:
	addi	s0,s0,256
	j	.L90
.LVL218:
.L91:
.LM690:
.LM691:
	addi	s0,s0,-1
.LVL219:
.LM692:
.LM693:
	bne	s0,zero,.L90
.LM694:
	li	a0,2
	j	.L93
	.cfi_endproc
.LFE29:
	.size	UART_SendDataBlock, .-UART_SendDataBlock
	.section	.text.UART_GetRxBusBusyStatus,"ax",@progbits
	.align	1
	.globl	UART_GetRxBusBusyStatus
	.type	UART_GetRxBusBusyStatus, @function
UART_GetRxBusBusyStatus:
.LVL220:
.LFB36:
.LM695:
	.cfi_startproc
.LM696:
.LM697:
.LM698:
.LM699:
.LM700:
	lui	a5,%hi(uartAddr)
	slli	a0,a0,2
.LVL221:
.LM701:
	addi	a5,a5,%lo(uartAddr)
	add	a5,a5,a0
.LM702:
	lw	a5,0(a5)
.LM703:
	lw	a0,48(a5)
.LVL222:
.LM704:
.LM705:
	srli	a0,a0,1
.LVL223:
.LM706:
	andi	a0,a0,1
	ret
	.cfi_endproc
.LFE36:
	.size	UART_GetRxBusBusyStatus, .-UART_GetRxBusBusyStatus
	.section	.text.UART_GetOverflowStatus,"ax",@progbits
	.align	1
	.globl	UART_GetOverflowStatus
	.type	UART_GetOverflowStatus, @function
UART_GetOverflowStatus:
.LVL224:
.LFB37:
.LM707:
	.cfi_startproc
.LM708:
.LM709:
.LM710:
.LM711:
.LM712:
.LM713:
	lui	a5,%hi(uartAddr)
	slli	a0,a0,2
.LVL225:
.LM714:
	addi	a5,a5,%lo(uartAddr)
	add	a5,a5,a0
.LM715:
	lw	a5,0(a5)
.LM716:
	addi	a1,a1,4
.LVL226:
.LM717:
	li	a0,1
.LM718:
	addi	a5,a5,128
.LM719:
	lw	a5,0(a5)
.LVL227:
.LM720:
.LM721:
	sll	a0,a0,a1
.LM722:
	and	a0,a0,a5
.LM723:
	snez	a0,a0
	ret
	.cfi_endproc
.LFE37:
	.size	UART_GetOverflowStatus, .-UART_GetOverflowStatus
	.section	.srodata.uartAddr,"a"
	.align	2
	.type	uartAddr, @object
	.size	uartAddr, 8
uartAddr:
	.word	1073782784
	.word	1073783040
	.text
.Letext0:
	.section	.note.GNU-stack,"",@progbits
