	.file	"bl602_ir.c"
	.option nopic
	.attribute arch, "rv32i2p1_m2p0_f2p2_c2p0_zicsr2p0_zmmul1p0_zca1p0_zcf1p0"
	.attribute unaligned_access, 0
	.attribute stack_align, 16
	.text
.Ltext0:
	.cfi_sections	.debug_frame
	.section	.text.IR_Disable.part.0,"ax",@progbits
	.align	1
	.type	IR_Disable.part.0, @function
IR_Disable.part.0:
.LFB36:
.LM1:
	.cfi_startproc
.LVL0:
.LM2:
.LM3:
	li	a5,1073782784
	addi	a5,a5,1664
	lw	a4,0(a5)
.LVL1:
.LM4:
.LM5:
	andi	a4,a4,-2
.LVL2:
.LM6:
	sw	a4,0(a5)
.LM7:
	ret
	.cfi_endproc
.LFE36:
	.size	IR_Disable.part.0, .-IR_Disable.part.0
	.section	.text.IR_TxInit,"ax",@progbits
	.align	1
	.globl	IR_TxInit
	.type	IR_TxInit, @function
IR_TxInit:
.LVL3:
.LFB8:
.LM8:
	.cfi_startproc
.LM9:
.LM10:
.LM11:
	li	a5,1073782784
	lw	a4,1536(a5)
.LVL4:
.LM12:
.LM13:
	li	a5,-258048
	addi	a5,a5,-1
	and	a4,a4,a5
.LVL5:
.LM14:
	lbu	a5,0(a0)
.LM15:
	lbu	a3,1(a0)
.LM16:
	addi	a5,a5,-1
.LM17:
	slli	a5,a5,12
.LM18:
	or	a5,a5,a4
.LVL6:
.LM19:
.LM20:
	li	a4,1
	bne	a3,a4,.L3
.LM21:
	li	a4,4096
	addi	a4,a4,-2048
	or	a5,a5,a4
.LVL7:
.L4:
.LM22:
.LM23:
	lbu	a4,2(a0)
	li	a2,1
.LM24:
	andi	a3,a5,-1025
.LM25:
	bne	a4,a2,.L6
.LM26:
	ori	a3,a5,1024
.L6:
.LVL8:
.LM27:
.LM28:
	lbu	a5,3(a0)
.LM29:
	andi	a4,a3,-513
.LM30:
	bne	a5,a2,.L8
.LM31:
	ori	a4,a3,512
.L8:
.LVL9:
.LM32:
.LM33:
	lbu	a2,4(a0)
	li	a3,1
.LM34:
	andi	a5,a4,-257
.LM35:
	bne	a2,a3,.L10
.LM36:
	ori	a5,a4,256
.L10:
.LVL10:
.LM37:
.LM38:
	lbu	a2,5(a0)
.LM39:
	andi	a4,a5,-65
.LM40:
	bne	a2,a3,.L12
.LM41:
	ori	a4,a5,64
.L12:
.LVL11:
.LM42:
.LM43:
	lbu	a2,6(a0)
	li	a3,1
.LM44:
	andi	a5,a4,-33
.LM45:
	bne	a2,a3,.L14
.LM46:
	ori	a5,a4,32
.L14:
.LVL12:
.LM47:
.LM48:
	lbu	a2,7(a0)
.LM49:
	andi	a4,a5,-17
.LM50:
	bne	a2,a3,.L16
.LM51:
	ori	a4,a5,16
.L16:
.LVL13:
.LM52:
.LM53:
	lbu	a2,8(a0)
	li	a3,1
.LM54:
	andi	a5,a4,-5
.LM55:
	bne	a2,a3,.L18
.LM56:
	ori	a5,a4,4
.L18:
.LVL14:
.LM57:
.LM58:
	lbu	a2,9(a0)
.LM59:
	andi	a4,a5,-3
.LM60:
	bne	a2,a3,.L20
.LM61:
	ori	a4,a5,2
.L20:
.LVL15:
.LM62:
.LM63:
	li	a5,1073782784
	sw	a4,1536(a5)
.LM64:
.LM65:
	li	a0,0
.LVL16:
.LM66:
	ret
.LVL17:
.L3:
.LM67:
	li	a4,-4096
	addi	a4,a4,2047
	and	a5,a5,a4
.LVL18:
.LM68:
	j	.L4
	.cfi_endproc
.LFE8:
	.size	IR_TxInit, .-IR_TxInit
	.section	.text.IR_TxPulseWidthConfig,"ax",@progbits
	.align	1
	.globl	IR_TxPulseWidthConfig
	.type	IR_TxPulseWidthConfig, @function
IR_TxPulseWidthConfig:
.LVL19:
.LFB9:
.LM69:
	.cfi_startproc
.LM70:
.LM71:
.LM72:
	li	a3,1073782784
	addi	a3,a3,1556
	lw	a4,0(a3)
.LVL20:
.LM73:
.LM74:
	lbu	a5,1(a0)
.LM75:
	andi	a4,a4,-16
.LVL21:
.LM76:
.LM77:
	addi	a5,a5,-1
.LM78:
	or	a5,a5,a4
.LM79:
	lbu	a4,0(a0)
.LVL22:
.LM80:
	andi	a5,a5,-241
.LVL23:
.LM81:
.LM82:
	addi	a4,a4,-1
.LM83:
	slli	a4,a4,4
.LM84:
	or	a4,a4,a5
.LM85:
	li	a5,-4096
.LVL24:
.LM86:
	addi	a5,a5,255
	and	a4,a4,a5
.LVL25:
.LM87:
.LM88:
	lbu	a5,3(a0)
.LM89:
	addi	a5,a5,-1
.LM90:
	slli	a5,a5,8
.LM91:
	or	a5,a5,a4
.LM92:
	li	a4,-61440
.LVL26:
.LM93:
	addi	a4,a4,-1
	and	a5,a5,a4
.LVL27:
.LM94:
.LM95:
	lbu	a4,2(a0)
.LM96:
	addi	a4,a4,-1
.LM97:
	slli	a4,a4,12
.LM98:
	or	a4,a4,a5
.LM99:
	li	a5,-983040
.LVL28:
.LM100:
	addi	a5,a5,-1
	and	a4,a4,a5
.LVL29:
.LM101:
.LM102:
	lbu	a5,5(a0)
.LM103:
	addi	a5,a5,-1
.LM104:
	slli	a5,a5,16
.LM105:
	or	a5,a5,a4
.LM106:
	li	a4,-15728640
.LVL30:
.LM107:
	addi	a4,a4,-1
	and	a5,a5,a4
.LVL31:
.LM108:
.LM109:
	lbu	a4,4(a0)
.LM110:
	addi	a4,a4,-1
.LM111:
	slli	a4,a4,20
.LM112:
	or	a4,a4,a5
.LM113:
	li	a5,-251658240
.LVL32:
.LM114:
	addi	a5,a5,-1
	and	a4,a4,a5
.LVL33:
.LM115:
.LM116:
	lbu	a5,7(a0)
.LM117:
	addi	a5,a5,-1
.LM118:
	slli	a5,a5,24
.LM119:
	or	a5,a5,a4
.LM120:
	lbu	a4,6(a0)
.LVL34:
.LM121:
	slli	a5,a5,4
	srli	a5,a5,4
.LM122:
	addi	a4,a4,-1
.LM123:
	slli	a4,a4,28
.LM124:
	or	a5,a4,a5
.LVL35:
.LM125:
.LM126:
	sw	a5,0(a3)
.LM127:
.LM128:
	li	a3,1073782784
	addi	a3,a3,1552
	lw	a4,0(a3)
.LVL36:
.LM129:
.LM130:
	li	a5,-16711680
	addi	a5,a5,-1
	and	a4,a4,a5
.LVL37:
.LM131:
.LM132:
	lbu	a5,9(a0)
.LM133:
	addi	a5,a5,-1
.LM134:
	slli	a5,a5,16
.LM135:
	or	a5,a5,a4
.LM136:
	lbu	a4,8(a0)
.LVL38:
.LM137:
	slli	a5,a5,8
	srli	a5,a5,8
.LVL39:
.LM138:
.LM139:
	addi	a4,a4,-1
.LM140:
	slli	a4,a4,24
.LM141:
	or	a5,a4,a5
.LVL40:
.LM142:
	li	a4,-4096
	and	a5,a5,a4
.LM143:
	lhu	a4,10(a0)
.LM144:
	li	a0,0
.LVL41:
.LM145:
	addi	a4,a4,-1
.LM146:
	or	a5,a4,a5
.LVL42:
.LM147:
.LM148:
	sw	a5,0(a3)
.LM149:
.LM150:
	ret
	.cfi_endproc
.LFE9:
	.size	IR_TxPulseWidthConfig, .-IR_TxPulseWidthConfig
	.section	.text.IR_TxSWMPulseWidthConfig,"ax",@progbits
	.align	1
	.globl	IR_TxSWMPulseWidthConfig
	.type	IR_TxSWMPulseWidthConfig, @function
IR_TxSWMPulseWidthConfig:
.LVL43:
.LFB10:
.LM151:
	.cfi_startproc
.LM152:
.LM153:
	lw	a4,0(a0)
.LM154:
	li	a5,1073782784
	sw	a4,1600(a5)
.LM155:
.LM156:
	lw	a4,4(a0)
.LM157:
	sw	a4,1604(a5)
.LM158:
.LM159:
	lw	a4,8(a0)
.LM160:
	sw	a4,1608(a5)
.LM161:
.LM162:
	lw	a4,12(a0)
.LM163:
	sw	a4,1612(a5)
.LM164:
.LM165:
	lw	a4,16(a0)
.LM166:
	sw	a4,1616(a5)
.LM167:
.LM168:
	lw	a4,20(a0)
.LM169:
	sw	a4,1620(a5)
.LM170:
.LM171:
	lw	a4,24(a0)
.LM172:
	sw	a4,1624(a5)
.LM173:
.LM174:
	lw	a4,28(a0)
.LM175:
	li	a0,0
.LVL44:
.LM176:
	sw	a4,1628(a5)
.LM177:
.LM178:
	ret
	.cfi_endproc
.LFE10:
	.size	IR_TxSWMPulseWidthConfig, .-IR_TxSWMPulseWidthConfig
	.section	.text.IR_RxInit,"ax",@progbits
	.align	1
	.globl	IR_RxInit
	.type	IR_RxInit, @function
IR_RxInit:
.LVL45:
.LFB11:
.LM179:
	.cfi_startproc
.LM180:
.LM181:
.LM182:
.LM183:
	li	a5,1073782784
.LM184:
	lbu	a4,0(a0)
.LM185:
	lw	a5,1664(a5)
.LVL46:
.LM186:
	li	a3,1
	beq	a4,a3,.L24
	li	a3,2
	beq	a4,a3,.L25
	bne	a4,zero,.L26
.LM187:
.LM188:
	andi	a5,a5,-13
.LVL47:
.LM189:
.L26:
.LM190:
.LM191:
	lbu	a2,1(a0)
	li	a3,1
.LM192:
	andi	a4,a5,-3
.LM193:
	bne	a2,a3,.L28
.LM194:
	ori	a4,a5,2
.L28:
.LVL48:
.LM195:
.LM196:
	lbu	a2,6(a0)
.LM197:
	andi	a5,a4,-17
.LM198:
	bne	a2,a3,.L30
.LM199:
	ori	a5,a4,16
.L30:
.LVL49:
.LM200:
.LM201:
	li	a4,-4096
	addi	a4,a4,255
	and	a4,a5,a4
.LM202:
	lbu	a5,7(a0)
.LVL50:
.LM203:
	slli	a5,a5,8
.LM204:
	or	a5,a5,a4
.LVL51:
.LM205:
.LM206:
	li	a4,1073782784
	sw	a5,1664(a4)
.LM207:
.LM208:
	addi	a3,a4,1672
	lw	a5,0(a3)
.LVL52:
.LM209:
.LM210:
.LM211:
	lhu	a4,2(a0)
.LM212:
	lhu	a5,4(a0)
.LM213:
	li	a0,0
.LVL53:
.LM214:
	addi	a4,a4,-1
.LM215:
	slli	a4,a4,16
.LM216:
	addi	a5,a5,-1
.LM217:
	or	a5,a5,a4
.LVL54:
.LM218:
.LM219:
	sw	a5,0(a3)
.LM220:
.LM221:
	ret
.LVL55:
.L24:
.LM222:
.LM223:
	andi	a5,a5,-13
.LVL56:
.LM224:
	ori	a5,a5,4
.LVL57:
.LM225:
	j	.L26
.L25:
.LM226:
.LM227:
	andi	a5,a5,-13
.LVL58:
.LM228:
	ori	a5,a5,8
.LVL59:
.LM229:
	j	.L26
	.cfi_endproc
.LFE11:
	.size	IR_RxInit, .-IR_RxInit
	.section	.text.IR_DeInit,"ax",@progbits
	.align	1
	.globl	IR_DeInit
	.type	IR_DeInit, @function
IR_DeInit:
.LFB12:
.LM230:
	.cfi_startproc
.LM231:
.LM232:
	addi	sp,sp,-16
	.cfi_def_cfa_offset 16
.LM233:
	li	a0,22
.LM234:
	sw	ra,12(sp)
	.cfi_offset 1, -4
.LM235:
	call	GLB_AHB_Slave1_Reset
.LVL60:
.LM236:
.LM237:
	lw	ra,12(sp)
	.cfi_restore 1
	li	a0,0
	addi	sp,sp,16
	.cfi_def_cfa_offset 0
	jr	ra
	.cfi_endproc
.LFE12:
	.size	IR_DeInit, .-IR_DeInit
	.section	.text.IR_Enable,"ax",@progbits
	.align	1
	.globl	IR_Enable
	.type	IR_Enable, @function
IR_Enable:
.LVL61:
.LFB13:
.LM238:
	.cfi_startproc
.LM239:
.LM240:
.LM241:
.LM242:
	andi	a5,a0,253
	bne	a5,zero,.L34
.LM243:
.LM244:
	li	a5,1073782784
	addi	a5,a5,1536
	lw	a4,0(a5)
.LVL62:
.LM245:
.LM246:
	ori	a4,a4,1
.LVL63:
.LM247:
	sw	a4,0(a5)
.LVL64:
.L34:
.LM248:
.LM249:
	addi	a0,a0,-1
.LVL65:
.LM250:
	andi	a0,a0,0xff
	li	a5,1
	bgtu	a0,a5,.L35
.LBB30:
.LBI30:
.LM251:
.LVL66:
.LBB31:
.LM252:
.LM253:
	li	a5,1073782784
	addi	a5,a5,1664
	lw	a4,0(a5)
.LVL67:
.LM254:
.LM255:
	ori	a4,a4,1
.LVL68:
.LM256:
	sw	a4,0(a5)
.LVL69:
.L35:
.LM257:
.LBE31:
.LBE30:
.LM258:
.LM259:
	li	a0,0
	ret
	.cfi_endproc
.LFE13:
	.size	IR_Enable, .-IR_Enable
	.section	.text.IR_Disable,"ax",@progbits
	.align	1
	.globl	IR_Disable
	.type	IR_Disable, @function
IR_Disable:
.LVL70:
.LFB14:
.LM260:
	.cfi_startproc
.LM261:
.LM262:
.LM263:
.LM264:
	andi	a5,a0,253
	bne	a5,zero,.L37
.LM265:
.LM266:
	li	a5,1073782784
	addi	a5,a5,1536
	lw	a4,0(a5)
.LVL71:
.LM267:
.LM268:
	andi	a4,a4,-2
.LVL72:
.LM269:
	sw	a4,0(a5)
.LVL73:
.L37:
.LM270:
.LM271:
	addi	a0,a0,-1
.LVL74:
.LM272:
	andi	a0,a0,0xff
	li	a5,1
	bgtu	a0,a5,.L40
.LM273:
	addi	sp,sp,-16
	.cfi_def_cfa_offset 16
	sw	ra,12(sp)
	.cfi_offset 1, -4
	call	IR_Disable.part.0
.LVL75:
.LM274:
.LM275:
	lw	ra,12(sp)
	.cfi_restore 1
	li	a0,0
	addi	sp,sp,16
	.cfi_def_cfa_offset 0
	jr	ra
.L40:
.LM276:
.LM277:
	li	a0,0
	ret
	.cfi_endproc
.LFE14:
	.size	IR_Disable, .-IR_Disable
	.section	.text.IR_TxSWM,"ax",@progbits
	.align	1
	.globl	IR_TxSWM
	.type	IR_TxSWM, @function
IR_TxSWM:
.LVL76:
.LFB15:
.LM278:
	.cfi_startproc
.LM279:
.LM280:
.LM281:
	li	a4,1073782784
	addi	a4,a4,1536
	lw	a5,0(a4)
.LVL77:
.LM282:
.LM283:
	li	a3,1
	bne	a0,a3,.L44
.LM284:
.LM285:
	ori	a5,a5,8
.LVL78:
.L46:
.LM286:
	sw	a5,0(a4)
.LM287:
.LM288:
	li	a0,0
.LVL79:
.LM289:
	ret
.LVL80:
.L44:
.LM290:
.LM291:
	andi	a5,a5,-9
.LVL81:
.LM292:
	j	.L46
	.cfi_endproc
.LFE15:
	.size	IR_TxSWM, .-IR_TxSWM
	.section	.text.IR_RxFIFOClear,"ax",@progbits
	.align	1
	.globl	IR_RxFIFOClear
	.type	IR_RxFIFOClear, @function
IR_RxFIFOClear:
.LFB16:
.LM293:
	.cfi_startproc
.LM294:
.LM295:
.LM296:
	li	a5,1073782784
	addi	a5,a5,1728
	lw	a4,0(a5)
.LVL82:
.LM297:
.LM298:
	li	a0,0
.LM299:
	ori	a4,a4,1
.LVL83:
.LM300:
	sw	a4,0(a5)
.LM301:
.LM302:
	ret
	.cfi_endproc
.LFE16:
	.size	IR_RxFIFOClear, .-IR_RxFIFOClear
	.section	.text.IR_SendData,"ax",@progbits
	.align	1
	.globl	IR_SendData
	.type	IR_SendData, @function
IR_SendData:
.LVL84:
.LFB17:
.LM303:
	.cfi_startproc
.LM304:
.LM305:
.LM306:
	li	a5,1073782784
.LM307:
	bne	a0,zero,.L49
.LM308:
.LM309:
	sw	a1,1544(a5)
.L50:
.LM310:
.LM311:
	li	a0,0
.LVL85:
.LM312:
	ret
.LVL86:
.L49:
.LM313:
.LM314:
	sw	a1,1548(a5)
	j	.L50
	.cfi_endproc
.LFE17:
	.size	IR_SendData, .-IR_SendData
	.section	.text.IR_SWMSendData,"ax",@progbits
	.align	1
	.globl	IR_SWMSendData
	.type	IR_SWMSendData, @function
IR_SWMSendData:
.LVL87:
.LFB18:
.LM315:
	.cfi_startproc
.LM316:
.LM317:
.LM318:
	lhu	a4,0(a0)
.LVL88:
.LM319:
.LM320:
.LM321:
.LM322:
	addi	a6,a1,7
.LM323:
	srai	a6,a6,3
.LVL89:
.LM324:
.LM325:
	addi	a3,a0,2
.LM326:
	li	a5,1
.LVL90:
.L52:
.LM327:
	bltu	a5,a1,.L54
.LM328:
.LM329:
	li	a3,1073782784
	addi	a3,a3,1552
	lw	a5,0(a3)
.LVL91:
.LM330:
.LM331:
	li	a2,-4096
.LM332:
	slli	t4,a4,1
.LM333:
	and	a5,a5,a2
.LVL92:
.LM334:
	or	a5,a5,a4
.LM335:
	sw	a5,0(a3)
.LM336:
.LVL93:
.LM337:
	li	a3,1073782784
	addi	a3,a3,1600
	li	a2,0
.LM338:
	addi	t5,a6,-1
.LM339:
	andi	a1,a1,7
.LVL94:
.LM340:
	li	t6,32
.LVL95:
.L55:
.LM341:
	bne	a6,a2,.L60
.LM342:
.LM343:
	li	a0,0
	ret
.LVL96:
.L54:
.LM344:
.LM345:
	lhu	a2,0(a3)
.LM346:
	bgeu	a2,a4,.L53
	beq	a2,zero,.L53
.LM347:
	mv	a4,a2
.LVL97:
.L53:
.LM348:
	addi	a5,a5,1
.LVL98:
.LM349:
	andi	a5,a5,0xff
.LVL99:
.LM350:
	addi	a3,a3,2
	j	.L52
.LVL100:
.L60:
.LM351:
.LM352:
	mv	t3,a0
	li	a7,0
.LM353:
	li	t1,0
.LM354:
	bleu	t5,a2,.L56
.LVL101:
.L57:
.LM355:
.LM356:
.LM357:
	lhu	a5,0(t3)
.LM358:
	addi	t3,t3,2
.LVL102:
.LM359:
	slli	a5,a5,1
.LM360:
	add	a5,a5,a4
.LM361:
	div	a5,a5,t4
.LM362:
	addi	a5,a5,-1
.LM363:
	andi	a5,a5,15
.LM364:
	sll	a5,a5,a7
.LM365:
	addi	a7,a7,4
.LVL103:
.LM366:
	or	t1,t1,a5
.LVL104:
.LM367:
.LM368:
	bne	a7,t6,.L57
.LVL105:
.L69:
.LM369:
.LM370:
	sw	t1,0(a3)
.LM371:
.LVL106:
.LM372:
	addi	a2,a2,1
.LVL107:
.LM373:
	addi	a3,a3,4
	addi	a0,a0,16
	j	.L55
.LVL108:
.L59:
.LM374:
.LM375:
.LM376:
	lhu	a5,0(t3)
.LM377:
	slli	t0,a7,2
	addi	t3,t3,2
.LVL109:
.LM378:
	slli	a5,a5,1
.LM379:
	add	a5,a5,a4
.LM380:
	div	a5,a5,t4
	addi	a7,a7,1
.LVL110:
.LM381:
	addi	a5,a5,-1
.LM382:
	andi	a5,a5,15
.LM383:
	sll	a5,a5,t0
.LM384:
	or	t1,t1,a5
.LVL111:
.LM385:
.L56:
.LM386:
	andi	a5,a7,0xff
	bgtu	a1,a5,.L59
	j	.L69
	.cfi_endproc
.LFE18:
	.size	IR_SWMSendData, .-IR_SWMSendData
	.section	.text.IR_IntMask,"ax",@progbits
	.align	1
	.globl	IR_IntMask
	.type	IR_IntMask, @function
IR_IntMask:
.LVL112:
.LFB22:
.LM387:
	.cfi_startproc
.LM388:
.LM389:
.LM390:
.LM391:
	andi	a5,a0,253
	bne	a5,zero,.L71
.LM392:
.LM393:
	li	a4,1073782784
	addi	a4,a4,1540
	lw	a5,0(a4)
.LVL113:
.LM394:
.LM395:
	slli	a3,a1,8
.LM396:
	andi	a5,a5,-257
.LVL114:
.LM397:
	or	a5,a5,a3
.LM398:
	sw	a5,0(a4)
.LVL115:
.L71:
.LM399:
.LM400:
	addi	a0,a0,-1
.LVL116:
.LM401:
	andi	a0,a0,0xff
	li	a5,1
	bgtu	a0,a5,.L72
.LVL117:
.LBB34:
.LBI34:
.LM402:
.LBB35:
.LM403:
.LM404:
	li	a4,1073782784
	addi	a4,a4,1668
	lw	a5,0(a4)
.LVL118:
.LM405:
.LM406:
	slli	a1,a1,8
.LVL119:
.LM407:
	andi	a5,a5,-257
.LVL120:
.LM408:
	or	a5,a5,a1
.LM409:
	sw	a5,0(a4)
.LVL121:
.L72:
.LM410:
.LBE35:
.LBE34:
.LM411:
.LM412:
	li	a0,0
	ret
	.cfi_endproc
.LFE22:
	.size	IR_IntMask, .-IR_IntMask
	.section	.text.IR_ClrIntStatus,"ax",@progbits
	.align	1
	.globl	IR_ClrIntStatus
	.type	IR_ClrIntStatus, @function
IR_ClrIntStatus:
.LVL122:
.LFB23:
.LM413:
	.cfi_startproc
.LM414:
.LM415:
.LM416:
.LM417:
	andi	a5,a0,253
	bne	a5,zero,.L74
.LM418:
.LM419:
	li	a5,1073782784
	addi	a5,a5,1540
	lw	a4,0(a5)
.LVL123:
.LM420:
.LM421:
	li	a3,65536
	or	a4,a4,a3
.LVL124:
.LM422:
	sw	a4,0(a5)
.LVL125:
.L74:
.LM423:
.LM424:
	addi	a0,a0,-1
.LVL126:
.LM425:
	andi	a0,a0,0xff
	li	a5,1
	bgtu	a0,a5,.L75
.LBB38:
.LBI38:
.LM426:
.LVL127:
.LBB39:
.LM427:
.LM428:
	li	a5,1073782784
	addi	a5,a5,1668
	lw	a4,0(a5)
.LVL128:
.LM429:
.LM430:
	li	a3,65536
	or	a4,a4,a3
.LVL129:
.LM431:
	sw	a4,0(a5)
.LVL130:
.L75:
.LM432:
.LBE39:
.LBE38:
.LM433:
.LM434:
	li	a0,0
	ret
	.cfi_endproc
.LFE23:
	.size	IR_ClrIntStatus, .-IR_ClrIntStatus
	.section	.text.IR_Int_Callback_Install,"ax",@progbits
	.align	1
	.globl	IR_Int_Callback_Install
	.type	IR_Int_Callback_Install, @function
IR_Int_Callback_Install:
.LVL131:
.LFB24:
.LM435:
	.cfi_startproc
.LM436:
.LM437:
.LM438:
.LM439:
	li	a0,0
.LVL132:
.LM440:
	ret
	.cfi_endproc
.LFE24:
	.size	IR_Int_Callback_Install, .-IR_Int_Callback_Install
	.section	.text.IR_GetIntStatus,"ax",@progbits
	.align	1
	.globl	IR_GetIntStatus
	.type	IR_GetIntStatus, @function
IR_GetIntStatus:
.LVL133:
.LFB25:
.LM441:
	.cfi_startproc
.LM442:
.LM443:
.LM444:
.LM445:
	bne	a0,zero,.L78
.LM446:
.LM447:
	li	a5,1073782784
	lw	a5,1540(a5)
.LVL134:
.LM448:
.LM449:
	andi	a5,a5,1
.LVL135:
.L79:
.LM450:
.LM451:
	andi	a5,a5,0xff
.LVL136:
.L80:
.LM452:
	mv	a0,a5
.LVL137:
.LM453:
	ret
.LVL138:
.L78:
.LM454:
.LM455:
	li	a4,1
.LM456:
	li	a5,0
.LM457:
	bne	a0,a4,.L80
.LM458:
.LM459:
	li	a5,1073782784
	lw	a5,1668(a5)
.LVL139:
.LM460:
.LM461:
	and	a5,a5,a0
.LVL140:
.LM462:
	j	.L79
	.cfi_endproc
.LFE25:
	.size	IR_GetIntStatus, .-IR_GetIntStatus
	.section	.text.IR_SendCommand,"ax",@progbits
	.align	1
	.globl	IR_SendCommand
	.type	IR_SendCommand, @function
IR_SendCommand:
.LVL141:
.LFB19:
.LM463:
	.cfi_startproc
.LM464:
.LM465:
.LBB40:
.LBI40:
.LM466:
.LBB41:
.LM467:
.LM468:
.LM469:
.LBE41:
.LBE40:
.LM470:
	addi	sp,sp,-16
	.cfi_def_cfa_offset 16
	sw	ra,12(sp)
.LBB44:
.LBB42:
.LM471:
	li	a5,1073782784
.LBE42:
.LBE44:
.LM472:
	sw	s0,8(sp)
	sw	s1,4(sp)
	.cfi_offset 1, -4
	.cfi_offset 8, -8
	.cfi_offset 9, -12
.LBB45:
.LBB43:
.LM473:
	sw	a0,1548(a5)
.LM474:
.LVL142:
.LM475:
.LBE43:
.LBE45:
.LM476:
.LBB46:
.LBI46:
.LM477:
.LBB47:
.LM478:
.LM479:
.LM480:
.LM481:
	sw	a1,1544(a5)
.LM482:
.LVL143:
.LM483:
.LBE47:
.LBE46:
.LM484:
	li	a0,0
.LVL144:
.LM485:
	li	a1,1
.LVL145:
.LM486:
	call	IR_IntMask
.LVL146:
.LM487:
	li	a0,0
	call	IR_ClrIntStatus
.LVL147:
.LM488:
	li	a0,0
.LM489:
	li	s0,15998976
.LM490:
	call	IR_Enable
.LVL148:
.LM491:
.LM492:
	addi	s0,s0,1024
.LM493:
	li	s1,1
.LVL149:
.L83:
.LM494:
.LM495:
	li	a0,0
	call	IR_GetIntStatus
.LVL150:
.LM496:
	bne	a0,s1,.L85
.LM497:
	li	a0,0
	call	IR_Disable
.LVL151:
.LM498:
.LM499:
	lw	s0,8(sp)
	.cfi_remember_state
	.cfi_restore 8
.LVL152:
.LM500:
	lw	ra,12(sp)
	.cfi_restore 1
	lw	s1,4(sp)
	.cfi_restore 9
.LM501:
	li	a0,0
.LM502:
	addi	sp,sp,16
	.cfi_def_cfa_offset 0
.LM503:
	tail	IR_ClrIntStatus
.LVL153:
.L85:
	.cfi_restore_state
.LM504:
.LM505:
.LM506:
	addi	s0,s0,-1
.LVL154:
.LM507:
	bne	s0,zero,.L83
.LM508:
	li	a0,0
	call	IR_Disable
.LVL155:
.LM509:
.LM510:
	lw	ra,12(sp)
	.cfi_restore 1
	lw	s0,8(sp)
	.cfi_restore 8
.LVL156:
.LM511:
	lw	s1,4(sp)
	.cfi_restore 9
	li	a0,2
	addi	sp,sp,16
	.cfi_def_cfa_offset 0
	jr	ra
	.cfi_endproc
.LFE19:
	.size	IR_SendCommand, .-IR_SendCommand
	.section	.text.IR_SendNEC,"ax",@progbits
	.align	1
	.globl	IR_SendNEC
	.type	IR_SendNEC, @function
IR_SendNEC:
.LVL157:
.LFB21:
.LM512:
	.cfi_startproc
.LM513:
.LM514:
.LM515:
	not	a5,a1
.LM516:
	slli	a5,a5,24
.LM517:
	slli	a1,a1,16
.LVL158:
.LM518:
	add	a1,a5,a1
.LM519:
	xori	a5,a0,255
	slli	a5,a5,8
.LM520:
	add	a1,a1,a5
.LM521:
	addi	sp,sp,-16
	.cfi_def_cfa_offset 16
.LM522:
	add	a1,a1,a0
	li	a0,0
.LVL159:
.LM523:
	sw	ra,12(sp)
	.cfi_offset 1, -4
.LM524:
	call	IR_SendCommand
.LVL160:
.LM525:
.LM526:
	lw	ra,12(sp)
	.cfi_restore 1
	li	a0,0
	addi	sp,sp,16
	.cfi_def_cfa_offset 0
	jr	ra
	.cfi_endproc
.LFE21:
	.size	IR_SendNEC, .-IR_SendNEC
	.section	.text.IR_SWMSendCommand,"ax",@progbits
	.align	1
	.globl	IR_SWMSendCommand
	.type	IR_SWMSendCommand, @function
IR_SWMSendCommand:
.LVL161:
.LFB20:
.LM527:
	.cfi_startproc
.LM528:
.LM529:
.LM530:
	addi	sp,sp,-16
	.cfi_def_cfa_offset 16
	sw	ra,12(sp)
	sw	s0,8(sp)
	sw	s1,4(sp)
	.cfi_offset 1, -4
	.cfi_offset 8, -8
	.cfi_offset 9, -12
.LM531:
	call	IR_SWMSendData
.LVL162:
.LM532:
	li	a1,1
	li	a0,0
	call	IR_IntMask
.LVL163:
.LM533:
	li	a0,0
	call	IR_ClrIntStatus
.LVL164:
.LM534:
	li	a0,0
.LM535:
	li	s0,15998976
.LM536:
	call	IR_Enable
.LVL165:
.LM537:
.LM538:
	addi	s0,s0,1024
.LM539:
	li	s1,1
.LVL166:
.L93:
.LM540:
.LM541:
	li	a0,0
	call	IR_GetIntStatus
.LVL167:
.LM542:
	bne	a0,s1,.L95
.LM543:
	li	a0,0
	call	IR_Disable
.LVL168:
.LM544:
.LM545:
	lw	s0,8(sp)
	.cfi_remember_state
	.cfi_restore 8
.LVL169:
.LM546:
	lw	ra,12(sp)
	.cfi_restore 1
	lw	s1,4(sp)
	.cfi_restore 9
.LM547:
	li	a0,0
.LM548:
	addi	sp,sp,16
	.cfi_def_cfa_offset 0
.LM549:
	tail	IR_ClrIntStatus
.LVL170:
.L95:
	.cfi_restore_state
.LM550:
.LM551:
.LM552:
	addi	s0,s0,-1
.LVL171:
.LM553:
	bne	s0,zero,.L93
.LM554:
	li	a0,0
	call	IR_Disable
.LVL172:
.LM555:
.LM556:
	lw	ra,12(sp)
	.cfi_restore 1
	lw	s0,8(sp)
	.cfi_restore 8
.LVL173:
.LM557:
	lw	s1,4(sp)
	.cfi_restore 9
	li	a0,2
	addi	sp,sp,16
	.cfi_def_cfa_offset 0
	jr	ra
	.cfi_endproc
.LFE20:
	.size	IR_SWMSendCommand, .-IR_SWMSendCommand
	.section	.text.IR_GetRxFIFOStatus,"ax",@progbits
	.align	1
	.globl	IR_GetRxFIFOStatus
	.type	IR_GetRxFIFOStatus, @function
IR_GetRxFIFOStatus:
.LVL174:
.LFB26:
.LM558:
	.cfi_startproc
.LM559:
.LM560:
.LM561:
.LM562:
	li	a5,1073782784
	lw	a5,1728(a5)
.LVL175:
.LM563:
.LM564:
	bne	a0,zero,.L101
.LM565:
.LM566:
	srli	a5,a5,3
.LVL176:
.L103:
.LM567:
	andi	a0,a5,1
.LVL177:
.LM568:
.LM569:
	ret
.LVL178:
.L101:
.LM570:
.LM571:
	srli	a5,a5,2
.LVL179:
.LM572:
	j	.L103
	.cfi_endproc
.LFE26:
	.size	IR_GetRxFIFOStatus, .-IR_GetRxFIFOStatus
	.section	.text.IR_ReceiveData,"ax",@progbits
	.align	1
	.globl	IR_ReceiveData
	.type	IR_ReceiveData, @function
IR_ReceiveData:
.LVL180:
.LFB27:
.LM573:
	.cfi_startproc
.LM574:
.LM575:
.LM576:
.LM577:
	li	a5,1073782784
.LM578:
	bne	a0,zero,.L105
.LM579:
.LM580:
	lw	a0,1684(a5)
.LVL181:
.LM581:
	ret
.LVL182:
.L105:
.LM582:
.LM583:
	lw	a0,1688(a5)
.LVL183:
.LM584:
.LM585:
	ret
	.cfi_endproc
.LFE27:
	.size	IR_ReceiveData, .-IR_ReceiveData
	.section	.text.IR_ReceiveNEC,"ax",@progbits
	.align	1
	.globl	IR_ReceiveNEC
	.type	IR_ReceiveNEC, @function
IR_ReceiveNEC:
.LVL184:
.LFB29:
.LM586:
	.cfi_startproc
.LM587:
.LBB48:
.LBI48:
.LM588:
.LBB49:
.LM589:
.LM590:
.LM591:
.LM592:
.LM593:
	li	a5,1073782784
	lw	a3,1684(a5)
.LM594:
.LVL185:
.LM595:
.LBE49:
.LBE48:
.LM596:
.LM597:
	srli	a5,a3,16
.LM598:
	sb	a3,0(a0)
.LM599:
.LM600:
	andi	a5,a5,0xff
	sb	a5,0(a1)
.LM601:
.LM602:
	lbu	a4,0(a0)
.LM603:
	srli	a2,a3,8
.LM604:
	xor	a4,a4,a2
	not	a4,a4
	andi	a4,a4,255
.LM605:
	bne	a4,zero,.L109
.LM606:
	xori	a0,a5,255
.LVL186:
.LM607:
	srli	a3,a3,24
.LVL187:
.LM608:
	sub	a0,a0,a3
	snez	a0,a0
	ret
.LVL188:
.L109:
.LM609:
	li	a0,1
.LVL189:
.LM610:
	ret
	.cfi_endproc
.LFE29:
	.size	IR_ReceiveNEC, .-IR_ReceiveNEC
	.section	.text.IR_GetRxDataBitCount,"ax",@progbits
	.align	1
	.globl	IR_GetRxDataBitCount
	.type	IR_GetRxDataBitCount, @function
IR_GetRxDataBitCount:
.LFB30:
.LM611:
	.cfi_startproc
.LM612:
.LM613:
.LM614:
	li	a5,1073782784
	lw	a0,1680(a5)
.LVL190:
.LM615:
.LM616:
.LM617:
	andi	a0,a0,127
.LVL191:
.LM618:
	ret
	.cfi_endproc
.LFE30:
	.size	IR_GetRxDataBitCount, .-IR_GetRxDataBitCount
	.section	.text.IR_GetRxFIFOCount,"ax",@progbits
	.align	1
	.globl	IR_GetRxFIFOCount
	.type	IR_GetRxFIFOCount, @function
IR_GetRxFIFOCount:
.LFB31:
.LM619:
	.cfi_startproc
.LM620:
.LM621:
.LM622:
	li	a5,1073782784
	lw	a0,1728(a5)
.LVL192:
.LM623:
.LM624:
	srli	a0,a0,4
.LVL193:
.LM625:
.LM626:
	andi	a0,a0,127
.LVL194:
.LM627:
	ret
	.cfi_endproc
.LFE31:
	.size	IR_GetRxFIFOCount, .-IR_GetRxFIFOCount
	.section	.text.IR_SWMReceiveData,"ax",@progbits
	.align	1
	.globl	IR_SWMReceiveData
	.type	IR_SWMReceiveData, @function
IR_SWMReceiveData:
.LVL195:
.LFB28:
.LM628:
	.cfi_startproc
.LM629:
.LM630:
.LM631:
	addi	sp,sp,-32
	.cfi_def_cfa_offset 32
	sw	s1,20(sp)
	.cfi_offset 9, -12
.LM632:
	li	s1,1073782784
.LM633:
	sw	s0,24(sp)
	sw	s2,16(sp)
	sw	ra,28(sp)
	.cfi_offset 8, -8
	.cfi_offset 18, -16
	.cfi_offset 1, -4
.LM634:
	mv	s2,a0
.LM635:
	li	s0,0
.LM636:
	addi	s1,s1,1732
.LVL196:
.L113:
.LM637:
	beq	s0,a1,.L116
	sw	a1,12(sp)
.LM638:
	call	IR_GetRxFIFOCount
.LVL197:
.LM639:
	lw	a1,12(sp)
	bne	a0,zero,.L115
.L116:
.LM640:
.LM641:
	lw	ra,28(sp)
	.cfi_remember_state
	.cfi_restore 1
.LM642:
	andi	a0,s0,0xff
.LM643:
	lw	s0,24(sp)
	.cfi_restore 8
.LVL198:
.LM644:
	lw	s1,20(sp)
	.cfi_restore 9
	lw	s2,16(sp)
	.cfi_restore 18
.LVL199:
.LM645:
	addi	sp,sp,32
	.cfi_def_cfa_offset 0
	jr	ra
.LVL200:
.L115:
	.cfi_restore_state
.LM646:
.LM647:
	lw	a4,0(s1)
.LVL201:
.LM648:
	slli	a5,s0,1
	add	a5,s2,a5
	sh	a4,0(a5)
	addi	s0,s0,1
.LVL202:
.LM649:
	j	.L113
	.cfi_endproc
.LFE28:
	.size	IR_SWMReceiveData, .-IR_SWMReceiveData
	.section	.text.IR_LearnToInit,"ax",@progbits
	.align	1
	.globl	IR_LearnToInit
	.type	IR_LearnToInit, @function
IR_LearnToInit:
.LVL203:
.LFB32:
.LM650:
	.cfi_startproc
.LM651:
.LM652:
.LM653:
.LM654:
	addi	sp,sp,-32
	.cfi_def_cfa_offset 32
.LM655:
	li	a5,1073782784
.LM656:
	sw	s1,20(sp)
	sw	s2,16(sp)
	sw	s3,12(sp)
	sw	s4,8(sp)
	sw	ra,28(sp)
	sw	s0,24(sp)
	.cfi_offset 9, -12
	.cfi_offset 18, -16
	.cfi_offset 19, -20
	.cfi_offset 20, -24
	.cfi_offset 1, -4
	.cfi_offset 8, -8
.LM657:
	addi	a5,a5,1664
	lw	a4,0(a5)
.LM658:
.LVL204:
.LM659:
.LM660:
	li	a3,1073782784
	addi	a3,a3,1672
.LM661:
	andi	a4,a4,-14
.LVL205:
.LM662:
.LM663:
	ori	a4,a4,10
.LVL206:
.LM664:
.LM665:
	sw	a4,0(a5)
.LM666:
.LM667:
	lw	a4,0(a3)
.LVL207:
.LM668:
.LM669:
	li	a2,1310654464
.LM670:
	li	s1,15998976
.LM671:
	slli	a4,a4,16
.LVL208:
.LM672:
	srli	a4,a4,16
.LM673:
	or	a4,a4,a2
.LM674:
	sw	a4,0(a3)
.LM675:
.LM676:
	li	a4,1073782784
	addi	a4,a4,1668
	lw	a3,0(a4)
.LVL209:
.LM677:
.LM678:
.LM679:
	li	a2,65536
	addi	a2,a2,256
	or	a3,a3,a2
.LVL210:
.LM680:
	sw	a3,0(a4)
.LM681:
.LM682:
	lw	a4,0(a5)
.LVL211:
.LM683:
.LM684:
	mv	s2,a0
	mv	s3,a1
.LM685:
	ori	a4,a4,1
.LVL212:
.LM686:
	sw	a4,0(a5)
.LM687:
.LM688:
	addi	s1,s1,1024
.LM689:
	li	s4,1
.LVL213:
.L120:
.LM690:
.LM691:
	li	a0,1
	call	IR_GetIntStatus
.LVL214:
	mv	s0,a0
.LM692:
	bne	a0,s4,.L122
.LM693:
.LM694:
	li	s1,1073782784
.LVL215:
.LM695:
	addi	s1,s1,1664
	lw	a5,0(s1)
.LVL216:
.LM696:
.LM697:
	li	a3,65536
.LM698:
	andi	a5,a5,-2
.LVL217:
.LM699:
	sw	a5,0(s1)
.LM700:
.LM701:
	li	a5,1073782784
	addi	a5,a5,1668
	lw	a4,0(a5)
.LVL218:
.LM702:
.LM703:
	or	a4,a4,a3
.LVL219:
.LM704:
	sw	a4,0(a5)
.LM705:
.LM706:
	call	IR_GetRxFIFOCount
.LVL220:
	mv	a1,a0
.LM707:
	sb	a0,0(s3)
.LM708:
.LM709:
	mv	a0,s2
	call	IR_SWMReceiveData
.LVL221:
.LM710:
	sb	a0,0(s3)
.LM711:
.LM712:
	lw	a5,0(s2)
.LM713:
	li	a3,-16384
	addi	a3,a3,-617
.LM714:
	slli	a2,a5,16
	srli	a2,a2,16
.LM715:
	add	a3,a2,a3
.LM716:
	li	a1,1998
.LM717:
	srli	a5,a5,16
	li	a4,1198
.LM718:
	bgtu	a3,a1,.L123
.LM719:
	li	a3,-8192
	addi	a3,a3,-209
	add	a3,a5,a3
	bgtu	a3,a4,.L124
.LM720:
	lhu	a5,4(s2)
.LM721:
	addi	a5,a5,-526
	bgtu	a5,a4,.L125
.LM722:
.LM723:
	lw	a5,0(s1)
.LVL222:
.LM724:
.LM725:
	li	a4,1073782784
.LM726:
	andi	a5,a5,-13
.LVL223:
.LM727:
	sw	a5,0(s1)
.LM728:
.LM729:
	li	a5,589762560
	addi	a5,a5,-697
	sw	a5,1672(a4)
.LM730:
.LM731:
	li	a5,126976
	addi	a5,a5,1300
	sw	a5,1536(a4)
.LM732:
.LM733:
	mv	a5,a4
	li	a4,8331264
	sw	a4,1556(a5)
.LM734:
.LM735:
	mv	a4,a5
	li	a5,571539456
	addi	a5,a5,1124
	sw	a5,1552(a4)
.LM736:
.LVL224:
.L126:
.LM737:
	li	s0,0
	j	.L131
.LVL225:
.L122:
.LM738:
.LM739:
.LM740:
	addi	s1,s1,-1
.LVL226:
.LM741:
	bne	s1,zero,.L120
.LM742:
.LVL227:
.LBB50:
.LBI50:
.LM743:
.LBB51:
.LM744:
.LM745:
.LM746:
.LM747:
	call	IR_Disable.part.0
.LVL228:
.LM748:
.LM749:
.LBE51:
.LBE50:
.LM750:
.L121:
.LM751:
	li	s0,2
	j	.L131
.LVL229:
.L123:
.LM752:
.LM753:
	addi	a2,a2,-1176
.LM754:
	bgtu	a2,a4,.L124
.LM755:
	addi	a3,a5,-1176
.LM756:
	bleu	a3,a4,.L127
.LM757:
	addi	a3,a5,-2048
	addi	a3,a3,-908
.LM758:
	bgtu	a3,a4,.L124
.L127:
.LM759:
	lhu	a5,4(s2)
.LM760:
	li	a4,1198
.LM761:
	addi	a3,a5,-1176
.LM762:
	bleu	a3,a4,.L128
.LM763:
	addi	a5,a5,-2048
	addi	a5,a5,-908
.LM764:
	bgtu	a5,a4,.L125
.L128:
.LM765:
.LM766:
	li	a4,1073782784
	addi	a4,a4,1664
	lw	a5,0(a4)
.LVL230:
.LM767:
.LM768:
	andi	a5,a5,-13
.LVL231:
.LM769:
	ori	a5,a5,4
.LM770:
	sw	a5,0(a4)
.LM771:
.LM772:
	li	a5,327618560
	li	a4,1073782784
	addi	a5,a5,-1430
	sw	a5,1672(a4)
.LM773:
.LM774:
	li	a5,49152
	addi	a5,a5,308
	sw	a5,1536(a4)
.LM775:
.LM776:
	li	a5,571539456
.LM777:
	sw	zero,1556(a4)
.LM778:
.LM779:
	addi	a5,a5,1777
	sw	a5,1552(a4)
.LM780:
.LVL232:
.L131:
.LM781:
	lw	ra,28(sp)
	.cfi_remember_state
	.cfi_restore 1
	mv	a0,s0
	lw	s0,24(sp)
	.cfi_restore 8
	lw	s1,20(sp)
	.cfi_restore 9
	lw	s2,16(sp)
	.cfi_restore 18
.LVL233:
.LM782:
	lw	s3,12(sp)
	.cfi_restore 19
.LVL234:
.LM783:
	lw	s4,8(sp)
	.cfi_restore 20
	addi	sp,sp,32
	.cfi_def_cfa_offset 0
	jr	ra
.LVL235:
.L124:
	.cfi_restore_state
.LM784:
.LM785:
	beq	a5,zero,.L130
.L125:
.LM786:
.LM787:
	slli	a0,a0,12
.LM788:
	li	a5,1073782784
.LM789:
	ori	a0,a0,12
.LM790:
	sw	a0,1536(a5)
.LM791:
.LM792:
	li	a4,571539456
	sw	a4,1552(a5)
.LM793:
.LM794:
	j	.L121
.L130:
.LM795:
.LM796:
	li	a5,1073782784
	lw	a5,1664(a5)
.LVL236:
.LM797:
.LM798:
	srli	a5,a5,2
.LVL237:
.LM799:
	andi	a5,a5,3
.LVL238:
.LM800:
.LM801:
	beq	a5,zero,.L126
.LM802:
.LM803:
	li	a4,1
	bne	a5,a4,.L121
	j	.L131
	.cfi_endproc
.LFE32:
	.size	IR_LearnToInit, .-IR_LearnToInit
	.section	.text.IR_LearnToReceive,"ax",@progbits
	.align	1
	.globl	IR_LearnToReceive
	.type	IR_LearnToReceive, @function
IR_LearnToReceive:
.LVL239:
.LFB33:
.LM804:
	.cfi_startproc
.LM805:
.LM806:
.LM807:
.LM808:
.LBB78:
.LBI78:
.LM809:
.LBB79:
.LM810:
.LM811:
.LM812:
.LM813:
.LBE79:
.LBE78:
.LM814:
	addi	sp,sp,-32
	.cfi_def_cfa_offset 32
	sw	s0,24(sp)
	sw	s1,20(sp)
	sw	s2,16(sp)
	sw	s3,12(sp)
	sw	ra,28(sp)
	.cfi_offset 8, -8
	.cfi_offset 9, -12
	.cfi_offset 18, -16
	.cfi_offset 19, -20
	.cfi_offset 1, -4
.LM815:
	mv	s3,a0
	mv	s2,a1
.LBB81:
.LBB80:
	call	IR_Disable.part.0
.LVL240:
.LM816:
.LM817:
.LBE80:
.LBE81:
.LM818:
.LBB82:
.LBI82:
.LM819:
.LBB83:
.LM820:
.LM821:
.LM822:
.LM823:
.LBB84:
.LBI84:
.LM824:
.LBB85:
.LM825:
.LM826:
	li	a5,1073782784
	addi	a5,a5,1668
	lw	a4,0(a5)
.LVL241:
.LM827:
.LM828:
	li	a3,65536
.LBE85:
.LBE84:
.LBE83:
.LBE82:
.LBB89:
.LBB90:
.LBB91:
.LBB92:
.LM829:
	li	s0,15998976
.LBE92:
.LBE91:
.LBE90:
.LBE89:
.LBB99:
.LBB88:
.LBB87:
.LBB86:
.LM830:
	or	a4,a4,a3
.LVL242:
.LM831:
	sw	a4,0(a5)
.LVL243:
.LM832:
.LBE86:
.LBE87:
.LM833:
.LM834:
.LBE88:
.LBE99:
.LM835:
.LBB100:
.LBI100:
.LM836:
.LBB101:
.LM837:
.LM838:
.LM839:
.LM840:
.LBB102:
.LBI102:
.LM841:
.LBB103:
.LM842:
.LM843:
	lw	a4,0(a5)
.LVL244:
.LM844:
.LBE103:
.LBE102:
.LBE101:
.LBE100:
.LBB107:
.LBB97:
.LBB95:
.LBB93:
.LM845:
	addi	s0,s0,1024
.LBE93:
.LBE95:
.LBE97:
.LBE107:
.LM846:
	li	s1,1
.LBB108:
.LBB106:
.LBB105:
.LBB104:
.LM847:
	ori	a4,a4,256
.LVL245:
.LM848:
	sw	a4,0(a5)
.LVL246:
.LM849:
.LBE104:
.LBE105:
.LM850:
.LM851:
.LBE106:
.LBE108:
.LM852:
.LBB109:
.LBI89:
.LM853:
.LBB98:
.LM854:
.LM855:
.LM856:
.LM857:
.LBB96:
.LBI91:
.LM858:
.LBB94:
.LM859:
.LM860:
	li	a5,1073782784
	addi	a5,a5,1664
	lw	a4,0(a5)
.LVL247:
.LM861:
.LM862:
	ori	a4,a4,1
.LVL248:
.LM863:
	sw	a4,0(a5)
.LVL249:
.LM864:
.LBE94:
.LBE96:
.LM865:
.LM866:
.LBE98:
.LBE109:
.LM867:
.L136:
.LM868:
.LM869:
	li	a0,1
	call	IR_GetIntStatus
.LVL250:
.LM870:
	bne	a0,s1,.L138
.LM871:
.LVL251:
.LBB110:
.LBI110:
.LM872:
.LBB111:
.LM873:
.LM874:
.LM875:
.LM876:
	call	IR_Disable.part.0
.LVL252:
.LM877:
.LM878:
.LBE111:
.LBE110:
.LM879:
.LBB112:
.LBI112:
.LM880:
.LBB113:
.LM881:
.LM882:
.LM883:
.LM884:
.LBB114:
.LBI114:
.LM885:
.LBB115:
.LM886:
.LM887:
	li	a5,1073782784
	addi	a5,a5,1668
	lw	a4,0(a5)
.LVL253:
.LM888:
.LM889:
	li	a3,65536
	or	a4,a4,a3
.LVL254:
.LM890:
	sw	a4,0(a5)
.LVL255:
.LM891:
.LBE115:
.LBE114:
.LM892:
.LM893:
.LBE113:
.LBE112:
.LM894:
.LM895:
	bgtu	s3,s1,.L139
.LM896:
.LBB116:
.LBI116:
.LM897:
.LBB117:
.LM898:
.LM899:
.LM900:
	li	a5,1073782784
	lw	a0,1680(a5)
.LVL256:
.LM901:
.LM902:
.LBE117:
.LBE116:
.LBB119:
.LBB120:
.LM903:
	lw	a5,1684(a5)
.LBE120:
.LBE119:
.LBB122:
.LBB118:
.LM904:
	andi	a0,a0,127
.LVL257:
.LM905:
.LBE118:
.LBE122:
.LM906:
.LBB123:
.LBI119:
.LM907:
.LBB121:
.LM908:
.LM909:
.LM910:
.LM911:
.LM912:
.LM913:
.LBE121:
.LBE123:
.LM914:
	sw	a5,0(s2)
	j	.L137
.LVL258:
.L138:
.LM915:
.LM916:
.LM917:
	addi	s0,s0,-1
.LVL259:
.LM918:
	bne	s0,zero,.L136
.LM919:
.LVL260:
.LBB124:
.LBI124:
.LM920:
.LBB125:
.LM921:
.LM922:
.LM923:
.LM924:
	call	IR_Disable.part.0
.LVL261:
.LM925:
.LM926:
.LBE125:
.LBE124:
.LM927:
.LM928:
	li	a0,2
.LVL262:
.L137:
.LM929:
	lw	ra,28(sp)
	.cfi_remember_state
	.cfi_restore 1
	lw	s0,24(sp)
	.cfi_restore 8
.LVL263:
.LM930:
	lw	s1,20(sp)
	.cfi_restore 9
	lw	s2,16(sp)
	.cfi_restore 18
.LVL264:
.LM931:
	lw	s3,12(sp)
	.cfi_restore 19
.LVL265:
.LM932:
	addi	sp,sp,32
	.cfi_def_cfa_offset 0
	jr	ra
.LVL266:
.L139:
	.cfi_restore_state
.LM933:
.LM934:
	call	IR_GetRxFIFOCount
.LVL267:
.LM935:
	lw	s0,24(sp)
	.cfi_restore 8
.LVL268:
.LM936:
	lw	ra,28(sp)
	.cfi_restore 1
	lw	s1,20(sp)
	.cfi_restore 9
	lw	s3,12(sp)
	.cfi_restore 19
.LM937:
	mv	a1,a0
.LVL269:
.LM938:
.LM939:
	mv	a0,s2
.LM940:
	lw	s2,16(sp)
	.cfi_restore 18
.LVL270:
.LM941:
	addi	sp,sp,32
	.cfi_def_cfa_offset 0
.LM942:
	tail	IR_SWMReceiveData
.LVL271:
.LM943:
	.cfi_endproc
.LFE33:
	.size	IR_LearnToReceive, .-IR_LearnToReceive
	.section	.text.IR_LearnToSend,"ax",@progbits
	.align	1
	.globl	IR_LearnToSend
	.type	IR_LearnToSend, @function
IR_LearnToSend:
.LVL272:
.LFB34:
.LM944:
	.cfi_startproc
.LM945:
.LM946:
.LM947:
.LM948:
	addi	sp,sp,-16
	.cfi_def_cfa_offset 16
.LM949:
	li	a4,1073782784
.LM950:
	sw	ra,12(sp)
	.cfi_offset 1, -4
.LM951:
	addi	a4,a4,1536
	lw	a3,0(a4)
.LVL273:
.LM952:
.LM953:
	li	a5,-258048
	addi	a5,a5,-1
	and	a3,a3,a5
.LVL274:
.LM954:
	addi	a5,a2,-1
.LM955:
	slli	a5,a5,12
.LM956:
	or	a5,a5,a3
.LVL275:
.LM957:
.LM958:
	mv	a6,a0
.LM959:
	sw	a5,0(a4)
.LM960:
.LM961:
	li	a5,1
.LVL276:
.LM962:
	mv	a0,a1
.LVL277:
.LM963:
	bgtu	a6,a5,.L143
.LM964:
	lw	a1,0(a1)
.LVL278:
.LM965:
	li	a0,0
.LVL279:
.LM966:
	call	IR_SendCommand
.LVL280:
.L144:
.LM967:
.LM968:
	lw	ra,12(sp)
	.cfi_remember_state
	.cfi_restore 1
	li	a0,0
	addi	sp,sp,16
	.cfi_def_cfa_offset 0
	jr	ra
.LVL281:
.L143:
	.cfi_restore_state
.LM969:
	mv	a1,a2
	call	IR_SWMSendCommand
.LVL282:
.LM970:
	j	.L144
	.cfi_endproc
.LFE34:
	.size	IR_LearnToSend, .-IR_LearnToSend
	.text
.Letext0:
	.section	.note.GNU-stack,"",@progbits
