	.file	"bl602_i2c.c"
	.option nopic
	.attribute arch, "rv32i2p1_m2p0_f2p2_c2p0_zicsr2p0_zmmul1p0_zca1p0_zcf1p0"
	.attribute unaligned_access, 0
	.attribute stack_align, 16
	.text
.Ltext0:
	.cfi_sections	.debug_frame
	.section	.text.I2C_SendWord,"ax",@progbits
	.align	1
	.globl	I2C_SendWord
	.type	I2C_SendWord, @function
I2C_SendWord:
.LVL0:
.LFB8:
.LM1:
	.cfi_startproc
.LM2:
.LM3:
.LM4:
.LM5:
	li	a5,1073782784
	sw	a1,904(a5)
.LM6:
	ret
	.cfi_endproc
.LFE8:
	.size	I2C_SendWord, .-I2C_SendWord
	.section	.text.I2C_RecieveWord,"ax",@progbits
	.align	1
	.globl	I2C_RecieveWord
	.type	I2C_RecieveWord, @function
I2C_RecieveWord:
.LVL1:
.LFB9:
.LM7:
	.cfi_startproc
.LM8:
.LM9:
.LM10:
.LM11:
	li	a5,1073782784
	lw	a0,908(a5)
.LVL2:
.LM12:
	ret
	.cfi_endproc
.LFE9:
	.size	I2C_RecieveWord, .-I2C_RecieveWord
	.section	.text.I2C_Enable,"ax",@progbits
	.align	1
	.globl	I2C_Enable
	.type	I2C_Enable, @function
I2C_Enable:
.LVL3:
.LFB10:
.LM13:
	.cfi_startproc
.LM14:
.LM15:
.LM16:
.LM17:
.LM18:
	li	a5,1073782784
	addi	a5,a5,896
	lw	a4,0(a5)
.LM19:
.LVL4:
.LM20:
.LM21:
	ori	a4,a4,12
.LVL5:
.LM22:
.LM23:
	sw	a4,0(a5)
.LM24:
.LM25:
	li	a5,1073782784
	addi	a5,a5,768
	lw	a4,0(a5)
.LVL6:
.LM26:
.LM27:
	ori	a4,a4,1
.LVL7:
.LM28:
.LM29:
	sw	a4,0(a5)
.LM30:
	ret
	.cfi_endproc
.LFE10:
	.size	I2C_Enable, .-I2C_Enable
	.section	.text.I2C_Disable,"ax",@progbits
	.align	1
	.globl	I2C_Disable
	.type	I2C_Disable, @function
I2C_Disable:
.LVL8:
.LFB11:
.LM31:
	.cfi_startproc
.LM32:
.LM33:
.LM34:
.LM35:
.LM36:
	li	a5,1073782784
	addi	a5,a5,768
	lw	a4,0(a5)
.LVL9:
.LM37:
.LM38:
	li	a3,1638400
.LM39:
	andi	a4,a4,-2
.LVL10:
.LM40:
.LM41:
	sw	a4,0(a5)
.LM42:
.LM43:
	li	a5,1073782784
	addi	a5,a5,896
	lw	a4,0(a5)
.LVL11:
.LM44:
.LM45:
.LM46:
	ori	a4,a4,12
.LVL12:
.LM47:
.LM48:
	sw	a4,0(a5)
.LM49:
.LM50:
	li	a5,1073782784
	addi	a5,a5,772
	lw	a4,0(a5)
.LVL13:
.LM51:
.LM52:
.LM53:
.LM54:
	or	a4,a4,a3
.LVL14:
.LM55:
.LM56:
	sw	a4,0(a5)
.LM57:
	ret
	.cfi_endproc
.LFE11:
	.size	I2C_Disable, .-I2C_Disable
	.section	.text.I2C_Reset,"ax",@progbits
	.align	1
	.globl	I2C_Reset
	.type	I2C_Reset, @function
I2C_Reset:
.LVL15:
.LFB12:
.LM58:
	.cfi_startproc
.LM59:
.LM60:
.LM61:
	addi	sp,sp,-16
	.cfi_def_cfa_offset 16
.LM62:
	li	a0,19
.LVL16:
.LM63:
	sw	ra,12(sp)
	.cfi_offset 1, -4
.LM64:
	call	GLB_AHB_Slave1_Reset
.LVL17:
.LM65:
.LM66:
	lw	ra,12(sp)
	.cfi_restore 1
	li	a0,0
	addi	sp,sp,16
	.cfi_def_cfa_offset 0
	jr	ra
	.cfi_endproc
.LFE12:
	.size	I2C_Reset, .-I2C_Reset
	.section	.text.I2C_Init,"ax",@progbits
	.align	1
	.globl	I2C_Init
	.type	I2C_Init, @function
I2C_Init:
.LVL18:
.LFB13:
.LM67:
	.cfi_startproc
.LM68:
.LM69:
.LM70:
.LM71:
.LM72:
	li	a5,1073782784
	lw	a4,768(a5)
.LVL19:
.LM73:
.LM74:
	ori	a5,a4,2
.LM75:
	bne	a1,zero,.L9
.LM76:
.LM77:
	andi	a5,a4,-3
.L9:
.LVL20:
.LM78:
.LM79:
	li	a4,-32768
	addi	a4,a4,255
	and	a5,a5,a4
.LVL21:
.LM80:
	lbu	a4,0(a2)
.LM81:
	slli	a4,a4,8
.LM82:
	or	a4,a4,a5
.LVL22:
.LM83:
.LM84:
	lbu	a5,2(a2)
.LM85:
	andi	a3,a4,-17
.LM86:
	beq	a5,zero,.L11
.LM87:
.LVL23:
.LM88:
.LM89:
	addi	a5,a5,-1
.LM90:
	slli	a5,a5,5
	andi	a4,a4,-97
.LVL24:
.LM91:
	or	a5,a5,a4
.LM92:
	ori	a3,a5,16
.LVL25:
.L11:
.LM93:
.LM94:
	li	a5,-16711680
	addi	a5,a5,-1
	and	a3,a3,a5
.LVL26:
.LM95:
	lhu	a5,8(a2)
.LM96:
	li	a4,1073782784
.LM97:
	addi	a5,a5,-1
.LM98:
	slli	a5,a5,16
.LM99:
	or	a5,a5,a3
.LVL27:
.LM100:
.LM101:
	sw	a5,768(a4)
.LM102:
.LM103:
	lw	a4,4(a2)
.LM104:
	li	a5,1073782784
.LVL28:
.LM105:
	sw	a4,776(a5)
.LVL29:
.LM106:
	ret
	.cfi_endproc
.LFE13:
	.size	I2C_Init, .-I2C_Init
	.section	.text.I2C_SetPrd,"ax",@progbits
	.align	1
	.globl	I2C_SetPrd
	.type	I2C_SetPrd, @function
I2C_SetPrd:
.LVL30:
.LFB14:
.LM107:
	.cfi_startproc
.LM108:
.LM109:
.LM110:
.LM111:
.LM112:
	li	t1,1073782784
	lw	a5,784(t1)
.LVL31:
.LM113:
.LM114:
	li	a7,-65536
	addi	a7,a7,255
.LM115:
	andi	a5,a5,-256
.LVL32:
.LM116:
.LM117:
	or	a5,a5,a1
.LVL33:
.LM118:
	slli	a3,a1,8
.LM119:
	and	a5,a5,a7
.LVL34:
.LM120:
.LM121:
	li	a6,-16711680
	addi	a6,a6,-1
.LM122:
	or	a5,a5,a3
.LVL35:
.LM123:
	slli	a4,a1,16
.LM124:
	and	a5,a5,a6
.LVL36:
.LM125:
.LM126:
	li	a0,16777216
.LVL37:
.LM127:
	addi	a0,a0,-1
.LM128:
	or	a5,a5,a4
.LVL38:
.LM129:
	slli	a2,a1,24
.LM130:
	and	a5,a5,a0
.LVL39:
.LM131:
	or	a5,a5,a2
.LVL40:
.LM132:
.LM133:
	sw	a5,784(t1)
.LM134:
.LM135:
	li	t1,1073782784
	lw	a5,788(t1)
.LVL41:
.LM136:
.LM137:
	andi	a5,a5,-256
.LVL42:
.LM138:
.LM139:
	or	a5,a1,a5
.LVL43:
.LM140:
	and	a5,a5,a7
.LVL44:
.LM141:
.LM142:
	or	a5,a3,a5
.LVL45:
.LM143:
	and	a5,a5,a6
.LVL46:
.LM144:
.LM145:
	or	a5,a4,a5
.LVL47:
.LM146:
	and	a5,a5,a0
.LVL48:
.LM147:
	or	a5,a2,a5
.LVL49:
.LM148:
.LM149:
	sw	a5,788(t1)
.LM150:
.LM151:
	li	a5,1073782784
.LVL50:
.LM152:
	addi	a5,a5,792
	lw	t1,0(a5)
.LVL51:
.LM153:
.LM154:
	andi	t1,t1,-256
.LVL52:
.LM155:
.LM156:
	or	a1,a1,t1
.LVL53:
.LM157:
	and	a1,a1,a7
.LVL54:
.LM158:
.LM159:
	or	a3,a3,a1
.LVL55:
.LM160:
	and	a3,a3,a6
.LVL56:
.LM161:
.LM162:
	or	a4,a4,a3
.LVL57:
.LM163:
	and	a4,a4,a0
.LVL58:
.LM164:
	or	a2,a2,a4
.LVL59:
.LM165:
.LM166:
	sw	a2,0(a5)
.LM167:
	ret
	.cfi_endproc
.LFE14:
	.size	I2C_SetPrd, .-I2C_SetPrd
	.section	.text.I2C_ClockSet,"ax",@progbits
	.align	1
	.globl	I2C_ClockSet
	.type	I2C_ClockSet, @function
I2C_ClockSet:
.LVL60:
.LFB15:
.LM168:
	.cfi_startproc
.LM169:
.LM170:
.LM171:
.LM172:
	addi	sp,sp,-48
	.cfi_def_cfa_offset 48
	sw	s0,40(sp)
	sw	s1,36(sp)
	sw	s3,28(sp)
	sw	a1,12(sp)
	sw	ra,44(sp)
	sw	s2,32(sp)
	.cfi_offset 8, -8
	.cfi_offset 9, -12
	.cfi_offset 19, -20
	.cfi_offset 1, -4
	.cfi_offset 18, -16
.LM173:
	mv	s3,a0
.LM174:
	call	GLB_Get_BCLK_Div
.LVL61:
.LM175:
.LM176:
	lw	a1,12(sp)
.LM177:
	li	a5,98304
	addi	a5,a5,1695
.LM178:
	addi	s1,a0,1
.LM179:
	slli	s0,a1,2
.LM180:
	bleu	a1,a5,.L15
.LM181:
	li	a1,0
	li	a0,1
.LVL62:
.LM182:
	call	GLB_Set_I2C_CLK
.LVL63:
.LM183:
.LM184:
	li	a5,1073803264
	lw	a1,264(a5)
.LM185:
	divu	a1,a1,s1
.L19:
.LM186:
	lw	ra,44(sp)
	.cfi_remember_state
	.cfi_restore 1
	lw	s1,36(sp)
	.cfi_restore 9
.LVL64:
.LM187:
	lw	s2,32(sp)
	.cfi_restore 18
.LM188:
	mv	a0,s3
.LM189:
	lw	s3,28(sp)
	.cfi_restore 19
.LVL65:
.LM190:
	divu	a1,a1,s0
.LM191:
	lw	s0,40(sp)
	.cfi_restore 8
	addi	sp,sp,48
	.cfi_def_cfa_offset 0
.LVL66:
.LM192:
	addi	a1,a1,-1
	andi	a1,a1,0xff
	tail	I2C_SetPrd
.LVL67:
.L15:
	.cfi_restore_state
.LM193:
.LM194:
	li	a5,8192
	addi	a5,a5,-193
	bleu	a1,a5,.L16
.LM195:
	li	a1,9
	li	a0,1
.LVL68:
.LM196:
	call	GLB_Set_I2C_CLK
.LVL69:
.LM197:
.LM198:
	li	a5,1073803264
	lw	a1,264(a5)
.LM199:
	li	a5,10
.LM200:
	divu	a1,a1,s1
.L20:
.LM201:
	divu	a1,a1,a5
	j	.L19
.LVL70:
.L16:
.LM202:
	li	s2,1073803264
.LM203:
	li	a5,799
	addi	s2,s2,264
	bleu	a1,a5,.L17
.LM204:
	li	a1,99
	li	a0,1
.LVL71:
.LM205:
	call	GLB_Set_I2C_CLK
.LVL72:
.LM206:
.LM207:
	lw	a1,0(s2)
.LM208:
	li	a5,100
.LM209:
	divu	a1,a1,s1
	j	.L20
.LVL73:
.L17:
.LM210:
	li	a1,255
	li	a0,1
.LVL74:
.LM211:
	call	GLB_Set_I2C_CLK
.LVL75:
.LM212:
.LM213:
	lw	a1,0(s2)
.LM214:
	divu	a1,a1,s1
.LM215:
	srli	a1,a1,8
	j	.L19
	.cfi_endproc
.LFE15:
	.size	I2C_ClockSet, .-I2C_ClockSet
	.section	.text.I2C_SetSclSync,"ax",@progbits
	.align	1
	.globl	I2C_SetSclSync
	.type	I2C_SetSclSync, @function
I2C_SetSclSync:
.LVL76:
.LFB16:
.LM216:
	.cfi_startproc
.LM217:
.LM218:
.LM219:
.LM220:
.LM221:
	li	a5,1073782784
	addi	a5,a5,768
	lw	a3,0(a5)
.LVL77:
.LM222:
.LM223:
	andi	a4,a3,-9
.LM224:
	beq	a1,zero,.L23
.LM225:
.LM226:
	ori	a4,a3,8
.L23:
.LVL78:
.LM227:
.LM228:
	sw	a4,0(a5)
.LM229:
	ret
	.cfi_endproc
.LFE16:
	.size	I2C_SetSclSync, .-I2C_SetSclSync
	.section	.text.I2C_IsBusy,"ax",@progbits
	.align	1
	.globl	I2C_IsBusy
	.type	I2C_IsBusy, @function
I2C_IsBusy:
.LVL79:
.LFB17:
.LM230:
	.cfi_startproc
.LM231:
.LM232:
.LM233:
.LM234:
.LM235:
	li	a5,1073782784
	lw	a0,780(a5)
.LVL80:
.LM236:
.LM237:
	andi	a0,a0,1
.LVL81:
.LM238:
	ret
	.cfi_endproc
.LFE17:
	.size	I2C_IsBusy, .-I2C_IsBusy
	.section	.text.I2C_TransferEndStatus,"ax",@progbits
	.align	1
	.globl	I2C_TransferEndStatus
	.type	I2C_TransferEndStatus, @function
I2C_TransferEndStatus:
.LVL82:
.LFB18:
.LM239:
	.cfi_startproc
.LM240:
.LM241:
.LM242:
.LM243:
.LM244:
	li	a5,1073782784
	lw	a0,772(a5)
.LVL83:
.LM245:
.LM246:
	andi	a0,a0,1
.LVL84:
.LM247:
	ret
	.cfi_endproc
.LFE18:
	.size	I2C_TransferEndStatus, .-I2C_TransferEndStatus
	.section	.text.I2C_MasterSendBlocking,"ax",@progbits
	.align	1
	.globl	I2C_MasterSendBlocking
	.type	I2C_MasterSendBlocking, @function
I2C_MasterSendBlocking:
.LVL85:
.LFB19:
.LM248:
	.cfi_startproc
.LM249:
.LM250:
.LM251:
.LM252:
.LM253:
.LM254:
.LM255:
	addi	sp,sp,-32
	.cfi_def_cfa_offset 32
	sw	ra,28(sp)
	sw	s0,24(sp)
	.cfi_offset 1, -4
	.cfi_offset 8, -8
.LM256:
	sw	a0,12(sp)
	mv	s0,a1
.LM257:
	call	I2C_Disable
.LVL86:
.LM258:
	lw	a0,12(sp)
	mv	a2,s0
	li	a1,0
	call	I2C_Init
.LVL87:
.LM259:
	lw	a0,12(sp)
	call	I2C_Enable
.LVL88:
.LM260:
.LM261:
	lw	a0,12(sp)
.LM262:
	li	a2,1073782784
.LM263:
	li	a1,1073782784
.LM264:
	li	a4,0
.LM265:
	li	a5,0
.LM266:
	addi	a2,a2,900
.LM267:
	addi	a1,a1,904
.LVL89:
.L28:
.LM268:
.LM269:
	lhu	a3,8(s0)
.LM270:
	bltu	a5,a3,.L33
.LM271:
.LM272:
	andi	a3,a3,3
	bne	a3,zero,.L41
.LVL90:
.L35:
.LM273:
	li	a5,319488
.LBB10:
.LBB11:
.LM274:
	li	a2,1073782784
.LBE11:
.LBE10:
.LBB14:
.LBB15:
.LM275:
	li	a3,1073782784
.LBE15:
.LBE14:
	addi	a5,a5,512
.LBB18:
.LBB12:
.LM276:
	addi	a2,a2,780
.LBE12:
.LBE18:
.LBB19:
.LBB16:
.LM277:
	addi	a3,a3,772
	j	.L38
.LVL91:
.L33:
.LM278:
.LBE16:
.LBE19:
.LM279:
.LM280:
	lw	a3,12(s0)
.LM281:
	andi	a6,a5,3
.LM282:
	slli	a6,a6,3
.LM283:
	add	a3,a3,a5
	lbu	a3,0(a3)
.LM284:
	addi	a5,a5,1
.LVL92:
.LM285:
	sll	a3,a3,a6
.LM286:
	add	a4,a4,a3
.LVL93:
.LM287:
.LM288:
	andi	a3,a5,3
	bne	a3,zero,.L30
	li	a3,319488
	addi	a3,a3,512
.L29:
.LVL94:
.LM289:
.LM290:
	lw	a6,0(a2)
.LM291:
	andi	a6,a6,3
.LM292:
	beq	a6,zero,.L32
.LM293:
.LM294:
	sw	a4,0(a1)
.LM295:
.LVL95:
.LM296:
	li	a4,0
.LVL96:
.L30:
.LM297:
	andi	a5,a5,0xff
	j	.L28
.LVL97:
.L32:
.LM298:
.LM299:
.LM300:
	addi	a3,a3,-1
.LVL98:
.LM301:
	bne	a3,zero,.L29
.LVL99:
.L36:
.LM302:
	call	I2C_Disable
.LVL100:
.LM303:
.LM304:
	li	s0,2
.L31:
.LM305:
	lw	ra,28(sp)
	.cfi_remember_state
	.cfi_restore 1
	mv	a0,s0
	lw	s0,24(sp)
	.cfi_restore 8
	addi	sp,sp,32
	.cfi_def_cfa_offset 0
	jr	ra
.LVL101:
.L37:
	.cfi_restore_state
.LM306:
.LM307:
.LM308:
	addi	a5,a5,-1
.LVL102:
.LM309:
	beq	a5,zero,.L36
.LVL103:
.L34:
.LM310:
.LM311:
	lw	a3,0(a2)
.LM312:
	andi	a3,a3,3
.LM313:
	beq	a3,zero,.L37
.LM314:
.LM315:
	li	a5,1073782784
.LVL104:
.LM316:
	sw	a4,904(a5)
	j	.L35
.LVL105:
.L41:
.LM317:
	li	a5,319488
.LVL106:
.LM318:
	li	a2,1073782784
	addi	a5,a5,512
	addi	a2,a2,900
	j	.L34
.LVL107:
.L39:
.LM319:
.LM320:
.LM321:
	addi	a5,a5,-1
.LVL108:
.LM322:
	beq	a5,zero,.L36
.LVL109:
.L38:
.LM323:
.LBB20:
.LBI10:
.LM324:
.LBB13:
.LM325:
.LM326:
.LM327:
.LM328:
.LM329:
	lw	s0,0(a2)
.LVL110:
.LM330:
.LM331:
	andi	s0,s0,1
.LVL111:
.LM332:
.LBE13:
.LBE20:
.LM333:
	bne	s0,zero,.L39
.LVL112:
.LBB21:
.LBI14:
.LM334:
.LBB17:
.LM335:
.LM336:
.LM337:
.LM338:
.LM339:
	lw	a4,0(a3)
.LVL113:
.LM340:
.LM341:
.LBE17:
.LBE21:
.LM342:
	andi	a4,a4,1
	beq	a4,zero,.L39
.LM343:
	call	I2C_Disable
.LVL114:
.LM344:
.LM345:
	j	.L31
	.cfi_endproc
.LFE19:
	.size	I2C_MasterSendBlocking, .-I2C_MasterSendBlocking
	.section	.text.I2C_MasterReceiveBlocking,"ax",@progbits
	.align	1
	.globl	I2C_MasterReceiveBlocking
	.type	I2C_MasterReceiveBlocking, @function
I2C_MasterReceiveBlocking:
.LVL115:
.LFB20:
.LM346:
	.cfi_startproc
.LM347:
.LM348:
.LM349:
.LM350:
.LM351:
.LM352:
.LM353:
	addi	sp,sp,-32
	.cfi_def_cfa_offset 32
	sw	ra,28(sp)
	sw	s0,24(sp)
	.cfi_offset 1, -4
	.cfi_offset 8, -8
.LM354:
	sw	a0,12(sp)
	mv	s0,a1
.LM355:
	call	I2C_Disable
.LVL116:
.LM356:
	lw	a0,12(sp)
	mv	a2,s0
	li	a1,1
	call	I2C_Init
.LVL117:
.LM357:
	lw	a0,12(sp)
	call	I2C_Enable
.LVL118:
.LM358:
.LM359:
	lw	a0,12(sp)
.LM360:
	li	a3,1073782784
.LM361:
	li	a2,1073782784
.LM362:
	li	a5,0
.LM363:
	li	a6,3
.LM364:
	addi	a3,a3,900
.LM365:
	addi	a2,a2,908
.LVL119:
.L54:
.LM366:
.LM367:
	lhu	a4,8(s0)
.LM368:
	sub	a1,a4,a5
.LM369:
	bgt	a1,a6,.L66
.LM370:
.LM371:
	bgtu	a4,a5,.L67
.L59:
.LM372:
	li	a5,319488
.LVL120:
.LBB22:
.LBB23:
.LM373:
	li	a2,1073782784
.LBE23:
.LBE22:
.LBB26:
.LBB27:
.LM374:
	li	a3,1073782784
.LBE27:
.LBE26:
	addi	a5,a5,512
.LBB30:
.LBB24:
.LM375:
	addi	a2,a2,780
.LBE24:
.LBE30:
.LBB31:
.LBB28:
.LM376:
	addi	a3,a3,772
	j	.L64
.LVL121:
.L57:
.LM377:
.LBE28:
.LBE31:
.LM378:
.LM379:
.LM380:
	addi	a4,a4,-1
.LVL122:
.LM381:
	bne	a4,zero,.L55
.LVL123:
.L60:
.LM382:
	call	I2C_Disable
.LVL124:
.LM383:
.LM384:
	li	s0,2
.L56:
.LM385:
	lw	ra,28(sp)
	.cfi_remember_state
	.cfi_restore 1
	mv	a0,s0
	lw	s0,24(sp)
	.cfi_restore 8
	addi	sp,sp,32
	.cfi_def_cfa_offset 0
.LVL125:
.LM386:
	jr	ra
.LVL126:
.L66:
	.cfi_restore_state
.LM387:
	li	a4,319488
	addi	a4,a4,512
.L55:
.LVL127:
.LM388:
.LM389:
	lw	a1,0(a3)
.LM390:
	andi	a1,a1,768
	beq	a1,zero,.L57
.LM391:
.LM392:
	lw	a1,12(s0)
.LM393:
	lw	a4,0(a2)
.LVL128:
.LM394:
.LM395:
	add	a1,a1,a5
.LM396:
	sb	a4,0(a1)
.LM397:
.LM398:
	lw	a1,12(s0)
.LM399:
	srli	a7,a4,8
.LM400:
	add	a1,a1,a5
.LM401:
	sb	a7,1(a1)
.LM402:
.LM403:
	lw	a1,12(s0)
.LM404:
	srli	a7,a4,16
.LM405:
	srli	a4,a4,24
.LVL129:
.LM406:
	add	a1,a1,a5
.LM407:
	sb	a7,2(a1)
.LM408:
.LM409:
	lw	a1,12(s0)
	add	a1,a1,a5
.LM410:
	addi	a5,a5,4
.LVL130:
.LM411:
	sb	a4,3(a1)
.LM412:
.LM413:
.LM414:
	andi	a5,a5,0xff
.LVL131:
.LM415:
	j	.L54
.LVL132:
.L61:
.LM416:
.LM417:
.LM418:
	addi	a4,a4,-1
.LVL133:
.LM419:
	beq	a4,zero,.L60
.LVL134:
.L58:
.LM420:
.LM421:
	lw	a3,0(a2)
.LM422:
	andi	a3,a3,768
	beq	a3,zero,.L61
.LM423:
.LM424:
	li	a4,1073782784
.LVL135:
.LM425:
	lw	a4,908(a4)
.LVL136:
.LM426:
.L62:
.LM427:
	lhu	a3,8(s0)
	bleu	a3,a5,.L59
.LM428:
.LM429:
	lw	a3,12(s0)
	add	a3,a3,a5
.LM430:
	addi	a5,a5,1
.LVL137:
.LM431:
	sb	a4,0(a3)
.LM432:
.LM433:
	andi	a5,a5,0xff
.LVL138:
.LM434:
	srli	a4,a4,8
.LVL139:
.LM435:
	j	.L62
.LVL140:
.L67:
.LM436:
	li	a4,319488
.LM437:
	li	a2,1073782784
	addi	a4,a4,512
	addi	a2,a2,900
	j	.L58
.LVL141:
.L65:
.LM438:
.LM439:
.LM440:
	addi	a5,a5,-1
.LVL142:
.LM441:
	beq	a5,zero,.L60
.LVL143:
.L64:
.LM442:
.LBB32:
.LBI22:
.LM443:
.LBB25:
.LM444:
.LM445:
.LM446:
.LM447:
.LM448:
	lw	s0,0(a2)
.LVL144:
.LM449:
.LM450:
	andi	s0,s0,1
.LVL145:
.LM451:
.LBE25:
.LBE32:
.LM452:
	bne	s0,zero,.L65
.LVL146:
.LBB33:
.LBI26:
.LM453:
.LBB29:
.LM454:
.LM455:
.LM456:
.LM457:
.LM458:
	lw	a4,0(a3)
.LVL147:
.LM459:
.LM460:
.LBE29:
.LBE33:
.LM461:
	andi	a4,a4,1
	beq	a4,zero,.L65
.LM462:
	call	I2C_Disable
.LVL148:
.LM463:
.LM464:
	j	.L56
	.cfi_endproc
.LFE20:
	.size	I2C_MasterReceiveBlocking, .-I2C_MasterReceiveBlocking
	.section	.text.I2C_IntMask,"ax",@progbits
	.align	1
	.globl	I2C_IntMask
	.type	I2C_IntMask, @function
I2C_IntMask:
.LVL149:
.LFB21:
.LM465:
	.cfi_startproc
.LM466:
.LM467:
.LM468:
.LM469:
.LM470:
.LM471:
.LM472:
	li	a5,1073782784
	lw	a5,772(a5)
.LVL150:
.LM473:
	li	a4,6
	bgtu	a1,a4,.L80
	lui	a4,%hi(.L82)
	addi	a4,a4,%lo(.L82)
	slli	a1,a1,2
.LVL151:
.LM474:
	add	a1,a1,a4
	lw	a4,0(a1)
	jr	a4
	.section	.rodata.I2C_IntMask,"a",@progbits
	.align	2
	.align	2
.L82:
	.word	.L88
	.word	.L87
	.word	.L86
	.word	.L85
	.word	.L84
	.word	.L83
	.word	.L81
	.section	.text.I2C_IntMask
.L88:
.LM475:
.LM476:
	bne	a2,zero,.L89
.LM477:
.LVL152:
.LM478:
	andi	a5,a5,-257
.LVL153:
.LM479:
	li	a4,16777216
.LVL154:
.L96:
.LM480:
	or	a5,a4,a5
	j	.L80
.LVL155:
.L89:
.LM481:
.LM482:
	li	a4,-16777216
	addi	a4,a4,-1
	and	a5,a5,a4
.LVL156:
.LM483:
.LM484:
	ori	a5,a5,256
.LVL157:
.L80:
.LM485:
.LM486:
	li	a4,1073782784
	sw	a5,772(a4)
.LM487:
	ret
.L87:
.LM488:
.LM489:
	bne	a2,zero,.L90
.LM490:
.LVL158:
.LM491:
	andi	a5,a5,-513
.LVL159:
.LM492:
	li	a4,33554432
	j	.L96
.LVL160:
.L90:
.LM493:
.LM494:
	li	a4,-33554432
	addi	a4,a4,-1
	and	a5,a5,a4
.LVL161:
.LM495:
.LM496:
	ori	a5,a5,512
.LVL162:
.LM497:
	j	.L80
.L86:
.LM498:
.LM499:
	bne	a2,zero,.L91
.LM500:
.LVL163:
.LM501:
	andi	a5,a5,-1025
.LVL164:
.LM502:
	li	a4,67108864
	j	.L96
.LVL165:
.L91:
.LM503:
.LM504:
	li	a4,-67108864
	addi	a4,a4,-1
	and	a5,a5,a4
.LVL166:
.LM505:
.LM506:
	ori	a5,a5,1024
.LVL167:
.LM507:
	j	.L80
.L85:
.LM508:
.LM509:
	bne	a2,zero,.L92
.LM510:
.LVL168:
.LM511:
	li	a4,-4096
	addi	a4,a4,2047
	and	a4,a5,a4
.LM512:
	li	a5,134217728
.LVL169:
.LM513:
	j	.L96
.LVL170:
.L92:
.LM514:
.LM515:
	li	a4,-134217728
	addi	a4,a4,-1
	and	a4,a5,a4
.LVL171:
.LM516:
.LM517:
	li	a5,4096
	addi	a5,a5,-2048
	j	.L96
.LVL172:
.L84:
.LM518:
.LM519:
	bne	a2,zero,.L93
.LM520:
.LVL173:
.LM521:
	li	a4,-4096
	addi	a4,a4,-1
	and	a4,a5,a4
.LM522:
	li	a5,268435456
.LVL174:
.LM523:
	j	.L96
.LVL175:
.L93:
.LM524:
.LM525:
	li	a4,-268435456
	addi	a4,a4,-1
	and	a4,a5,a4
.LVL176:
.LM526:
.LM527:
	li	a5,4096
	j	.L96
.LVL177:
.L83:
.LM528:
.LM529:
	bne	a2,zero,.L94
.LM530:
.LVL178:
.LM531:
	li	a4,-8192
	addi	a4,a4,-1
	and	a4,a5,a4
.LM532:
	li	a5,536870912
.LVL179:
.LM533:
	j	.L96
.LVL180:
.L94:
.LM534:
.LM535:
	li	a4,-536870912
	addi	a4,a4,-1
	and	a4,a5,a4
.LVL181:
.LM536:
.LM537:
	li	a5,8192
	j	.L96
.LVL182:
.L81:
.LM538:
.LM539:
	bne	a2,zero,.L95
.LM540:
.LM541:
.LM542:
.LM543:
.LM544:
.LM545:
.LM546:
.LM547:
.LM548:
.LM549:
.LM550:
.LVL183:
.LM551:
	li	a4,-16384
	addi	a4,a4,255
	and	a4,a5,a4
.LM552:
	li	a5,1056964608
.LVL184:
.LM553:
	j	.L96
.LVL185:
.L95:
.LM554:
.LM555:
.LM556:
.LM557:
.LM558:
.LM559:
.LM560:
	li	a4,-1056964608
	addi	a4,a4,-1
	and	a4,a5,a4
.LM561:
.LM562:
.LM563:
.LM564:
.LM565:
.LVL186:
.LM566:
.LM567:
	li	a5,16384
	addi	a5,a5,-256
	j	.L96
	.cfi_endproc
.LFE21:
	.size	I2C_IntMask, .-I2C_IntMask
	.globl	i2cIntCbfArra
	.section	.bss.i2cIntCbfArra,"aw",@nobits
	.align	2
	.type	i2cIntCbfArra, @object
	.size	i2cIntCbfArra, 24
i2cIntCbfArra:
	.zero	24
	.text
.Letext0:
	.section	.note.GNU-stack,"",@progbits
