	.file	"looprt_test_cli.c"
	.option nopic
	.attribute arch, "rv32i2p1_m2p0_f2p2_c2p0_zicsr2p0_zmmul1p0_zca1p0_zcf1p0"
	.attribute unaligned_access, 0
	.attribute stack_align, 16
	.text
.Ltext0:
	.cfi_sections	.debug_frame
	.section	.rodata.cmd_looprt_test.str1.4,"aMS",@progbits,1
	.align	2
.LC0:
	.string	"====== looprt test ======\r\n"
	.align	2
.LC1:
	.string	"struct loop_ctx size is %d\r\n"
	.align	2
.LC2:
	.string	"MSG size is %d\r\n"
	.section	.text.cmd_looprt_test,"ax",@progbits
	.align	1
	.globl	cmd_looprt_test
	.type	cmd_looprt_test, @function
cmd_looprt_test:
.LVL0:
.LFB23:
.LM1:
	.cfi_startproc
.LM2:
	lui	a0,%hi(.LC0)
.LVL1:
.LM3:
	addi	sp,sp,-16
	.cfi_def_cfa_offset 16
.LM4:
	addi	a0,a0,%lo(.LC0)
.LM5:
	sw	ra,12(sp)
	.cfi_offset 1, -4
.LM6:
	call	puts
.LVL2:
.LM7:
.LBB4:
.LBI4:
.LM8:
.LBB5:
.LM9:
	lui	a0,%hi(.LC1)
	li	a1,1184
	addi	a0,a0,%lo(.LC1)
	call	printf
.LVL3:
.LM10:
	lui	a0,%hi(.LC2)
	li	a1,24
	addi	a0,a0,%lo(.LC2)
	call	printf
.LVL4:
.LBE5:
.LBE4:
.LM11:
.LM12:
	lw	ra,12(sp)
	.cfi_restore 1
	addi	sp,sp,16
	.cfi_def_cfa_offset 0
.LM13:
	tail	looprt_start_auto
.LVL5:
	.cfi_endproc
.LFE23:
	.size	cmd_looprt_test, .-cmd_looprt_test
	.section	.rodata.cmd_looprt_test_status.str1.4,"aMS",@progbits,1
	.align	2
.LC3:
	.string	"====== looprt test status ======\r\n"
	.section	.text.cmd_looprt_test_status,"ax",@progbits
	.align	1
	.globl	cmd_looprt_test_status
	.type	cmd_looprt_test_status, @function
cmd_looprt_test_status:
.LVL6:
.LFB24:
.LM14:
	.cfi_startproc
.LM15:
	lui	a0,%hi(.LC3)
.LVL7:
.LM16:
	addi	sp,sp,-16
	.cfi_def_cfa_offset 16
.LM17:
	addi	a0,a0,%lo(.LC3)
.LM18:
	sw	ra,12(sp)
	.cfi_offset 1, -4
.LM19:
	call	puts
.LVL8:
.LM20:
.LM21:
	lw	ra,12(sp)
	.cfi_restore 1
	addi	sp,sp,16
	.cfi_def_cfa_offset 0
.LM22:
	tail	looprt_evt_status_dump
.LVL9:
	.cfi_endproc
.LFE24:
	.size	cmd_looprt_test_status, .-cmd_looprt_test_status
	.section	.rodata.cmd_looprt_test_evt.str1.4,"aMS",@progbits,1
	.align	2
.LC4:
	.string	"====== looprt EVT ======\r\n"
	.section	.text.cmd_looprt_test_evt,"ax",@progbits
	.align	1
	.globl	cmd_looprt_test_evt
	.type	cmd_looprt_test_evt, @function
cmd_looprt_test_evt:
.LVL10:
.LFB25:
.LM23:
	.cfi_startproc
.LM24:
	lui	a0,%hi(.LC4)
.LVL11:
.LM25:
	addi	sp,sp,-16
	.cfi_def_cfa_offset 16
.LM26:
	addi	a0,a0,%lo(.LC4)
.LM27:
	sw	ra,12(sp)
	.cfi_offset 1, -4
.LM28:
	call	puts
.LVL12:
.LM29:
.LM30:
	lw	ra,12(sp)
	.cfi_restore 1
.LM31:
	li	a1,0
.LM32:
.LM33:
	li	a0,31
.LM34:
	addi	sp,sp,16
	.cfi_def_cfa_offset 0
.LM35:
	tail	looprt_evt_notify_async
.LVL13:
	.cfi_endproc
.LFE25:
	.size	cmd_looprt_test_evt, .-cmd_looprt_test_evt
	.section	.rodata.cmd_looprt_test_evt_dump.str1.4,"aMS",@progbits,1
	.align	2
.LC5:
	.string	"====== looprt EVT status ======\r\n"
	.section	.text.cmd_looprt_test_evt_dump,"ax",@progbits
	.align	1
	.globl	cmd_looprt_test_evt_dump
	.type	cmd_looprt_test_evt_dump, @function
cmd_looprt_test_evt_dump:
.LVL14:
.LFB26:
.LM36:
	.cfi_startproc
.LM37:
	lui	a0,%hi(.LC5)
.LVL15:
.LM38:
	addi	sp,sp,-16
	.cfi_def_cfa_offset 16
.LM39:
	addi	a0,a0,%lo(.LC5)
.LM40:
	sw	ra,12(sp)
	.cfi_offset 1, -4
.LM41:
	call	puts
.LVL16:
.LM42:
.LM43:
	lw	ra,12(sp)
	.cfi_restore 1
.LM44:
	li	a1,1
.LM45:
.LM46:
	li	a0,31
.LM47:
	addi	sp,sp,16
	.cfi_def_cfa_offset 0
.LM48:
	tail	looprt_evt_notify_async
.LVL17:
	.cfi_endproc
.LFE26:
	.size	cmd_looprt_test_evt_dump, .-cmd_looprt_test_evt_dump
	.section	.rodata.cmd_looprt_test_schedule_evt1.str1.4,"aMS",@progbits,1
	.align	2
.LC6:
	.string	"====== looprt Schedule EVT1 ======\r\n"
	.section	.text.cmd_looprt_test_schedule_evt1,"ax",@progbits
	.align	1
	.globl	cmd_looprt_test_schedule_evt1
	.type	cmd_looprt_test_schedule_evt1, @function
cmd_looprt_test_schedule_evt1:
.LVL18:
.LFB27:
.LM49:
	.cfi_startproc
.LM50:
	lui	a0,%hi(.LC6)
.LVL19:
.LM51:
	addi	sp,sp,-16
	.cfi_def_cfa_offset 16
.LM52:
	addi	a0,a0,%lo(.LC6)
.LM53:
	sw	ra,12(sp)
	.cfi_offset 1, -4
.LM54:
	call	puts
.LVL20:
.LM55:
.LM56:
	lw	ra,12(sp)
	.cfi_restore 1
.LM57:
	li	a2,20480
.LM58:
.LM59:
	addi	a2,a2,-480
	li	a1,1
	li	a0,31
.LM60:
	addi	sp,sp,16
	.cfi_def_cfa_offset 0
.LM61:
	tail	looprt_evt_schedule
.LVL21:
	.cfi_endproc
.LFE27:
	.size	cmd_looprt_test_schedule_evt1, .-cmd_looprt_test_schedule_evt1
	.section	.rodata.cmd_looprt_test_schedule_evt2.str1.4,"aMS",@progbits,1
	.align	2
.LC7:
	.string	"====== looprt Schedule EVT2 ======\r\n"
	.section	.text.cmd_looprt_test_schedule_evt2,"ax",@progbits
	.align	1
	.globl	cmd_looprt_test_schedule_evt2
	.type	cmd_looprt_test_schedule_evt2, @function
cmd_looprt_test_schedule_evt2:
.LVL22:
.LFB28:
.LM62:
	.cfi_startproc
.LM63:
	lui	a0,%hi(.LC7)
.LVL23:
.LM64:
	addi	sp,sp,-16
	.cfi_def_cfa_offset 16
.LM65:
	addi	a0,a0,%lo(.LC7)
.LM66:
	sw	ra,12(sp)
	.cfi_offset 1, -4
.LM67:
	call	puts
.LVL24:
.LM68:
.LM69:
	lw	ra,12(sp)
	.cfi_restore 1
.LM70:
	li	a2,8192
.LM71:
.LM72:
	addi	a2,a2,1808
	li	a1,1
	li	a0,31
.LM73:
	addi	sp,sp,16
	.cfi_def_cfa_offset 0
.LM74:
	tail	looprt_evt_schedule
.LVL25:
	.cfi_endproc
.LFE28:
	.size	cmd_looprt_test_schedule_evt2, .-cmd_looprt_test_schedule_evt2
	.section	.text.looprt_test_cli_init,"ax",@progbits
	.align	1
	.globl	looprt_test_cli_init
	.type	looprt_test_cli_init, @function
looprt_test_cli_init:
.LFB29:
.LM75:
	.cfi_startproc
.LM76:
.LM77:
	li	a0,0
	ret
	.cfi_endproc
.LFE29:
	.size	looprt_test_cli_init, .-looprt_test_cli_init
	.section	.rodata.str1.4,"aMS",@progbits,1
	.align	2
.LC8:
	.string	"looprt"
	.align	2
.LC9:
	.string	"looprt based on bloop"
	.align	2
.LC10:
	.string	"looprt_status"
	.align	2
.LC11:
	.string	"looprt_evt"
	.align	2
.LC12:
	.string	"looprt notify event"
	.align	2
.LC13:
	.string	"looprt_evt_status"
	.align	2
.LC14:
	.string	"looprt evt to dump"
	.align	2
.LC15:
	.string	"looprt_schedule1"
	.align	2
.LC16:
	.string	"looprt schedule evt 20s"
	.align	2
.LC17:
	.string	"looprt_schedule2"
	.align	2
.LC18:
	.string	"looprt schedule evt 10s"
	.section	.static_cli_cmds,"a"
	.align	2
	.type	cmds_user, @object
	.size	cmds_user, 72
cmds_user:
	.word	.LC8
	.word	.LC9
	.word	cmd_looprt_test
	.word	.LC10
	.word	.LC9
	.word	cmd_looprt_test_status
	.word	.LC11
	.word	.LC12
	.word	cmd_looprt_test_evt
	.word	.LC13
	.word	.LC14
	.word	cmd_looprt_test_evt_dump
	.word	.LC15
	.word	.LC16
	.word	cmd_looprt_test_schedule_evt1
	.word	.LC17
	.word	.LC18
	.word	cmd_looprt_test_schedule_evt2
	.text
.Letext0:
	.section	.note.GNU-stack,"",@progbits
