	.file	"bflb_ecdsa.c"
	.option nopic
	.attribute arch, "rv32i2p1_m2p0_f2p2_c2p0_zicsr2p0_zmmul1p0_zca1p0_zcf1p0"
	.attribute unaligned_access, 0
	.attribute stack_align, 16
	.text
.Ltext0:
	.cfi_sections	.debug_frame
	.section	.text.bflb_ecc_basic_parameter_init,"ax",@progbits
	.align	1
	.globl	bflb_ecc_basic_parameter_init
	.type	bflb_ecc_basic_parameter_init, @function
bflb_ecc_basic_parameter_init:
.LVL0:
.LFB8:
.LM1:
	.cfi_startproc
.LM2:
	lui	a2,%hi(secp256r1N)
.LM3:
	addi	sp,sp,-16
	.cfi_def_cfa_offset 16
.LM4:
	li	a4,0
	li	a3,8
	addi	a2,a2,%lo(secp256r1N)
	li	a1,0
	li	a0,3
.LVL1:
.LM5:
	sw	ra,12(sp)
	.cfi_offset 1, -4
.LM6:
	call	Sec_Eng_PKA_Write_Data
.LVL2:
.LM7:
	lui	a2,%hi(secp256r1PrimeN_N)
	li	a4,0
	li	a3,8
	addi	a2,a2,%lo(secp256r1PrimeN_N)
	li	a1,1
	li	a0,3
	call	Sec_Eng_PKA_Write_Data
.LVL3:
.LM8:
	lui	a2,%hi(secp256r1InvR_N)
	li	a0,3
	li	a4,0
	li	a3,8
	addi	a2,a2,%lo(secp256r1InvR_N)
	li	a1,2
	call	Sec_Eng_PKA_Write_Data
.LVL4:
.LM9:
.LM10:
	lw	ra,12(sp)
	.cfi_restore 1
	li	a0,0
	addi	sp,sp,16
	.cfi_def_cfa_offset 0
	jr	ra
	.cfi_endproc
.LFE8:
	.size	bflb_ecc_basic_parameter_init, .-bflb_ecc_basic_parameter_init
	.section	.text.bflb_ecc_point_mul_init,"ax",@progbits
	.align	1
	.globl	bflb_ecc_point_mul_init
	.type	bflb_ecc_point_mul_init, @function
bflb_ecc_point_mul_init:
.LVL5:
.LFB9:
.LM11:
	.cfi_startproc
.LM12:
	lui	a2,%hi(secp256r1P)
.LM13:
	addi	sp,sp,-16
	.cfi_def_cfa_offset 16
.LM14:
	li	a4,0
	li	a3,8
	addi	a2,a2,%lo(secp256r1P)
	li	a1,0
	li	a0,3
.LVL6:
.LM15:
	sw	ra,12(sp)
	.cfi_offset 1, -4
.LM16:
	call	Sec_Eng_PKA_Write_Data
.LVL7:
.LM17:
	lui	a2,%hi(secp256r1PrimeN_P)
	li	a4,0
	li	a3,8
	addi	a2,a2,%lo(secp256r1PrimeN_P)
	li	a1,1
	li	a0,3
	call	Sec_Eng_PKA_Write_Data
.LVL8:
.LM18:
	li	a3,8
	lui	a2,%hi(secp256r1_1)
	mv	a1,a3
	li	a4,0
	addi	a2,a2,%lo(secp256r1_1)
	li	a0,3
	call	Sec_Eng_PKA_Write_Data
.LVL9:
.LM19:
	lui	a2,%hi(secp256r1_BAR2)
	li	a4,0
	li	a3,8
	addi	a2,a2,%lo(secp256r1_BAR2)
	li	a1,9
	li	a0,3
	call	Sec_Eng_PKA_Write_Data
.LVL10:
.LM20:
	lui	a2,%hi(secp256r1_BAR3)
	li	a4,0
	li	a3,8
	addi	a2,a2,%lo(secp256r1_BAR3)
	li	a1,10
	li	a0,3
	call	Sec_Eng_PKA_Write_Data
.LVL11:
.LM21:
	lui	a2,%hi(secp256r1_BAR4)
	li	a4,0
	li	a3,8
	addi	a2,a2,%lo(secp256r1_BAR4)
	li	a1,11
	li	a0,3
	call	Sec_Eng_PKA_Write_Data
.LVL12:
.LM22:
	lui	a2,%hi(secp256r1_BAR8)
	li	a4,0
	li	a3,8
	addi	a2,a2,%lo(secp256r1_BAR8)
	li	a1,12
	li	a0,3
	call	Sec_Eng_PKA_Write_Data
.LVL13:
.LM23:
	lui	a2,%hi(secp256r1_1P1)
	li	a4,0
	li	a3,8
	addi	a2,a2,%lo(secp256r1_1P1)
	li	a1,19
	li	a0,3
	call	Sec_Eng_PKA_Write_Data
.LVL14:
.LM24:
	lui	a2,%hi(secp256r1_1M1)
	li	a0,3
	li	a4,0
	li	a3,8
	addi	a2,a2,%lo(secp256r1_1M1)
	li	a1,20
	call	Sec_Eng_PKA_Write_Data
.LVL15:
.LM25:
.LM26:
	lw	ra,12(sp)
	.cfi_restore 1
	li	a0,0
	addi	sp,sp,16
	.cfi_def_cfa_offset 0
	jr	ra
	.cfi_endproc
.LFE9:
	.size	bflb_ecc_point_mul_init, .-bflb_ecc_point_mul_init
	.section	.text.bflb_ecdsa_point_add_inf_check,"ax",@progbits
	.align	1
	.globl	bflb_ecdsa_point_add_inf_check
	.type	bflb_ecdsa_point_add_inf_check, @function
bflb_ecdsa_point_add_inf_check:
.LVL16:
.LFB10:
.LM27:
	.cfi_startproc
.LM28:
.LM29:
.LM30:
	addi	sp,sp,-32
	.cfi_def_cfa_offset 32
.LM31:
	li	a3,3
.LM32:
	sw	s0,24(sp)
	sw	s1,20(sp)
	.cfi_offset 8, -8
	.cfi_offset 9, -12
	mv	s0,a0
	mv	s1,a1
.LM33:
	addi	a0,sp,12
.LVL17:
.LM34:
	mv	a1,a3
.LVL18:
.LM35:
	li	a4,8
	li	a2,2
.LM36:
	sw	ra,28(sp)
	.cfi_offset 1, -4
.LM37:
	call	Sec_Eng_PKA_LCMP
.LVL19:
.LM38:
	li	a3,3
	mv	a2,a3
	mv	a1,a3
	addi	a0,sp,13
	li	a4,19
	call	Sec_Eng_PKA_LCMP
.LVL20:
.LM39:
	li	a4,3
	mv	a3,a4
	mv	a1,a4
	addi	a0,sp,14
	li	a2,20
	call	Sec_Eng_PKA_LCMP
.LVL21:
.LM40:
	li	a3,3
	mv	a1,a3
	addi	a0,sp,15
	li	a4,8
	li	a2,4
	call	Sec_Eng_PKA_LCMP
.LVL22:
.LM41:
.LM42:
	lbu	a4,13(sp)
	lbu	a5,12(sp)
.LM43:
	li	a3,3
	mv	a1,a3
.LM44:
	and	a5,a5,a4
	lbu	a4,14(sp)
.LM45:
	addi	a0,sp,12
	li	a2,5
.LM46:
	and	a5,a5,a4
	lbu	a4,15(sp)
	and	a5,a5,a4
	sb	a5,0(s0)
.LM47:
	li	a4,8
	call	Sec_Eng_PKA_LCMP
.LVL23:
.LM48:
	li	a3,3
	mv	a1,a3
	addi	a0,sp,13
	li	a4,19
	li	a2,6
	call	Sec_Eng_PKA_LCMP
.LVL24:
.LM49:
	li	a3,3
	mv	a1,a3
	addi	a0,sp,14
	li	a4,6
	li	a2,20
	call	Sec_Eng_PKA_LCMP
.LVL25:
.LM50:
	li	a3,3
	li	a4,8
	addi	a0,sp,15
	li	a2,7
	mv	a1,a3
	call	Sec_Eng_PKA_LCMP
.LVL26:
.LM51:
.LM52:
	lbu	a4,13(sp)
	lbu	a5,12(sp)
	and	a5,a5,a4
	lbu	a4,14(sp)
	and	a5,a5,a4
	lbu	a4,15(sp)
	and	a5,a5,a4
	sb	a5,0(s1)
.LM53:
	lw	ra,28(sp)
	.cfi_restore 1
	lw	s0,24(sp)
	.cfi_restore 8
.LVL27:
.LM54:
	lw	s1,20(sp)
	.cfi_restore 9
.LVL28:
.LM55:
	addi	sp,sp,32
	.cfi_def_cfa_offset 0
	jr	ra
	.cfi_endproc
.LFE10:
	.size	bflb_ecdsa_point_add_inf_check, .-bflb_ecdsa_point_add_inf_check
	.section	.text.bflb_ecdsa_copy_x2_to_x1,"ax",@progbits
	.align	1
	.globl	bflb_ecdsa_copy_x2_to_x1
	.type	bflb_ecdsa_copy_x2_to_x1, @function
bflb_ecdsa_copy_x2_to_x1:
.LVL29:
.LFB11:
.LM56:
	.cfi_startproc
.LM57:
	li	a2,3
.LM58:
	addi	sp,sp,-16
	.cfi_def_cfa_offset 16
.LM59:
	mv	a0,a2
.LVL30:
.LM60:
	li	a4,0
	li	a3,5
	li	a1,2
.LM61:
	sw	ra,12(sp)
	.cfi_offset 1, -4
.LM62:
	call	Sec_Eng_PKA_Move_Data
.LVL31:
.LM63:
	li	a2,3
	mv	a1,a2
	mv	a0,a2
	li	a4,0
	li	a3,6
	call	Sec_Eng_PKA_Move_Data
.LVL32:
.LM64:
.LM65:
	lw	ra,12(sp)
	.cfi_restore 1
.LM66:
	li	a2,3
.LM67:
.LM68:
	li	a4,1
	li	a3,7
	li	a1,4
	mv	a0,a2
.LM69:
	addi	sp,sp,16
	.cfi_def_cfa_offset 0
.LM70:
	tail	Sec_Eng_PKA_Move_Data
.LVL33:
	.cfi_endproc
.LFE11:
	.size	bflb_ecdsa_copy_x2_to_x1, .-bflb_ecdsa_copy_x2_to_x1
	.section	.text.bflb_ecdsa_point_add,"ax",@progbits
	.align	1
	.globl	bflb_ecdsa_point_add
	.type	bflb_ecdsa_point_add, @function
bflb_ecdsa_point_add:
.LVL34:
.LFB12:
.LM71:
	.cfi_startproc
.LM72:
.LM73:
	addi	sp,sp,-32
	.cfi_def_cfa_offset 32
.LM74:
	li	a6,3
	mv	a4,a6
	mv	a2,a6
	mv	a0,a6
.LVL35:
.LM75:
	sw	zero,0(sp)
	li	a7,0
	li	a5,4
	li	a3,6
	li	a1,13
.LM76:
	sw	ra,28(sp)
	.cfi_offset 1, -4
.LM77:
	call	Sec_Eng_PKA_MMUL
.LVL36:
.LM78:
	li	a6,3
	mv	a4,a6
	mv	a3,a6
	mv	a2,a6
	mv	a0,a6
	sw	zero,0(sp)
	li	a7,0
	li	a5,7
	li	a1,14
	call	Sec_Eng_PKA_MMUL
.LVL37:
.LM79:
	li	a6,3
	mv	a4,a6
	mv	a2,a6
	mv	a0,a6
	sw	zero,0(sp)
	li	a7,0
	li	a5,4
	li	a3,5
	li	a1,15
	call	Sec_Eng_PKA_MMUL
.LVL38:
.LM80:
	li	a6,3
	mv	a4,a6
	mv	a2,a6
	mv	a0,a6
	sw	zero,0(sp)
	li	a7,0
	li	a5,7
	li	a3,2
	li	a1,16
	call	Sec_Eng_PKA_MMUL
.LVL39:
.LM81:
	li	a6,3
	li	a3,13
	mv	a4,a6
	mv	a2,a6
	mv	a1,a3
	mv	a0,a6
	sw	zero,0(sp)
	li	a7,0
	li	a5,14
	call	Sec_Eng_PKA_MSUB
.LVL40:
.LM82:
	li	a6,3
	li	a3,15
	mv	a4,a6
	mv	a2,a6
	mv	a1,a3
	mv	a0,a6
	sw	zero,0(sp)
	li	a7,0
	li	a5,16
	call	Sec_Eng_PKA_MSUB
.LVL41:
.LM83:
	li	a6,3
	mv	a4,a6
	mv	a2,a6
	mv	a0,a6
	sw	zero,0(sp)
	li	a7,0
	li	a5,7
	li	a3,4
	li	a1,2
	call	Sec_Eng_PKA_MMUL
.LVL42:
.LM84:
	li	a6,3
	li	a5,15
	mv	a4,a6
	mv	a3,a5
	mv	a2,a6
	mv	a1,a6
	mv	a0,a6
	sw	zero,0(sp)
	li	a7,0
	call	Sec_Eng_PKA_MMUL
.LVL43:
.LM85:
	li	a6,3
	mv	a4,a6
	mv	a3,a6
	mv	a2,a6
	mv	a0,a6
	sw	zero,0(sp)
	li	a7,0
	li	a5,15
	li	a1,4
	call	Sec_Eng_PKA_MMUL
.LVL44:
.LM86:
	li	a6,3
	li	a5,13
	mv	a4,a6
	mv	a3,a5
	mv	a2,a6
	mv	a0,a6
	sw	zero,0(sp)
	li	a7,0
	li	a1,17
	call	Sec_Eng_PKA_MMUL
.LVL45:
.LM87:
	li	a6,3
	li	a3,17
	mv	a4,a6
	mv	a2,a6
	mv	a1,a3
	mv	a0,a6
	sw	zero,0(sp)
	li	a7,0
	li	a5,2
	call	Sec_Eng_PKA_MMUL
.LVL46:
.LM88:
	li	a6,3
	li	a3,17
	mv	a4,a6
	mv	a2,a6
	mv	a1,a3
	mv	a0,a6
	sw	zero,0(sp)
	li	a7,0
	li	a5,4
	call	Sec_Eng_PKA_MSUB
.LVL47:
.LM89:
	li	a6,3
	mv	a5,a6
	mv	a4,a6
	mv	a2,a6
	mv	a0,a6
	sw	zero,0(sp)
	li	a7,0
	li	a3,9
	li	a1,18
	call	Sec_Eng_PKA_MMUL
.LVL48:
.LM90:
	li	a6,3
	li	a3,18
	mv	a4,a6
	mv	a2,a6
	mv	a1,a3
	mv	a0,a6
	sw	zero,0(sp)
	li	a7,0
	li	a5,16
	call	Sec_Eng_PKA_MMUL
.LVL49:
.LM91:
	li	a6,3
	li	a5,18
	mv	a4,a6
	mv	a2,a6
	mv	a1,a5
	mv	a0,a6
	sw	zero,0(sp)
	li	a7,0
	li	a3,17
	call	Sec_Eng_PKA_MSUB
.LVL50:
.LM92:
	li	a6,3
	mv	a4,a6
	mv	a3,a6
	mv	a2,a6
	mv	a1,a6
	mv	a0,a6
	sw	zero,0(sp)
	li	a7,0
	li	a5,16
	call	Sec_Eng_PKA_MMUL
.LVL51:
.LM93:
	li	a6,3
	li	a5,14
	mv	a4,a6
	mv	a2,a6
	mv	a1,a5
	mv	a0,a6
	sw	zero,0(sp)
	li	a7,0
	li	a3,4
	call	Sec_Eng_PKA_MMUL
.LVL52:
.LM94:
	li	a6,3
	li	a3,4
	mv	a4,a6
	mv	a2,a6
	mv	a1,a3
	mv	a0,a6
	sw	zero,0(sp)
	li	a7,0
	li	a5,2
	call	Sec_Eng_PKA_MMUL
.LVL53:
.LM95:
	li	a6,3
	mv	a4,a6
	mv	a2,a6
	mv	a0,a6
	sw	zero,0(sp)
	li	a7,0
	li	a5,18
	li	a3,15
	li	a1,2
	call	Sec_Eng_PKA_MMUL
.LVL54:
.LM96:
	li	a6,3
	mv	a4,a6
	mv	a3,a6
	mv	a2,a6
	mv	a1,a6
	mv	a0,a6
	sw	zero,0(sp)
	li	a7,0
	li	a5,18
	call	Sec_Eng_PKA_MSUB
.LVL55:
.LM97:
	li	a6,3
	mv	a5,a6
	mv	a4,a6
	mv	a2,a6
	mv	a1,a6
	mv	a0,a6
	sw	zero,0(sp)
	li	a7,0
	li	a3,13
	call	Sec_Eng_PKA_MMUL
.LVL56:
.LM98:
	li	a6,3
	li	a5,1
	sw	a5,0(sp)
	li	a7,0
	li	a5,14
	mv	a4,a6
	mv	a3,a6
	mv	a2,a6
	mv	a1,a6
	mv	a0,a6
	call	Sec_Eng_PKA_MSUB
.LVL57:
.LM99:
	lw	ra,28(sp)
	.cfi_restore 1
	addi	sp,sp,32
	.cfi_def_cfa_offset 0
	jr	ra
	.cfi_endproc
.LFE12:
	.size	bflb_ecdsa_point_add, .-bflb_ecdsa_point_add
	.section	.text.bflb_ecdsa_point_double,"ax",@progbits
	.align	1
	.globl	bflb_ecdsa_point_double
	.type	bflb_ecdsa_point_double, @function
bflb_ecdsa_point_double:
.LVL58:
.LFB13:
.LM100:
	.cfi_startproc
.LM101:
.LM102:
	addi	sp,sp,-32
	.cfi_def_cfa_offset 32
.LM103:
	li	a6,3
	li	a5,5
	mv	a4,a6
	mv	a3,a5
	mv	a2,a6
	mv	a0,a6
.LVL59:
.LM104:
	sw	zero,0(sp)
	li	a7,0
	li	a1,13
.LM105:
	sw	ra,28(sp)
	.cfi_offset 1, -4
.LM106:
	call	Sec_Eng_PKA_MMUL
.LVL60:
.LM107:
	li	a6,3
	li	a5,7
	mv	a4,a6
	mv	a3,a5
	mv	a2,a6
	mv	a0,a6
	sw	zero,0(sp)
	li	a7,0
	li	a1,14
	call	Sec_Eng_PKA_MMUL
.LVL61:
.LM108:
	li	a6,3
	li	a3,13
	mv	a4,a6
	mv	a2,a6
	mv	a1,a3
	mv	a0,a6
	sw	zero,0(sp)
	li	a7,0
	li	a5,14
	call	Sec_Eng_PKA_MSUB
.LVL62:
.LM109:
	li	a6,3
	li	a5,13
	mv	a4,a6
	mv	a2,a6
	mv	a1,a5
	mv	a0,a6
	sw	zero,0(sp)
	li	a7,0
	li	a3,10
	call	Sec_Eng_PKA_MMUL
.LVL63:
.LM110:
	li	a6,3
	mv	a4,a6
	mv	a2,a6
	mv	a0,a6
	sw	zero,0(sp)
	li	a7,0
	li	a5,7
	li	a3,6
	li	a1,14
	call	Sec_Eng_PKA_MMUL
.LVL64:
.LM111:
	li	a6,3
	mv	a4,a6
	mv	a2,a6
	mv	a0,a6
	sw	zero,0(sp)
	li	a7,0
	li	a5,6
	li	a3,5
	li	a1,15
	call	Sec_Eng_PKA_MMUL
.LVL65:
.LM112:
	li	a6,3
	li	a5,13
	mv	a4,a6
	mv	a3,a5
	mv	a2,a6
	mv	a0,a6
	sw	zero,0(sp)
	li	a7,0
	li	a1,7
	call	Sec_Eng_PKA_MMUL
.LVL66:
.LM113:
	li	a6,3
	li	a3,15
	mv	a4,a6
	mv	a2,a6
	mv	a1,a3
	mv	a0,a6
	sw	zero,0(sp)
	li	a7,0
	li	a5,14
	call	Sec_Eng_PKA_MMUL
.LVL67:
.LM114:
	li	a6,3
	mv	a4,a6
	mv	a2,a6
	mv	a0,a6
	sw	zero,0(sp)
	li	a7,0
	li	a5,15
	li	a3,12
	li	a1,5
	call	Sec_Eng_PKA_MMUL
.LVL68:
.LM115:
	li	a6,3
	li	a3,7
	mv	a4,a6
	mv	a2,a6
	mv	a1,a3
	mv	a0,a6
	sw	zero,0(sp)
	li	a7,0
	li	a5,5
	call	Sec_Eng_PKA_MSUB
.LVL69:
.LM116:
	li	a6,3
	mv	a4,a6
	mv	a2,a6
	mv	a0,a6
	sw	zero,0(sp)
	li	a7,0
	li	a5,7
	li	a3,9
	li	a1,5
	call	Sec_Eng_PKA_MMUL
.LVL70:
.LM117:
	li	a6,3
	li	a3,5
	mv	a4,a6
	mv	a2,a6
	mv	a1,a3
	mv	a0,a6
	sw	zero,0(sp)
	li	a7,0
	li	a5,14
	call	Sec_Eng_PKA_MMUL
.LVL71:
.LM118:
	li	a6,3
	li	a5,15
	mv	a4,a6
	mv	a2,a6
	mv	a1,a5
	mv	a0,a6
	sw	zero,0(sp)
	li	a7,0
	li	a3,11
	call	Sec_Eng_PKA_MMUL
.LVL72:
.LM119:
	li	a6,3
	li	a5,14
	mv	a4,a6
	mv	a3,a5
	mv	a2,a6
	mv	a0,a6
	sw	zero,0(sp)
	li	a7,0
	li	a1,16
	call	Sec_Eng_PKA_MMUL
.LVL73:
.LM120:
	li	a6,3
	li	a3,15
	mv	a4,a6
	mv	a2,a6
	mv	a1,a3
	mv	a0,a6
	sw	zero,0(sp)
	li	a7,0
	li	a5,7
	call	Sec_Eng_PKA_MSUB
.LVL74:
.LM121:
	li	a6,3
	li	a5,6
	mv	a4,a6
	mv	a3,a5
	mv	a2,a6
	mv	a1,a5
	mv	a0,a6
	sw	zero,0(sp)
	li	a7,0
	call	Sec_Eng_PKA_MMUL
.LVL75:
.LM122:
	li	a6,3
	li	a3,15
	mv	a4,a6
	mv	a2,a6
	mv	a1,a3
	mv	a0,a6
	sw	zero,0(sp)
	li	a7,0
	li	a5,13
	call	Sec_Eng_PKA_MMUL
.LVL76:
.LM123:
	li	a6,3
	li	a5,6
	mv	a4,a6
	mv	a2,a6
	mv	a1,a5
	mv	a0,a6
	sw	zero,0(sp)
	li	a7,0
	li	a3,12
	call	Sec_Eng_PKA_MMUL
.LVL77:
.LM124:
	li	a6,3
	li	a3,6
	mv	a4,a6
	mv	a2,a6
	mv	a1,a3
	mv	a0,a6
	sw	zero,0(sp)
	li	a7,0
	li	a5,16
	call	Sec_Eng_PKA_MMUL
.LVL78:
.LM125:
	li	a6,3
	li	a5,6
	mv	a4,a6
	mv	a2,a6
	mv	a1,a5
	mv	a0,a6
	sw	zero,0(sp)
	li	a7,0
	li	a3,15
	call	Sec_Eng_PKA_MSUB
.LVL79:
.LM126:
	li	a6,3
	mv	a4,a6
	mv	a2,a6
	mv	a0,a6
	sw	zero,0(sp)
	li	a7,0
	li	a5,16
	li	a3,14
	li	a1,7
	call	Sec_Eng_PKA_MMUL
.LVL80:
.LM127:
	li	a5,1
	li	a6,3
	sw	a5,0(sp)
	li	a5,7
	li	a7,0
	mv	a4,a6
	li	a3,12
	mv	a2,a6
	mv	a1,a5
	mv	a0,a6
	call	Sec_Eng_PKA_MMUL
.LVL81:
.LM128:
	lw	ra,28(sp)
	.cfi_restore 1
	addi	sp,sp,32
	.cfi_def_cfa_offset 0
	jr	ra
	.cfi_endproc
.LFE13:
	.size	bflb_ecdsa_point_double, .-bflb_ecdsa_point_double
	.section	.rodata.bflb_ecdsa_verify_point_mul.str1.4,"aMS",@progbits,1
	.align	2
.LC0:
	.string	"sum = X1\r\n"
	.align	2
.LC1:
	.string	"Error! infinite point + infinite point\r\n"
	.section	.text.bflb_ecdsa_verify_point_mul,"ax",@progbits
	.align	1
	.globl	bflb_ecdsa_verify_point_mul
	.type	bflb_ecdsa_verify_point_mul, @function
bflb_ecdsa_verify_point_mul:
.LVL82:
.LFB14:
.LM129:
	.cfi_startproc
.LM130:
.LM131:
.LM132:
.LM133:
.LM134:
	addi	sp,sp,-64
	.cfi_def_cfa_offset 64
	sw	s0,56(sp)
	sw	s4,40(sp)
	sw	s7,28(sp)
	sw	ra,60(sp)
	sw	s1,52(sp)
	sw	s2,48(sp)
	sw	s3,44(sp)
	sw	s5,36(sp)
	sw	s6,32(sp)
	sw	s8,24(sp)
	.cfi_offset 8, -8
	.cfi_offset 20, -24
	.cfi_offset 23, -36
	.cfi_offset 1, -4
	.cfi_offset 9, -12
	.cfi_offset 18, -16
	.cfi_offset 19, -20
	.cfi_offset 21, -28
	.cfi_offset 22, -32
	.cfi_offset 24, -40
.LM135:
	mv	s7,a0
	mv	s4,a1
.LVL83:
.LM136:
.LM137:
.LM138:
.LM139:
	li	s0,0
	li	a5,31
.LVL84:
.L14:
.LM140:
.LM141:
	add	a4,s4,s0
.LM142:
	lbu	a4,0(a4)
	bne	a4,zero,.L15
.LM143:
	bne	s0,a5,.L16
.L15:
.LM144:
	lui	a5,%hi(.LC0)
.LM145:
	li	s1,31
.LM146:
	li	s3,1
.LM147:
	addi	s8,a5,%lo(.LC0)
.LVL85:
.L23:
.LM148:
.LM149:
	add	a5,s4,s1
.LM150:
	lbu	s6,0(a5)
.LVL86:
.LM151:
.LM152:
.LM153:
.LM154:
	li	s2,0
.LM155:
	li	s5,8
.LVL87:
.L22:
.LM156:
.LM157:
.LM158:
	sll	a5,s3,s2
.LM159:
	and	a5,a5,s6
.LM160:
	beq	a5,zero,.L17
.LM161:
	addi	a1,sp,15
	addi	a0,sp,14
	call	bflb_ecdsa_point_add_inf_check
.LVL88:
.LM162:
.LM163:
	lbu	a5,14(sp)
.LM164:
	bne	a5,s3,.L18
.LM165:
	lbu	a5,15(sp)
	bne	a5,zero,.L19
.LM166:
	mv	a0,s7
	call	bflb_ecdsa_copy_x2_to_x1
.LVL89:
.L17:
.LM167:
	mv	a0,s7
.LM168:
	addi	s2,s2,1
.LVL90:
.LM169:
	call	bflb_ecdsa_point_double
.LVL91:
.LM170:
.LM171:
	bne	s2,s5,.L22
.LM172:
.LM173:
	beq	s1,zero,.L24
.LM174:
	addi	s1,s1,-1
.LVL92:
.LM175:
	bgeu	s1,s0,.L23
.L24:
.LM176:
	li	a0,0
	j	.L13
.LVL93:
.L16:
.LM177:
.LM178:
	addi	s0,s0,1
.LVL94:
.LM179:
	j	.L14
.LVL95:
.L18:
.LM180:
.LM181:
	bne	a5,zero,.L19
.LM182:
	lbu	a5,15(sp)
.LM183:
	bne	a5,s3,.L20
.LM184:
	mv	a0,s8
	call	bflb_platform_printf
.LVL96:
	j	.L17
.L20:
.LM185:
	bne	a5,zero,.L19
.LM186:
	mv	a0,s7
	call	bflb_ecdsa_point_add
.LVL97:
	j	.L17
.L19:
.LM187:
	lui	a0,%hi(.LC1)
	addi	a0,a0,%lo(.LC1)
	call	bflb_platform_printf
.LVL98:
.LM188:
.LM189:
	li	a0,-1
.LVL99:
.L13:
.LM190:
	lw	ra,60(sp)
	.cfi_restore 1
	lw	s0,56(sp)
	.cfi_restore 8
.LVL100:
.LM191:
	lw	s1,52(sp)
	.cfi_restore 9
.LVL101:
.LM192:
	lw	s2,48(sp)
	.cfi_restore 18
.LVL102:
.LM193:
	lw	s3,44(sp)
	.cfi_restore 19
	lw	s4,40(sp)
	.cfi_restore 20
.LVL103:
.LM194:
	lw	s5,36(sp)
	.cfi_restore 21
	lw	s6,32(sp)
	.cfi_restore 22
.LVL104:
.LM195:
	lw	s7,28(sp)
	.cfi_restore 23
.LVL105:
.LM196:
	lw	s8,24(sp)
	.cfi_restore 24
	addi	sp,sp,64
	.cfi_def_cfa_offset 0
	jr	ra
	.cfi_endproc
.LFE14:
	.size	bflb_ecdsa_verify_point_mul, .-bflb_ecdsa_verify_point_mul
	.section	.text.bflb_ecdsa_init,"ax",@progbits
	.align	1
	.globl	bflb_ecdsa_init
	.type	bflb_ecdsa_init, @function
bflb_ecdsa_init:
.LVL106:
.LFB15:
.LM197:
	.cfi_startproc
.LM198:
.LM199:
	li	a0,0
.LVL107:
.LM200:
	ret
	.cfi_endproc
.LFE15:
	.size	bflb_ecdsa_init, .-bflb_ecdsa_init
	.section	.text.bflb_ecdsa_verify,"ax",@progbits
	.align	1
	.globl	bflb_ecdsa_verify
	.type	bflb_ecdsa_verify, @function
bflb_ecdsa_verify:
.LVL108:
.LFB16:
.LM201:
	.cfi_startproc
.LM202:
.LM203:
.LM204:
.LM205:
.LM206:
.LM207:
.LM208:
.LM209:
	addi	sp,sp,-336
	.cfi_def_cfa_offset 336
	sw	s5,308(sp)
	sw	s6,304(sp)
.LM210:
	li	a2,32
.LVL109:
	.cfi_offset 21, -28
	.cfi_offset 22, -32
.LM211:
	mv	s6,a0
	mv	s5,a1
.LM212:
	addi	a0,sp,224
.LVL110:
.LM213:
	li	a1,0
.LVL111:
.LM214:
	sw	ra,332(sp)
	sw	s0,328(sp)
	sw	s2,320(sp)
	.cfi_offset 1, -4
	.cfi_offset 8, -8
	.cfi_offset 18, -16
	mv	s0,a6
	mv	s2,a5
	sw	s3,316(sp)
	sw	s7,300(sp)
	.cfi_offset 19, -20
	.cfi_offset 23, -36
	mv	s3,a4
	mv	s7,a3
	sw	s1,324(sp)
	sw	s4,312(sp)
	.cfi_offset 9, -12
	.cfi_offset 20, -24
.LM215:
	call	memset
.LVL112:
.LM216:
.LM217:
	li	a2,32
	li	a1,0
	addi	a0,sp,256
	call	memset
.LVL113:
.LM218:
.LM219:
	seqz	a4,s0
.LM220:
	seqz	a5,s2
.LM221:
	or	a5,a5,a4
.LM222:
	seqz	a4,s3
.LM223:
	or	a4,a4,a5
.LM224:
	seqz	a5,s7
.LM225:
	sw	zero,28(sp)
.LM226:
.LM227:
	or	a5,a5,a4
	bne	a5,zero,.L33
	beq	s5,zero,.L33
.LM228:
	li	a4,0
	li	a3,8
	mv	a2,s2
	li	a1,5
	li	a0,3
	call	Sec_Eng_PKA_Write_Data
.LVL114:
.LM229:
	li	a3,8
	lui	a2,%hi(secp256r1_1)
	mv	a1,a3
	li	a4,0
	addi	a2,a2,%lo(secp256r1_1)
	li	a0,3
	call	Sec_Eng_PKA_Write_Data
.LVL115:
.LM230:
	li	a3,3
	li	a4,8
	li	a2,5
	mv	a1,a3
	addi	a0,sp,28
	call	Sec_Eng_PKA_LCMP
.LVL116:
.LM231:
.LM232:
	lw	a5,28(sp)
	li	s1,1
	beq	a5,s1,.L33
.LM233:
	li	a4,0
	li	a3,8
	mv	a2,s0
	li	a1,5
	li	a0,3
	call	Sec_Eng_PKA_Write_Data
.LVL117:
.LM234:
	li	a3,3
	li	a4,8
	li	a2,5
	mv	a1,a3
	addi	a0,sp,28
	call	Sec_Eng_PKA_LCMP
.LVL118:
.LM235:
.LM236:
	lw	a5,28(sp)
	beq	a5,s1,.L33
.LM237:
	mv	a0,s6
	call	bflb_ecc_basic_parameter_init
.LVL119:
.LM238:
	li	a4,0
	li	a3,8
	mv	a2,s2
	li	a1,5
	li	a0,3
	call	Sec_Eng_PKA_Write_Data
.LVL120:
.LM239:
	li	a3,3
	li	a4,0
	li	a2,5
	mv	a1,a3
	addi	a0,sp,28
	call	Sec_Eng_PKA_LCMP
.LVL121:
.LM240:
.LM241:
	lw	s4,28(sp)
	bne	s4,s1,.L33
.LM242:
	li	a4,0
	li	a3,8
	mv	a2,s0
	li	a1,5
	li	a0,3
	call	Sec_Eng_PKA_Write_Data
.LVL122:
.LM243:
	li	a3,3
	li	a4,0
	li	a2,5
	mv	a1,a3
	addi	a0,sp,28
	call	Sec_Eng_PKA_LCMP
.LVL123:
.LM244:
.LM245:
	lw	s1,28(sp)
	bne	s1,s4,.L33
.LM246:
	li	a4,0
	mv	a2,s0
	li	a3,8
	li	a1,5
	li	a0,3
	call	Sec_Eng_PKA_Write_Data
.LVL124:
.LM247:
	mv	a3,s1
	li	a2,8
	li	a1,13
	li	a0,3
	call	Sec_Eng_PKA_CREG
.LVL125:
.LM248:
	mv	a3,s1
	li	a2,8
	li	a1,14
	li	a0,3
	call	Sec_Eng_PKA_CREG
.LVL126:
.LM249:
	li	a7,3
	li	a3,5
	mv	a2,a7
	mv	a0,a7
	mv	a1,a3
	li	a6,7
	li	a5,4
	li	a4,256
	sw	zero,0(sp)
	call	Sec_Eng_PKA_GF2Mont
.LVL127:
.LM250:
	li	a4,3
	mv	a2,a4
	mv	a0,a4
	mv	a6,s1
	li	a5,0
	li	a3,5
	li	a1,6
.LM251:
	li	s0,3
.LVL128:
.LM252:
	call	Sec_Eng_PKA_MINV
.LVL129:
.LM253:
	li	a7,7
	li	a6,4
	li	a5,2
	mv	a4,s0
	li	a3,6
	mv	a2,s0
	li	a1,5
	mv	a0,s0
	sw	zero,4(sp)
	sw	s0,0(sp)
	call	Sec_Eng_PKA_Mont2GF
.LVL130:
.LM254:
	mv	a2,s5
	li	a4,0
	li	a3,8
	li	a1,6
	mv	a0,s0
	call	Sec_Eng_PKA_Write_Data
.LVL131:
.LM255:
	li	a6,0
	li	a5,5
	mv	a4,s0
	li	a3,6
	mv	a2,s0
	li	a1,7
	li	a0,4
	call	Sec_Eng_PKA_LMUL
.LVL132:
.LM256:
	li	a3,7
	mv	a6,s1
	li	a5,0
	mv	a4,s0
	mv	a1,a3
	li	a2,4
	mv	a0,s0
	call	Sec_Eng_PKA_MREM
.LVL133:
.LM257:
	li	a3,8
	addi	a2,sp,224
	li	a1,7
	mv	a0,s0
	call	Sec_Eng_PKA_Read_Data
.LVL134:
.LM258:
	li	a4,0
	li	a3,8
	mv	a2,s2
	li	a1,6
	mv	a0,s0
	call	Sec_Eng_PKA_Write_Data
.LVL135:
.LM259:
	li	a6,0
	li	a5,5
	mv	a4,s0
	li	a3,6
	mv	a2,s0
	li	a1,7
	li	a0,4
	call	Sec_Eng_PKA_LMUL
.LVL136:
.LM260:
	li	a3,7
	mv	a6,s1
	li	a5,0
	mv	a4,s0
	mv	a1,a3
	li	a2,4
	mv	a0,s0
	call	Sec_Eng_PKA_MREM
.LVL137:
.LM261:
	li	a3,8
	addi	a2,sp,256
	li	a1,7
	mv	a0,s0
	call	Sec_Eng_PKA_Read_Data
.LVL138:
.LM262:
	mv	a3,s1
	li	a2,8
	li	a1,7
	li	a0,4
	call	Sec_Eng_PKA_CREG
.LVL139:
.LM263:
	mv	a0,s6
	call	bflb_ecc_point_mul_init
.LVL140:
.LM264:
	lui	s5,%hi(secp256r1_Zerox)
.LVL141:
.LM265:
	li	a4,0
	li	a3,8
	addi	a2,s5,%lo(secp256r1_Zerox)
	li	a1,2
	mv	a0,s0
	call	Sec_Eng_PKA_Write_Data
.LVL142:
.LM266:
	lui	s4,%hi(secp256r1_Zeroy)
	li	a4,0
	li	a3,8
	addi	a2,s4,%lo(secp256r1_Zeroy)
	mv	a1,s0
	mv	a0,s0
	call	Sec_Eng_PKA_Write_Data
.LVL143:
.LM267:
	mv	a4,s1
	li	a3,2
	mv	a2,s0
	li	a1,4
	mv	a0,s0
	call	Sec_Eng_PKA_Move_Data
.LVL144:
.LM268:
	lui	a2,%hi(secp256r1_Gx)
	li	a4,0
	li	a3,8
	addi	a2,a2,%lo(secp256r1_Gx)
	li	a1,5
	mv	a0,s0
	call	Sec_Eng_PKA_Write_Data
.LVL145:
.LM269:
	lui	a2,%hi(secp256r1_Gy)
	li	a4,0
	li	a3,8
	addi	a2,a2,%lo(secp256r1_Gy)
	li	a1,6
	mv	a0,s0
	call	Sec_Eng_PKA_Write_Data
.LVL146:
.LM270:
	mv	a4,s1
	mv	a3,s0
	mv	a2,s0
	li	a1,7
	mv	a0,s0
	call	Sec_Eng_PKA_Move_Data
.LVL147:
.LM271:
	addi	a1,sp,224
	mv	a0,s6
	call	bflb_ecdsa_verify_point_mul
.LVL148:
.LM272:
	li	a3,8
	addi	a2,sp,32
	li	a1,2
	mv	a0,s0
	call	Sec_Eng_PKA_Read_Data
.LVL149:
.LM273:
	li	a3,8
	addi	a2,sp,64
	mv	a1,s0
	mv	a0,s0
	call	Sec_Eng_PKA_Read_Data
.LVL150:
.LM274:
	li	a3,8
	addi	a2,sp,96
	li	a1,4
	mv	a0,s0
	call	Sec_Eng_PKA_Read_Data
.LVL151:
.LM275:
	li	a4,0
	li	a3,8
	addi	a2,s5,%lo(secp256r1_Zerox)
	li	a1,2
	mv	a0,s0
	call	Sec_Eng_PKA_Write_Data
.LVL152:
.LM276:
	li	a4,0
	li	a3,8
	addi	a2,s4,%lo(secp256r1_Zeroy)
	mv	a1,s0
	mv	a0,s0
	call	Sec_Eng_PKA_Write_Data
.LVL153:
.LM277:
	mv	a4,s1
	li	a3,2
	mv	a2,s0
	li	a1,4
	mv	a0,s0
	call	Sec_Eng_PKA_Move_Data
.LVL154:
.LM278:
	li	a4,0
	li	a3,8
	mv	a2,s7
	li	a1,5
	mv	a0,s0
	call	Sec_Eng_PKA_Write_Data
.LVL155:
.LM279:
	mv	a3,s1
	li	a2,8
	li	a1,13
	mv	a0,s0
	call	Sec_Eng_PKA_CREG
.LVL156:
.LM280:
	mv	a3,s1
	li	a2,8
	li	a1,14
	mv	a0,s0
	call	Sec_Eng_PKA_CREG
.LVL157:
.LM281:
	li	a3,5
	mv	a7,s0
	li	a6,7
	li	a5,4
	mv	a1,a3
	li	a4,256
	mv	a2,s0
	mv	a0,s0
	sw	zero,0(sp)
	call	Sec_Eng_PKA_GF2Mont
.LVL158:
.LM282:
	li	a4,0
	mv	a2,s3
	li	a3,8
	li	a1,6
	mv	a0,s0
	call	Sec_Eng_PKA_Write_Data
.LVL159:
.LM283:
	mv	a3,s1
	li	a2,8
	li	a1,13
	mv	a0,s0
	call	Sec_Eng_PKA_CREG
.LVL160:
.LM284:
	mv	a3,s1
	li	a2,8
	li	a1,14
	mv	a0,s0
	call	Sec_Eng_PKA_CREG
.LVL161:
.LM285:
	li	a3,6
	mv	a7,s0
	li	a6,7
	li	a5,4
	mv	a1,a3
	li	a4,256
	mv	a2,s0
	mv	a0,s0
	sw	zero,0(sp)
	call	Sec_Eng_PKA_GF2Mont
.LVL162:
.LM286:
	mv	a4,s1
	mv	a3,s0
	mv	a2,s0
	li	a1,7
	mv	a0,s0
	call	Sec_Eng_PKA_Move_Data
.LVL163:
.LM287:
	mv	a3,s1
	li	a2,8
	li	a1,7
	li	a0,4
	call	Sec_Eng_PKA_CREG
.LVL164:
.LM288:
	addi	a1,sp,256
	mv	a0,s6
	call	bflb_ecdsa_verify_point_mul
.LVL165:
.LM289:
	addi	s3,sp,128
.LVL166:
.LM290:
	li	a3,8
	mv	a2,s3
	li	a1,2
	mv	a0,s0
	call	Sec_Eng_PKA_Read_Data
.LVL167:
.LM291:
	li	a3,8
	addi	a2,sp,160
	mv	a1,s0
	mv	a0,s0
	call	Sec_Eng_PKA_Read_Data
.LVL168:
.LM292:
	li	a3,8
	addi	a2,sp,192
	li	a1,4
	mv	a0,s0
	call	Sec_Eng_PKA_Read_Data
.LVL169:
.LM293:
	li	a4,0
	li	a3,2
	mv	a2,s0
	li	a1,5
	mv	a0,s0
	call	Sec_Eng_PKA_Move_Data
.LVL170:
.LM294:
	li	a4,0
	mv	a3,s0
	mv	a2,s0
	li	a1,6
	mv	a0,s0
	call	Sec_Eng_PKA_Move_Data
.LVL171:
.LM295:
	mv	a4,s1
	li	a3,4
	mv	a2,s0
	li	a1,7
	mv	a0,s0
	call	Sec_Eng_PKA_Move_Data
.LVL172:
.LM296:
	li	a4,0
	li	a3,8
	addi	a2,sp,32
	li	a1,2
	mv	a0,s0
	call	Sec_Eng_PKA_Write_Data
.LVL173:
.LM297:
	li	a4,0
	li	a3,8
	addi	a2,sp,64
	mv	a1,s0
	mv	a0,s0
	call	Sec_Eng_PKA_Write_Data
.LVL174:
.LM298:
	li	a4,0
	li	a3,8
	addi	a2,sp,96
	li	a1,4
	mv	a0,s0
	call	Sec_Eng_PKA_Write_Data
.LVL175:
.LM299:
	mv	a0,s6
	call	bflb_ecdsa_point_add
.LVL176:
.LM300:
	mv	a6,s1
	li	a5,0
	mv	a4,s0
	li	a3,4
	mv	a2,s0
	li	a1,5
	mv	a0,s0
	call	Sec_Eng_PKA_MINV
.LVL177:
.LM301:
	lui	a2,%hi(secp256r1InvR_P)
	li	a4,0
	li	a3,8
	addi	a2,a2,%lo(secp256r1InvR_P)
	li	a1,6
	mv	a0,s0
	call	Sec_Eng_PKA_Write_Data
.LVL178:
.LM302:
	mv	a3,s1
	li	a2,8
	li	a1,13
	mv	a0,s0
	call	Sec_Eng_PKA_CREG
.LVL179:
.LM303:
	mv	a3,s1
	li	a2,8
	li	a1,14
	mv	a0,s0
	call	Sec_Eng_PKA_CREG
.LVL180:
.LM304:
	li	a3,5
	mv	a1,a3
	li	a7,7
	li	a6,4
	li	a5,6
	mv	a4,s0
	mv	a2,s0
	mv	a0,s0
	sw	zero,4(sp)
	sw	s0,0(sp)
	call	Sec_Eng_PKA_Mont2GF
.LVL181:
.LM305:
	li	a5,6
	mv	a1,a5
	li	a7,7
	li	a6,4
	mv	a4,s0
	li	a3,2
	mv	a2,s0
	mv	a0,s0
	sw	zero,4(sp)
	sw	s0,0(sp)
	call	Sec_Eng_PKA_Mont2GF
.LVL182:
.LM306:
	li	a5,6
	mv	a4,s0
	li	a7,7
	li	a6,4
	li	a3,5
	mv	a2,s0
	li	a1,2
	mv	a0,s0
	sw	zero,4(sp)
	sw	s0,0(sp)
	call	Sec_Eng_PKA_Mont2GF
.LVL183:
.LM307:
	li	a3,8
	mv	a2,s3
	li	a1,2
	mv	a0,s0
	call	Sec_Eng_PKA_Read_Data
.LVL184:
.LM308:
.LM309:
.LM310:
	li	a5,0
.LM311:
	li	a4,32
.L36:
.LM312:
.LM313:
	add	a3,s3,a5
.LM314:
	addi	a5,a5,4
.LM315:
	lw	a2,0(a3)
.LM316:
	add	a3,s2,a5
.LM317:
	lw	a3,-4(a3)
	beq	a2,a3,.L34
.L33:
.LM318:
	li	a0,-1
.L32:
.LM319:
	lw	ra,332(sp)
	.cfi_remember_state
	.cfi_restore 1
	lw	s0,328(sp)
	.cfi_restore 8
	lw	s1,324(sp)
	.cfi_restore 9
	lw	s2,320(sp)
	.cfi_restore 18
.LVL185:
.LM320:
	lw	s3,316(sp)
	.cfi_restore 19
	lw	s4,312(sp)
	.cfi_restore 20
	lw	s5,308(sp)
	.cfi_restore 21
	lw	s6,304(sp)
	.cfi_restore 22
.LVL186:
.LM321:
	lw	s7,300(sp)
	.cfi_restore 23
.LVL187:
.LM322:
	addi	sp,sp,336
	.cfi_def_cfa_offset 0
	jr	ra
.LVL188:
.L34:
	.cfi_restore_state
.LM323:
	bne	a5,a4,.L36
.LM324:
	li	a0,0
	j	.L32
	.cfi_endproc
.LFE16:
	.size	bflb_ecdsa_verify, .-bflb_ecdsa_verify
	.section	.text.bflb_ecdsa_deinit,"ax",@progbits
	.align	1
	.globl	bflb_ecdsa_deinit
	.type	bflb_ecdsa_deinit, @function
bflb_ecdsa_deinit:
.LFB25:
	.cfi_startproc
.LM325:
	li	a0,0
	ret
	.cfi_endproc
.LFE25:
	.size	bflb_ecdsa_deinit, .-bflb_ecdsa_deinit
	.section	.text.bflb_ecc_is_zero,"ax",@progbits
	.align	1
	.globl	bflb_ecc_is_zero
	.type	bflb_ecc_is_zero, @function
bflb_ecc_is_zero:
.LVL189:
.LFB18:
.LM326:
	.cfi_startproc
.LM327:
.LM328:
.LM329:
	li	a5,0
.LVL190:
.L41:
.LM330:
	bne	a5,a1,.L43
.LM331:
	li	a0,1
.LVL191:
.LM332:
	ret
.LVL192:
.L43:
.LM333:
.LM334:
	add	a4,a0,a5
.LM335:
	lbu	a4,0(a4)
	bne	a4,zero,.L44
.LM336:
	addi	a5,a5,1
.LVL193:
.LM337:
	j	.L41
.LVL194:
.L44:
.LM338:
	li	a0,0
.LVL195:
.LM339:
	ret
	.cfi_endproc
.LFE18:
	.size	bflb_ecc_is_zero, .-bflb_ecc_is_zero
	.section	.text.bflb_ecc_cmp,"ax",@progbits
	.align	1
	.globl	bflb_ecc_cmp
	.type	bflb_ecc_cmp, @function
bflb_ecc_cmp:
.LVL196:
.LFB19:
.LM340:
	.cfi_startproc
.LM341:
.LM342:
.LM343:
	li	a5,0
.LVL197:
.L46:
.LM344:
	beq	a5,a2,.L65
.LM345:
.LM346:
	add	a4,a0,a5
.LM347:
	lbu	a4,0(a4)
	beq	a4,zero,.L47
.L65:
.LM348:
	li	a4,0
.LVL198:
.L48:
.LM349:
	bne	a4,a2,.L54
.LM350:
.LM351:
	li	a3,0
.LM352:
	bne	a5,a4,.L51
.LVL199:
.L45:
.LM353:
	mv	a0,a3
.LVL200:
.LM354:
	ret
.LVL201:
.L47:
.LM355:
	addi	a5,a5,1
.LVL202:
.LM356:
	j	.L46
.LVL203:
.L54:
.LM357:
.LM358:
	add	a3,a1,a4
.LM359:
	lbu	a3,0(a3)
	beq	a3,zero,.L63
.L51:
.LM360:
.LM361:
	li	a3,-1
.LM362:
	bgtu	a5,a4,.L45
.LM363:
.LM364:
	li	a3,1
.LM365:
	bltu	a5,a4,.L45
.LVL204:
.L56:
.LM366:
	bltu	a5,a2,.L57
.LM367:
	li	a3,0
	j	.L45
.LVL205:
.L63:
.LM368:
	addi	a4,a4,1
.LVL206:
.LM369:
	j	.L48
.LVL207:
.L57:
.LM370:
.LM371:
	add	a4,a0,a5
	lbu	a3,0(a4)
.LM372:
	add	a4,a1,a5
	lbu	a4,0(a4)
.LM373:
	bgtu	a3,a4,.L61
.LM374:
.LM375:
	bltu	a3,a4,.L62
.LM376:
	addi	a5,a5,1
.LVL208:
.LM377:
	j	.L56
.LVL209:
.L61:
.LM378:
	li	a3,1
	j	.L45
.L62:
.LM379:
	li	a3,-1
	j	.L45
	.cfi_endproc
.LFE19:
	.size	bflb_ecc_cmp, .-bflb_ecc_cmp
	.section	.text.bflb_ecc_get_random_value,"ax",@progbits
	.align	1
	.globl	bflb_ecc_get_random_value
	.type	bflb_ecc_get_random_value, @function
bflb_ecc_get_random_value:
.LVL210:
.LFB20:
.LM380:
	.cfi_startproc
.LM381:
.LM382:
.LM383:
.LM384:
.LM385:
	addi	sp,sp,-32
	.cfi_def_cfa_offset 32
	sw	s0,24(sp)
	sw	s1,20(sp)
	sw	s2,16(sp)
	sw	s3,12(sp)
	sw	s4,8(sp)
	sw	ra,28(sp)
	.cfi_offset 8, -8
	.cfi_offset 9, -12
	.cfi_offset 18, -16
	.cfi_offset 19, -20
	.cfi_offset 20, -24
	.cfi_offset 1, -4
.LM386:
	mv	s2,a0
	mv	s3,a1
	mv	s4,a2
	li	s0,100
.LM387:
	li	s1,1
.LVL211:
.L68:
.LM388:
.LM389:
	mv	a1,s4
	mv	a0,s2
	call	bflb_platform_get_random
.LVL212:
.LM390:
.LM391:
	blt	a0,zero,.L69
.LM392:
.LM393:
	beq	s3,zero,.L71
.LM394:
.LM395:
	mv	a2,s4
	mv	a1,s2
	mv	a0,s3
.LVL213:
.LM396:
	call	bflb_ecc_cmp
.LVL214:
.LM397:
	beq	a0,s1,.L71
.LM398:
.LVL215:
.LM399:
	addi	s0,s0,-1
.LVL216:
.LM400:
	bne	s0,zero,.L68
.LVL217:
.L69:
.LM401:
	li	a0,-1
.L66:
.LM402:
	lw	ra,28(sp)
	.cfi_remember_state
	.cfi_restore 1
	lw	s0,24(sp)
	.cfi_restore 8
	lw	s1,20(sp)
	.cfi_restore 9
	lw	s2,16(sp)
	.cfi_restore 18
.LVL218:
.LM403:
	lw	s3,12(sp)
	.cfi_restore 19
.LVL219:
.LM404:
	lw	s4,8(sp)
	.cfi_restore 20
.LVL220:
.LM405:
	addi	sp,sp,32
	.cfi_def_cfa_offset 0
	jr	ra
.LVL221:
.L71:
	.cfi_restore_state
.LM406:
	li	a0,0
	j	.L66
	.cfi_endproc
.LFE20:
	.size	bflb_ecc_get_random_value, .-bflb_ecc_get_random_value
	.section	.text.bflb_ecdh_get_public_key,"ax",@progbits
	.align	1
	.globl	bflb_ecdh_get_public_key
	.type	bflb_ecdh_get_public_key, @function
bflb_ecdh_get_public_key:
.LVL222:
.LFB21:
.LM407:
	.cfi_startproc
.LM408:
.LM409:
	beq	a3,zero,.L78
.LM410:
	addi	sp,sp,-48
	.cfi_def_cfa_offset 48
	sw	ra,44(sp)
	sw	s0,40(sp)
	sw	s1,36(sp)
	sw	s2,32(sp)
	sw	s3,28(sp)
	sw	s4,24(sp)
	.cfi_offset 1, -4
	.cfi_offset 8, -8
	.cfi_offset 9, -12
	.cfi_offset 18, -16
	.cfi_offset 19, -20
	.cfi_offset 20, -24
	mv	s3,a4
	mv	s4,a5
	sw	s5,20(sp)
	.cfi_offset 21, -28
	mv	s0,a0
	mv	s2,a3
	mv	s5,a2
	mv	s1,a1
.LM411:
	call	bflb_ecc_basic_parameter_init
.LVL223:
.LM412:
	li	a3,1
	li	a2,8
	li	a1,7
	li	a0,4
	call	Sec_Eng_PKA_CREG
.LVL224:
.LM413:
	mv	a0,s0
	call	bflb_ecc_point_mul_init
.LVL225:
.LM414:
	lui	a2,%hi(secp256r1_Zerox)
	li	a4,0
	li	a3,8
	addi	a2,a2,%lo(secp256r1_Zerox)
	li	a1,2
	li	a0,3
	call	Sec_Eng_PKA_Write_Data
.LVL226:
.LM415:
	li	a1,3
	lui	a2,%hi(secp256r1_Zeroy)
	mv	a0,a1
	li	a4,0
	li	a3,8
	addi	a2,a2,%lo(secp256r1_Zeroy)
	call	Sec_Eng_PKA_Write_Data
.LVL227:
.LM416:
	li	a2,3
	li	a4,1
	li	a3,2
	li	a1,4
	mv	a0,a2
	call	Sec_Eng_PKA_Move_Data
.LVL228:
.LM417:
.LM418:
	li	a4,0
	li	a3,8
.LM419:
	bne	s1,zero,.L76
.LM420:
	lui	a2,%hi(secp256r1_Gx)
	addi	a2,a2,%lo(secp256r1_Gx)
	li	a1,5
	li	a0,3
	call	Sec_Eng_PKA_Write_Data
.LVL229:
.LM421:
	lui	a2,%hi(secp256r1_Gy)
	li	a4,0
	li	a3,8
	addi	a2,a2,%lo(secp256r1_Gy)
	li	a1,6
	li	a0,3
	call	Sec_Eng_PKA_Write_Data
.LVL230:
.L77:
.LM422:
	li	a3,3
	li	a4,1
	mv	a2,a3
	mv	a0,a3
	li	a1,7
	call	Sec_Eng_PKA_Move_Data
.LVL231:
.LM423:
	li	a3,1
	li	a2,8
	li	a1,7
	li	a0,4
	call	Sec_Eng_PKA_CREG
.LVL232:
.LM424:
	mv	a1,s2
	mv	a0,s0
	call	bflb_ecdsa_verify_point_mul
.LVL233:
.LM425:
	mv	a2,s3
	li	a3,8
	li	a1,2
	li	a0,3
	call	Sec_Eng_PKA_Read_Data
.LVL234:
.LM426:
	li	a1,3
	mv	a2,s4
	mv	a0,a1
	li	a3,8
	call	Sec_Eng_PKA_Read_Data
.LVL235:
.LM427:
	li	a4,3
	li	a6,1
	li	a5,0
	mv	a2,a4
	mv	a0,a4
	li	a3,4
	li	a1,5
	call	Sec_Eng_PKA_MINV
.LVL236:
.LM428:
	lui	s2,%hi(secp256r1InvR_P)
.LVL237:
.LM429:
	li	a4,0
	addi	a2,s2,%lo(secp256r1InvR_P)
	li	a3,8
	li	a1,6
	li	a0,3
	call	Sec_Eng_PKA_Write_Data
.LVL238:
.LM430:
	li	a3,1
	li	a2,8
	li	a1,13
	li	a0,3
	call	Sec_Eng_PKA_CREG
.LVL239:
.LM431:
	li	a3,1
	li	a2,8
	li	a1,14
	li	a0,3
	call	Sec_Eng_PKA_CREG
.LVL240:
.LM432:
	li	s0,3
.LVL241:
.LM433:
	li	a3,5
	sw	s0,0(sp)
	mv	a4,s0
	mv	a2,s0
	mv	a1,a3
	mv	a0,s0
	sw	zero,4(sp)
	li	a7,7
	li	a6,4
	li	a5,6
	call	Sec_Eng_PKA_Mont2GF
.LVL242:
.LM434:
	li	a5,6
	sw	s0,0(sp)
	mv	a4,s0
	mv	a2,s0
	mv	a1,a5
	mv	a0,s0
	sw	zero,4(sp)
	li	a7,7
	li	a6,4
	li	a3,2
	call	Sec_Eng_PKA_Mont2GF
.LVL243:
.LM435:
	li	a7,7
	li	a6,4
	li	a5,6
	mv	a4,s0
	sw	s0,0(sp)
	mv	a2,s0
	mv	a0,s0
	sw	zero,4(sp)
	li	a3,5
	li	a1,2
	call	Sec_Eng_PKA_Mont2GF
.LVL244:
.LM436:
	mv	a2,s3
	mv	a0,s0
	li	a3,8
	li	a1,2
	call	Sec_Eng_PKA_Read_Data
.LVL245:
.LM437:
	lui	s1,%hi(secp256r1N)
.LVL246:
.LM438:
	addi	a2,s1,%lo(secp256r1N)
	mv	a0,s0
	li	a4,0
	li	a3,8
	li	a1,0
	call	Sec_Eng_PKA_Write_Data
.LVL247:
.LM439:
	li	a3,2
	li	a6,1
	li	a5,0
	mv	a4,s0
	mv	a2,s0
	mv	a1,a3
	mv	a0,s0
	call	Sec_Eng_PKA_MREM
.LVL248:
.LM440:
	mv	a2,s3
	mv	a0,s0
	li	a3,8
	li	a1,2
	call	Sec_Eng_PKA_Read_Data
.LVL249:
.LM441:
	lui	a2,%hi(secp256r1P)
	mv	a0,s0
	li	a4,0
	li	a3,8
	addi	a2,a2,%lo(secp256r1P)
	li	a1,0
	call	Sec_Eng_PKA_Write_Data
.LVL250:
.LM442:
	li	a6,1
	li	a5,0
	mv	a4,s0
	mv	a2,s0
	mv	a0,s0
	li	a3,4
	li	a1,5
	call	Sec_Eng_PKA_MINV
.LVL251:
.LM443:
	li	a4,0
	addi	a2,s2,%lo(secp256r1InvR_P)
	mv	a0,s0
	li	a3,8
	li	a1,6
	call	Sec_Eng_PKA_Write_Data
.LVL252:
.LM444:
	mv	a0,s0
	li	a3,1
	li	a2,8
	li	a1,13
	call	Sec_Eng_PKA_CREG
.LVL253:
.LM445:
	mv	a0,s0
	li	a3,1
	li	a2,8
	li	a1,14
	call	Sec_Eng_PKA_CREG
.LVL254:
.LM446:
	li	a3,5
	sw	s0,0(sp)
	mv	a4,s0
	mv	a2,s0
	mv	a1,a3
	mv	a0,s0
	sw	zero,4(sp)
	li	a7,7
	li	a6,4
	li	a5,6
	call	Sec_Eng_PKA_Mont2GF
.LVL255:
.LM447:
	li	a5,6
	sw	s0,0(sp)
	mv	a4,s0
	mv	a3,s0
	mv	a2,s0
	mv	a1,a5
	mv	a0,s0
	sw	zero,4(sp)
	li	a7,7
	li	a6,4
	call	Sec_Eng_PKA_Mont2GF
.LVL256:
.LM448:
	li	a7,7
	li	a6,4
	li	a5,6
	mv	a4,s0
	sw	s0,0(sp)
	mv	a2,s0
	mv	a1,s0
	mv	a0,s0
	sw	zero,4(sp)
	li	a3,5
	call	Sec_Eng_PKA_Mont2GF
.LVL257:
.LM449:
	mv	a2,s4
	mv	a1,s0
	mv	a0,s0
	li	a3,8
	call	Sec_Eng_PKA_Read_Data
.LVL258:
.LM450:
	addi	a2,s1,%lo(secp256r1N)
	mv	a0,s0
	li	a4,0
	li	a3,8
	li	a1,0
	call	Sec_Eng_PKA_Write_Data
.LVL259:
.LM451:
	mv	a4,s0
	mv	a3,s0
	mv	a2,s0
	mv	a1,s0
	mv	a0,s0
	li	a6,1
	li	a5,0
	call	Sec_Eng_PKA_MREM
.LVL260:
.LM452:
	mv	a0,s0
	mv	a2,s4
	mv	a1,s0
	li	a3,8
	call	Sec_Eng_PKA_Read_Data
.LVL261:
.LM453:
.LM454:
	lw	ra,44(sp)
	.cfi_remember_state
	.cfi_restore 1
	lw	s0,40(sp)
	.cfi_restore 8
	lw	s1,36(sp)
	.cfi_restore 9
	lw	s2,32(sp)
	.cfi_restore 18
	lw	s3,28(sp)
	.cfi_restore 19
.LVL262:
.LM455:
	lw	s4,24(sp)
	.cfi_restore 20
.LVL263:
.LM456:
	lw	s5,20(sp)
	.cfi_restore 21
.LVL264:
.LM457:
	li	a0,0
.LM458:
	addi	sp,sp,48
	.cfi_def_cfa_offset 0
	jr	ra
.LVL265:
.L76:
	.cfi_restore_state
.LM459:
	mv	a2,s1
	li	a1,5
	li	a0,3
	call	Sec_Eng_PKA_Write_Data
.LVL266:
.LM460:
	li	a3,1
	li	a2,8
	li	a1,13
	li	a0,3
	call	Sec_Eng_PKA_CREG
.LVL267:
.LM461:
	li	a3,1
	li	a2,8
	li	a1,14
	li	a0,3
	call	Sec_Eng_PKA_CREG
.LVL268:
.LM462:
	li	a7,3
	li	a3,5
	mv	a2,a7
	mv	a0,a7
	li	a6,7
	li	a5,4
	mv	a1,a3
	sw	zero,0(sp)
	li	a4,256
	call	Sec_Eng_PKA_GF2Mont
.LVL269:
.LM463:
	li	a4,0
	mv	a2,s5
	li	a3,8
	li	a1,6
	li	a0,3
	call	Sec_Eng_PKA_Write_Data
.LVL270:
.LM464:
	li	a3,1
	li	a2,8
	li	a1,13
	li	a0,3
	call	Sec_Eng_PKA_CREG
.LVL271:
.LM465:
	li	a3,1
	li	a2,8
	li	a1,14
	li	a0,3
	call	Sec_Eng_PKA_CREG
.LVL272:
.LM466:
	li	a7,3
	li	a3,6
	sw	zero,0(sp)
	li	a6,7
	li	a5,4
	li	a4,256
	mv	a2,a7
	mv	a1,a3
	mv	a0,a7
	call	Sec_Eng_PKA_GF2Mont
.LVL273:
	j	.L77
.LVL274:
.L78:
	.cfi_def_cfa_offset 0
	.cfi_restore 1
	.cfi_restore 8
	.cfi_restore 9
	.cfi_restore 18
	.cfi_restore 19
	.cfi_restore 20
	.cfi_restore 21
.LM467:
	li	a0,-1
.LVL275:
.LM468:
	ret
	.cfi_endproc
.LFE21:
	.size	bflb_ecdh_get_public_key, .-bflb_ecdh_get_public_key
	.section	.text.bflb_ecdsa_get_private_key,"ax",@progbits
	.align	1
	.globl	bflb_ecdsa_get_private_key
	.type	bflb_ecdsa_get_private_key, @function
bflb_ecdsa_get_private_key:
.LVL276:
.LFB22:
.LM469:
	.cfi_startproc
.LM470:
.LM471:
	mv	a0,a1
.LVL277:
.LM472:
	lui	a1,%hi(secp256r1N)
.LVL278:
.LM473:
	addi	sp,sp,-16
	.cfi_def_cfa_offset 16
.LM474:
	li	a2,32
	addi	a1,a1,%lo(secp256r1N)
.LM475:
	sw	ra,12(sp)
	.cfi_offset 1, -4
.LM476:
	call	bflb_ecc_get_random_value
.LVL279:
.LM477:
	lw	ra,12(sp)
	.cfi_restore 1
.LM478:
	addi	a0,a0,1
	seqz	a0,a0
.LM479:
	neg	a0,a0
	addi	sp,sp,16
	.cfi_def_cfa_offset 0
	jr	ra
	.cfi_endproc
.LFE22:
	.size	bflb_ecdsa_get_private_key, .-bflb_ecdsa_get_private_key
	.section	.text.bflb_ecdsa_sign,"ax",@progbits
	.align	1
	.globl	bflb_ecdsa_sign
	.type	bflb_ecdsa_sign, @function
bflb_ecdsa_sign:
.LVL280:
.LFB23:
.LM480:
	.cfi_startproc
.LM481:
.LM482:
.LM483:
.LM484:
.LM485:
.LM486:
.LM487:
	seqz	a6,a5
.LM488:
	seqz	a7,a4
.LM489:
	or	a7,a7,a6
.LM490:
	seqz	a6,a3
.LM491:
	or	a6,a6,a7
	bne	a6,zero,.L95
	beq	a1,zero,.L95
.LM492:
	addi	sp,sp,-192
	.cfi_def_cfa_offset 192
	sw	s7,156(sp)
	.cfi_offset 23, -36
	mv	s7,a5
.LM493:
	lui	a5,%hi(secp256r1N)
.LVL281:
.LM494:
	sw	s1,180(sp)
	sw	s2,176(sp)
	sw	s3,172(sp)
	sw	s4,168(sp)
	sw	s5,164(sp)
	sw	s6,160(sp)
	sw	s8,152(sp)
	sw	s9,148(sp)
	sw	ra,188(sp)
	sw	s0,184(sp)
	.cfi_offset 9, -12
	.cfi_offset 18, -16
	.cfi_offset 19, -20
	.cfi_offset 20, -24
	.cfi_offset 21, -28
	.cfi_offset 22, -32
	.cfi_offset 24, -40
	.cfi_offset 25, -44
	.cfi_offset 1, -4
	.cfi_offset 8, -8
	mv	s6,a4
	mv	s9,a3
	mv	s2,a2
	mv	s8,a1
	mv	s5,a0
	li	s1,100
.LM495:
	li	s3,-1
.LM496:
	addi	s4,a5,%lo(secp256r1N)
.LVL282:
.L90:
.LM497:
.LM498:
	li	a2,32
.LM499:
	bne	s2,zero,.L87
.LM500:
.LM501:
	lui	a1,%hi(secp256r1N)
	addi	a1,a1,%lo(secp256r1N)
	addi	a0,sp,16
	call	bflb_ecc_get_random_value
.LVL283:
.LM502:
	li	a5,-1
	bne	a0,a5,.L88
.LVL284:
.L86:
.LM503:
	li	a0,-1
	j	.L85
.LVL285:
.L87:
.LM504:
	mv	a1,s2
	addi	a0,sp,16
	call	memcpy
.LVL286:
.L88:
.LM505:
.LM506:
	addi	a5,sp,80
	addi	a4,sp,48
	addi	a3,sp,16
	li	a2,0
	li	a1,0
	mv	a0,s5
	call	bflb_ecdh_get_public_key
.LVL287:
.LM507:
	beq	a0,s3,.L86
.LM508:
.LM509:
	li	a1,32
	addi	a0,sp,48
	call	bflb_ecc_is_zero
.LVL288:
.LM510:
	beq	a0,zero,.L89
.L91:
.LM511:
.LVL289:
.LM512:
	addi	s1,s1,-1
.LVL290:
.LM513:
	bne	s1,zero,.L90
	j	.L86
.L89:
.LM514:
	li	a2,32
	addi	a1,sp,48
	mv	a0,s6
	call	memcpy
.LVL291:
.LM515:
	mv	a0,s5
	call	bflb_ecc_basic_parameter_init
.LVL292:
.LM516:
	li	a4,0
	li	a3,8
	addi	a2,sp,16
	li	a1,5
	li	a0,3
	call	Sec_Eng_PKA_Write_Data
.LVL293:
.LM517:
	li	a4,0
	li	a3,8
	mv	a2,s4
	li	a1,0
	li	a0,3
	call	Sec_Eng_PKA_Write_Data
.LVL294:
.LM518:
	li	a3,1
	li	a2,8
	li	a1,13
	li	a0,3
	call	Sec_Eng_PKA_CREG
.LVL295:
.LM519:
	li	a3,1
	li	a2,8
	li	a1,14
	li	a0,3
	call	Sec_Eng_PKA_CREG
.LVL296:
.LM520:
	li	a7,3
	li	a3,5
	mv	a2,a7
	mv	a0,a7
	mv	a1,a3
	li	a6,7
	li	a5,4
	li	a4,256
	sw	zero,0(sp)
	call	Sec_Eng_PKA_GF2Mont
.LVL297:
.LM521:
	li	a4,3
	mv	a2,a4
	mv	a0,a4
	li	a6,1
	li	a5,0
	li	a3,5
	li	a1,6
.LM522:
	li	s0,3
.LM523:
	call	Sec_Eng_PKA_MINV
.LVL298:
.LM524:
	li	a7,7
	li	a6,4
	li	a5,2
	mv	a4,s0
	li	a3,6
	mv	a2,s0
	li	a1,5
	mv	a0,s0
	sw	zero,4(sp)
	sw	s0,0(sp)
	call	Sec_Eng_PKA_Mont2GF
.LVL299:
.LM525:
	li	a3,8
	addi	a2,sp,112
	li	a1,5
	mv	a0,s0
	call	Sec_Eng_PKA_Read_Data
.LVL300:
.LM526:
	li	a4,0
	li	a3,8
	mv	a2,s8
	li	a1,4
	mv	a0,s0
	call	Sec_Eng_PKA_Write_Data
.LVL301:
.LM527:
	li	a4,0
	li	a3,8
	mv	a2,s6
	li	a1,5
	mv	a0,s0
	call	Sec_Eng_PKA_Write_Data
.LVL302:
.LM528:
	li	a6,1
	li	a5,5
	mv	a4,s0
	li	a3,4
	mv	a2,s0
	mv	a1,s0
	li	a0,6
	call	Sec_Eng_PKA_LMUL
.LVL303:
.LM529:
	li	a4,0
	li	a3,8
	mv	a2,s9
	li	a1,5
	mv	a0,s0
	call	Sec_Eng_PKA_Write_Data
.LVL304:
.LM530:
	li	a2,6
	li	a6,1
	li	a5,5
	mv	a0,a2
	mv	a4,s0
	mv	a3,s0
	mv	a1,s0
	call	Sec_Eng_PKA_LADD
.LVL305:
.LM531:
	li	a4,0
	li	a3,8
	addi	a2,sp,112
	li	a1,5
	mv	a0,s0
	call	Sec_Eng_PKA_Write_Data
.LVL306:
.LM532:
	li	a2,6
	li	a6,1
	li	a5,5
	mv	a0,a2
	mv	a4,s0
	mv	a3,s0
	mv	a1,s0
	call	Sec_Eng_PKA_LMUL
.LVL307:
.LM533:
	li	a4,0
	li	a3,8
	mv	a2,s4
	li	a1,0
	mv	a0,s0
	call	Sec_Eng_PKA_Write_Data
.LVL308:
.LM534:
	li	a6,1
	li	a5,0
	mv	a4,s0
	mv	a3,s0
	li	a2,6
	li	a1,4
	mv	a0,s0
	call	Sec_Eng_PKA_MREM
.LVL309:
.LM535:
	li	a1,4
	mv	a0,s0
	li	a3,8
	mv	a2,s7
	call	Sec_Eng_PKA_Read_Data
.LVL310:
.LM536:
.LM537:
	li	a1,32
	mv	a0,s7
	call	bflb_ecc_is_zero
.LVL311:
.LM538:
	bne	a0,zero,.L91
.LVL312:
.L85:
.LM539:
	lw	ra,188(sp)
	.cfi_restore 1
	lw	s0,184(sp)
	.cfi_restore 8
	lw	s1,180(sp)
	.cfi_restore 9
	lw	s2,176(sp)
	.cfi_restore 18
.LVL313:
.LM540:
	lw	s3,172(sp)
	.cfi_restore 19
	lw	s4,168(sp)
	.cfi_restore 20
	lw	s5,164(sp)
	.cfi_restore 21
.LVL314:
.LM541:
	lw	s6,160(sp)
	.cfi_restore 22
.LVL315:
.LM542:
	lw	s7,156(sp)
	.cfi_restore 23
.LVL316:
.LM543:
	lw	s8,152(sp)
	.cfi_restore 24
.LVL317:
.LM544:
	lw	s9,148(sp)
	.cfi_restore 25
.LVL318:
.LM545:
	addi	sp,sp,192
	.cfi_def_cfa_offset 0
	jr	ra
.LVL319:
.L95:
.LM546:
	li	a0,-1
.LVL320:
.LM547:
	ret
	.cfi_endproc
.LFE23:
	.size	bflb_ecdsa_sign, .-bflb_ecdsa_sign
	.globl	secp256r1_Gy
	.section	.rodata.secp256r1_Gy,"a"
	.align	2
	.type	secp256r1_Gy, @object
	.size	secp256r1_Gy, 32
secp256r1_Gy:
	.base64	"hXH/GCWIXYXS6IaI3SHzJYtKuOS6GeRc3fJTV86VVgo="
	.globl	secp256r1_Gx
	.section	.rodata.secp256r1_Gx,"a"
	.align	2
	.type	secp256r1_Gx, @object
	.size	secp256r1_Gx, 32
secp256r1_Gx:
	.base64	"GJBfdqU3VcZ5+3Mrd2IlEHW6lfxf7bYBeecw1BipFDw="
	.globl	secp256r1_Zeroy
	.section	.rodata.secp256r1_Zeroy,"a"
	.align	2
	.type	secp256r1_Zeroy, @object
	.size	secp256r1_Zeroy, 32
secp256r1_Zeroy:
	.base64	"AAAAAP////7///////////////8AAAAAAAAAAAAAAAE="
	.globl	secp256r1_Zerox
	.section	.rodata.secp256r1_Zerox,"a"
	.align	2
	.type	secp256r1_Zerox, @object
	.size	secp256r1_Zerox, 32
secp256r1_Zerox:
	.zero	32
	.globl	secp256r1_1M1
	.section	.rodata.secp256r1_1M1,"a"
	.align	2
	.type	secp256r1_1M1, @object
	.size	secp256r1_1M1, 32
secp256r1_1M1:
	.base64	"AAAAAP////7///////////////8AAAAAAAAAAAAAAAA="
	.globl	secp256r1_1P1
	.section	.rodata.secp256r1_1P1,"a"
	.align	2
	.type	secp256r1_1P1, @object
	.size	secp256r1_1P1, 32
secp256r1_1P1:
	.base64	"AAAAAP////7///////////////8AAAAAAAAAAAAAAAI="
	.globl	secp256r1_BAR8
	.section	.rodata.secp256r1_BAR8,"a"
	.align	2
	.type	secp256r1_BAR8, @object
	.size	secp256r1_BAR8, 32
secp256r1_BAR8:
	.base64	"AAAAB/////f///////////////gAAAAAAAAAAAAAAAg="
	.globl	secp256r1_BAR4
	.section	.rodata.secp256r1_BAR4,"a"
	.align	2
	.type	secp256r1_BAR4, @object
	.size	secp256r1_BAR4, 32
secp256r1_BAR4:
	.base64	"AAAAA/////v///////////////wAAAAAAAAAAAAAAAQ="
	.globl	secp256r1_BAR3
	.section	.rodata.secp256r1_BAR3,"a"
	.align	2
	.type	secp256r1_BAR3, @object
	.size	secp256r1_BAR3, 32
secp256r1_BAR3:
	.base64	"AAAAAv////z///////////////0AAAAAAAAAAAAAAAM="
	.globl	secp256r1_BAR2
	.section	.rodata.secp256r1_BAR2,"a"
	.align	2
	.type	secp256r1_BAR2, @object
	.size	secp256r1_BAR2, 32
secp256r1_BAR2:
	.base64	"AAAAAf////3///////////////4AAAAAAAAAAAAAAAI="
	.globl	secp256r1_1
	.section	.rodata.secp256r1_1,"a"
	.align	2
	.type	secp256r1_1, @object
	.size	secp256r1_1, 32
secp256r1_1:
	.zero	31
	.ascii	"\001"
	.globl	secp256r1InvR_P
	.section	.rodata.secp256r1InvR_P,"a"
	.align	2
	.type	secp256r1InvR_P, @object
	.size	secp256r1InvR_P, 32
secp256r1InvR_P:
	.base64	"/////gAAAAP////9AAAAAgAAAAH////+AAAAAwAAAAA="
	.globl	secp256r1PrimeN_P
	.section	.rodata.secp256r1PrimeN_P,"a"
	.align	2
	.type	secp256r1PrimeN_P, @object
	.size	secp256r1PrimeN_P, 32
secp256r1PrimeN_P:
	.base64	"/////wAAAAIAAAAAAAAAAAAAAAEAAAAAAAAAAAAAAAE="
	.globl	secp256r1InvR_N
	.section	.rodata.secp256r1InvR_N,"a"
	.align	2
	.type	secp256r1InvR_N, @object
	.size	secp256r1InvR_N, 32
secp256r1InvR_N:
	.base64	"YNBmM0kFwekH+LYEHmB3Jbre8+JDVm+vzhvI95wZfHk="
	.globl	secp256r1PrimeN_N
	.section	.rodata.secp256r1PrimeN_N,"a"
	.align	2
	.type	secp256r1PrimeN_N, @object
	.size	secp256r1PrimeN_N, 32
secp256r1PrimeN_N:
	.base64	"YNBmM6nWKBxQ/nfsxYjG9kjJRAh9dNLkzNHIqu4AvE8="
	.globl	secp256r1N
	.section	.rodata.secp256r1N,"a"
	.align	2
	.type	secp256r1N, @object
	.size	secp256r1N, 32
secp256r1N:
	.base64	"/////wAAAAD//////////7zm+q2nF56E87nKwvxjJVE="
	.globl	secp256r1Gy
	.section	.rodata.secp256r1Gy,"a"
	.align	2
	.type	secp256r1Gy, @object
	.size	secp256r1Gy, 32
secp256r1Gy:
	.base64	"T+NC4v4af5uO5+tKfA+eFivOM1drMV7Oy7ZAaDe/UfU="
	.globl	secp256r1Gx
	.section	.rodata.secp256r1Gx,"a"
	.align	2
	.type	secp256r1Gx, @object
	.size	secp256r1Gx, 32
secp256r1Gx:
	.base64	"axfR8uEsQkf4vOblY6RA8ncDfYEt6zOg9KE5RdiYwpY="
	.globl	secp256r1B
	.section	.rodata.secp256r1B,"a"
	.align	2
	.type	secp256r1B, @object
	.size	secp256r1B, 32
secp256r1B:
	.base64	"WsY12Ko6k+ez671VdpiGvGUdBrDMU7D2O848PifSYEs="
	.globl	secp256r1P
	.section	.rodata.secp256r1P,"a"
	.align	2
	.type	secp256r1P, @object
	.size	secp256r1P, 32
secp256r1P:
	.base64	"/////wAAAAEAAAAAAAAAAAAAAAD///////////////8="
	.text
.Letext0:
	.section	.note.GNU-stack,"",@progbits
