	.file	"bflb_dsa.c"
	.option nopic
	.attribute arch, "rv32i2p1_m2p0_f2p2_c2p0_zicsr2p0_zmmul1p0_zca1p0_zcf1p0"
	.attribute unaligned_access, 0
	.attribute stack_align, 16
	.text
.Ltext0:
	.cfi_sections	.debug_frame
	.section	.text.bflb_dsa_get_reg_size,"ax",@progbits
	.align	1
	.type	bflb_dsa_get_reg_size, @function
bflb_dsa_get_reg_size:
.LVL0:
.LFB8:
.LM1:
	.cfi_startproc
.LM2:
	li	a4,1024
.LM3:
	mv	a5,a0
.LM4:
	beq	a0,a4,.L6
	bgtu	a0,a4,.L3
	li	a4,512
.LM5:
	li	a0,4
.LVL1:
.LM6:
	beq	a5,a4,.L2
	bgtu	a5,a4,.L4
	li	a4,64
.LM7:
	li	a0,1
.LM8:
	beq	a5,a4,.L2
	addi	a5,a5,-128
.LVL2:
.LM9:
	snez	a5,a5
.LVL3:
.LM10:
	addi	a0,a5,2
	ret
.LVL4:
.L4:
.LM11:
	li	a4,768
.LM12:
	li	a0,3
.LM13:
	bne	a5,a4,.L2
.LM14:
	li	a0,5
	ret
.LVL5:
.L3:
.LM15:
	li	a3,4096
	addi	a4,a3,-1024
.LM16:
	li	a0,9
.LVL6:
.LM17:
	beq	a5,a4,.L2
	bgtu	a5,a4,.L5
	li	a4,1536
.LM18:
	li	a0,7
.LM19:
	beq	a5,a4,.L2
	addi	a5,a5,-2048
.LVL7:
.LM20:
	snez	a5,a5
.LVL8:
.LM21:
	neg	a5,a5
	andi	a0,a5,-5
	addi	a0,a0,8
	ret
.LVL9:
.L5:
.LM22:
	li	a0,3
.LM23:
	bne	a5,a3,.L2
.LM24:
	li	a0,10
	ret
.LVL10:
.L6:
.LM25:
	li	a0,6
.LVL11:
.L2:
.LM26:
	ret
	.cfi_endproc
.LFE8:
	.size	bflb_dsa_get_reg_size, .-bflb_dsa_get_reg_size
	.section	.text.bflb_dsa_mexp_binary,"ax",@progbits
	.align	1
	.globl	bflb_dsa_mexp_binary
	.type	bflb_dsa_mexp_binary, @function
bflb_dsa_mexp_binary:
.LVL12:
.LFB9:
.LM27:
	.cfi_startproc
.LM28:
.LM29:
.LM30:
.LM31:
.LM32:
	addi	sp,sp,-176
	.cfi_def_cfa_offset 176
	sw	ra,172(sp)
	sw	s0,168(sp)
	sw	s1,164(sp)
	.cfi_offset 1, -4
	.cfi_offset 8, -8
	.cfi_offset 9, -12
	mv	s0,a0
	sw	s3,156(sp)
	sw	s4,152(sp)
	.cfi_offset 19, -20
	.cfi_offset 20, -24
	mv	s3,a2
.LVL13:
.LM33:
.LM34:
	mv	s4,a3
	sw	s5,148(sp)
	sw	s7,140(sp)
	.cfi_offset 21, -28
	.cfi_offset 23, -36
	mv	s5,a1
	sw	s8,136(sp)
	sw	s9,132(sp)
	sw	s10,128(sp)
	sw	s2,160(sp)
	.cfi_offset 24, -40
	.cfi_offset 25, -44
	.cfi_offset 26, -48
	.cfi_offset 18, -16
	mv	s10,a4
	sw	s6,144(sp)
	.cfi_offset 22, -32
.LM35:
	call	bflb_dsa_get_reg_size
.LVL14:
.LM36:
	mv	s7,a0
.LVL15:
.LM37:
.LM38:
	slli	a0,s0,1
	call	bflb_dsa_get_reg_size
.LVL16:
.LM39:
	lui	a1,%hi(.LANCHOR0)
	li	a2,128
	addi	a1,a1,%lo(.LANCHOR0)
.LM40:
	mv	s8,a0
.LVL17:
.LM41:
.LM42:
	mv	a0,sp
	call	memcpy
.LVL18:
.LM43:
	srli	s1,s0,5
.LVL19:
.LM44:
.LM45:
	slli	a3,s1,16
	li	a4,0
	srli	a3,a3,16
	mv	a2,s5
	li	a1,4
	mv	a0,s7
	call	Sec_Eng_PKA_Write_Data
.LVL20:
.LM46:
	li	a4,0
	li	a3,32
	mv	a2,sp
	li	a1,5
	mv	a0,s7
	call	Sec_Eng_PKA_Write_Data
.LVL21:
.LM47:
	slli	a3,s1,16
	li	a4,0
	srli	a3,a3,16
	mv	a2,s4
	li	a1,0
	mv	a0,s7
	call	Sec_Eng_PKA_Write_Data
.LVL22:
.LM48:
	andi	s9,s1,0xff
	li	a3,0
	mv	a2,s9
	li	a1,6
	mv	a0,s7
	call	Sec_Eng_PKA_CREG
.LVL23:
.LM49:
	li	a3,1
	mv	a2,s9
	li	a1,7
	mv	a0,s7
	call	Sec_Eng_PKA_CREG
.LVL24:
.LM50:
.LM51:
.LM52:
	srli	s0,s0,3
.LVL25:
.LM53:
	li	s1,0
.LVL26:
.L16:
.LM54:
.LM55:
	add	a5,s3,s1
.LM56:
	lbu	a5,0(a5)
	bne	a5,zero,.L17
.LM57:
	bltu	s1,s0,.L18
.L17:
.LM58:
.LM59:
	addi	s0,s0,-1
.LVL27:
.LM60:
.LM61:
	li	s4,1
.LVL28:
.LM62:
	li	s5,8
.LVL29:
.L19:
.LM63:
	bgeu	s0,s1,.L22
.LM64:
	mv	a0,s7
	mv	a3,s9
	mv	a2,s10
	li	a1,5
	call	Sec_Eng_PKA_Read_Data
.LVL30:
.LM65:
.LM66:
	lw	ra,172(sp)
	.cfi_remember_state
	.cfi_restore 1
	lw	s0,168(sp)
	.cfi_restore 8
.LVL31:
.LM67:
	lw	s1,164(sp)
	.cfi_restore 9
.LVL32:
.LM68:
	lw	s2,160(sp)
	.cfi_restore 18
	lw	s3,156(sp)
	.cfi_restore 19
.LVL33:
.LM69:
	lw	s4,152(sp)
	.cfi_restore 20
	lw	s5,148(sp)
	.cfi_restore 21
	lw	s6,144(sp)
	.cfi_restore 22
	lw	s7,140(sp)
	.cfi_restore 23
.LVL34:
.LM70:
	lw	s8,136(sp)
	.cfi_restore 24
.LVL35:
.LM71:
	lw	s9,132(sp)
	.cfi_restore 25
	lw	s10,128(sp)
	.cfi_restore 26
.LVL36:
.LM72:
	li	a0,0
	addi	sp,sp,176
	.cfi_def_cfa_offset 0
	jr	ra
.LVL37:
.L18:
	.cfi_restore_state
.LM73:
.LM74:
	addi	s1,s1,1
.LVL38:
.LM75:
	j	.L16
.LVL39:
.L22:
.LM76:
.LM77:
	add	a5,s3,s0
.LM78:
	lbu	s6,0(a5)
.LVL40:
.LM79:
.LM80:
.LM81:
.LM82:
	li	s2,0
.LVL41:
.L21:
.LM83:
.LM84:
.LM85:
	sll	a5,s4,s2
.LM86:
	and	a5,a5,s6
.LM87:
	beq	a5,zero,.L20
.LM88:
	li	a6,0
	li	a5,4
	mv	a4,s7
	li	a3,5
	mv	a2,s7
	li	a1,3
	mv	a0,s8
	call	Sec_Eng_PKA_LMUL
.LVL42:
.LM89:
	li	a6,1
	li	a5,0
	mv	a4,s7
	li	a3,3
	mv	a2,s8
	li	a1,5
	mv	a0,s7
	call	Sec_Eng_PKA_MREM
.LVL43:
.L20:
.LM90:
	li	a4,0
	li	a3,4
	mv	a2,s7
	li	a1,3
	mv	a0,s8
	call	Sec_Eng_PKA_LSQR
.LVL44:
.LM91:
	li	a6,1
	li	a5,0
	mv	a4,s7
	li	a3,3
	mv	a2,s8
	li	a1,4
	mv	a0,s7
.LM92:
	addi	s2,s2,1
.LVL45:
.LM93:
	call	Sec_Eng_PKA_MREM
.LVL46:
.LM94:
.LM95:
	bne	s2,s5,.L21
.LM96:
	addi	s0,s0,-1
.LVL47:
.LM97:
	j	.L19
	.cfi_endproc
.LFE9:
	.size	bflb_dsa_mexp_binary, .-bflb_dsa_mexp_binary
	.section	.text.bflb_dsa_mexp_mont,"ax",@progbits
	.align	1
	.globl	bflb_dsa_mexp_mont
	.type	bflb_dsa_mexp_mont, @function
bflb_dsa_mexp_mont:
.LVL48:
.LFB10:
.LM98:
	.cfi_startproc
.LM99:
.LM100:
	addi	sp,sp,-80
	.cfi_def_cfa_offset 80
	sw	ra,76(sp)
	sw	s0,72(sp)
	sw	s1,68(sp)
	sw	s2,64(sp)
	sw	s3,60(sp)
	sw	s4,56(sp)
	sw	s5,52(sp)
	sw	s6,48(sp)
	sw	s7,44(sp)
	sw	s8,40(sp)
	.cfi_offset 1, -4
	.cfi_offset 8, -8
	.cfi_offset 9, -12
	.cfi_offset 18, -16
	.cfi_offset 19, -20
	.cfi_offset 20, -24
	.cfi_offset 21, -28
	.cfi_offset 22, -32
	.cfi_offset 23, -36
	.cfi_offset 24, -40
.LM101:
	sw	a5,24(sp)
	mv	s8,a6
	mv	s1,a0
	mv	s5,a1
	mv	s6,a2
	mv	s7,a4
	sw	a3,28(sp)
.LM102:
	call	bflb_dsa_get_reg_size
.LVL49:
.LM103:
	mv	s2,a0
.LVL50:
.LM104:
.LM105:
	slli	a0,s1,1
	call	bflb_dsa_get_reg_size
.LVL51:
.LM106:
	srli	s0,s1,5
.LM107:
	lw	a2,28(sp)
	slli	s3,s0,16
	srli	s3,s3,16
.LM108:
	mv	s4,a0
.LVL52:
.LM109:
.LM110:
	mv	a3,s3
	mv	a0,s2
	li	a4,0
	li	a1,0
	call	Sec_Eng_PKA_Write_Data
.LVL53:
.LM111:
	lw	a2,24(sp)
	li	a4,1
	mv	a3,s3
	mv	a1,a4
	mv	a0,s2
	call	Sec_Eng_PKA_Write_Data
.LVL54:
.LM112:
	mv	a3,s3
	mv	a2,s7
	mv	a0,s2
	li	a4,1
	li	a1,2
	call	Sec_Eng_PKA_Write_Data
.LVL55:
.LM113:
	li	a4,0
	mv	a3,s3
	mv	a2,s5
	mv	a0,s2
	li	a1,4
	call	Sec_Eng_PKA_Write_Data
.LVL56:
.LM114:
	andi	s0,s0,0xff
.LVL57:
.LM115:
	mv	a2,s0
	mv	a0,s2
	li	a3,0
	li	a1,10
	call	Sec_Eng_PKA_CREG
.LVL58:
.LM116:
	mv	a2,s0
	mv	a0,s2
	li	a3,0
	li	a1,11
	call	Sec_Eng_PKA_CREG
.LVL59:
.LM117:
	li	a3,4
	mv	a7,s2
	mv	a5,s4
	li	a6,5
	mv	a4,s1
	mv	a2,s2
	mv	a1,a3
	mv	a0,s2
	sw	zero,0(sp)
	call	Sec_Eng_PKA_GF2Mont
.LVL60:
.LM118:
	mv	a3,s3
	mv	a2,s6
	mv	a0,s2
	li	a4,0
	li	a1,5
	call	Sec_Eng_PKA_Write_Data
.LVL61:
.LM119:
	li	a5,1
	mv	a6,s2
	mv	a4,s2
	li	a7,0
	sw	a5,0(sp)
	mv	a2,s2
	li	a5,5
	mv	a0,s2
	li	a3,4
	li	a1,6
	call	Sec_Eng_PKA_MEXP
.LVL62:
.LM120:
	mv	a2,s0
	mv	a0,s2
	li	a3,0
	li	a1,10
	call	Sec_Eng_PKA_CREG
.LVL63:
.LM121:
	mv	a2,s0
	mv	a0,s2
	li	a3,0
	li	a1,11
	call	Sec_Eng_PKA_CREG
.LVL64:
.LM122:
	mv	a6,s4
	sw	s2,0(sp)
	mv	a4,s2
	mv	a2,s2
	mv	a0,s2
	sw	zero,4(sp)
	li	a7,5
	li	a5,2
	li	a3,6
	li	a1,7
	call	Sec_Eng_PKA_Mont2GF
.LVL65:
.LM123:
	mv	a0,s2
	mv	a3,s0
	mv	a2,s8
	li	a1,7
	call	Sec_Eng_PKA_Read_Data
.LVL66:
.LM124:
.LM125:
	lw	ra,76(sp)
	.cfi_restore 1
	lw	s0,72(sp)
	.cfi_restore 8
	lw	s1,68(sp)
	.cfi_restore 9
.LVL67:
.LM126:
	lw	s2,64(sp)
	.cfi_restore 18
.LVL68:
.LM127:
	lw	s3,60(sp)
	.cfi_restore 19
	lw	s4,56(sp)
	.cfi_restore 20
.LVL69:
.LM128:
	lw	s5,52(sp)
	.cfi_restore 21
.LVL70:
.LM129:
	lw	s6,48(sp)
	.cfi_restore 22
.LVL71:
.LM130:
	lw	s7,44(sp)
	.cfi_restore 23
.LVL72:
.LM131:
	lw	s8,40(sp)
	.cfi_restore 24
.LVL73:
.LM132:
	li	a0,0
	addi	sp,sp,80
	.cfi_def_cfa_offset 0
.LVL74:
.LM133:
	jr	ra
	.cfi_endproc
.LFE10:
	.size	bflb_dsa_mexp_mont, .-bflb_dsa_mexp_mont
	.section	.text.bflb_dsa_decrypt_crt,"ax",@progbits
	.align	1
	.globl	bflb_dsa_decrypt_crt
	.type	bflb_dsa_decrypt_crt, @function
bflb_dsa_decrypt_crt:
.LVL75:
.LFB11:
.LM134:
	.cfi_startproc
.LM135:
.LM136:
	addi	sp,sp,-320
	.cfi_def_cfa_offset 320
	sw	ra,316(sp)
	sw	s0,312(sp)
	sw	s1,308(sp)
	.cfi_offset 1, -4
	.cfi_offset 8, -8
	.cfi_offset 9, -12
	mv	s0,a2
	sw	s2,304(sp)
	sw	s3,300(sp)
	sw	s4,296(sp)
	sw	s5,292(sp)
	.cfi_offset 18, -16
	.cfi_offset 19, -20
	.cfi_offset 20, -24
	.cfi_offset 21, -28
.LM137:
	mv	s2,a0
	mv	s5,a4
	sw	a1,28(sp)
.LM138:
	call	bflb_dsa_get_reg_size
.LVL76:
.LM139:
	mv	s3,a0
.LVL77:
.LM140:
.LM141:
	slli	a0,s2,1
	call	bflb_dsa_get_reg_size
.LVL78:
.LM142:
	lw	a5,20(s0)
	lw	a4,16(s0)
	lw	a3,12(s0)
	lw	a2,0(s0)
	lw	a1,28(sp)
.LM143:
	mv	s4,a0
.LVL79:
.LM144:
.LM145:
	addi	a6,sp,32
	mv	a0,s2
	call	bflb_dsa_mexp_mont
.LVL80:
.LM146:
	lw	a5,32(s0)
	lw	a4,28(s0)
	lw	a3,24(s0)
	lw	a2,4(s0)
	lw	a1,28(sp)
.LM147:
	srli	s1,s2,5
.LVL81:
.LM148:
.LM149:
.LM150:
.LM151:
	addi	a6,sp,160
	mv	a0,s2
.LM152:
	slli	s2,s1,16
.LVL82:
.LM153:
	call	bflb_dsa_mexp_mont
.LVL83:
.LM154:
	srli	s2,s2,16
	mv	a3,s2
	addi	a2,sp,32
	mv	a0,s3
	li	a4,0
	li	a1,4
	call	Sec_Eng_PKA_Write_Data
.LVL84:
.LM155:
	mv	a3,s2
	addi	a2,sp,160
	mv	a0,s3
	li	a4,0
	li	a1,5
	call	Sec_Eng_PKA_Write_Data
.LVL85:
.LM156:
	lw	a2,8(s0)
	mv	a3,s2
	mv	a0,s3
	li	a4,0
	li	a1,6
	call	Sec_Eng_PKA_Write_Data
.LVL86:
.LM157:
	lw	a2,12(s0)
	mv	a3,s2
	mv	a0,s3
	li	a4,0
	li	a1,7
	call	Sec_Eng_PKA_Write_Data
.LVL87:
.LM158:
	lw	a2,24(s0)
	mv	a3,s2
	mv	a0,s3
	li	a4,0
	li	a1,8
	call	Sec_Eng_PKA_Write_Data
.LVL88:
.LM159:
	li	s2,1
	li	a3,4
	li	a7,7
	mv	a6,s3
	mv	a4,s3
	li	a5,5
	sw	s2,0(sp)
	mv	a2,s3
	mv	a1,a3
	mv	a0,s3
	call	Sec_Eng_PKA_MSUB
.LVL89:
.LM160:
	andi	s1,s1,0xff
.LVL90:
.LM161:
	mv	a2,s1
	mv	a0,s3
	li	a3,0
	li	a1,10
	call	Sec_Eng_PKA_CREG
.LVL91:
.LM162:
	mv	a2,s1
	mv	a0,s3
	li	a3,0
	li	a1,11
	call	Sec_Eng_PKA_CREG
.LVL92:
.LM163:
	mv	a6,s2
	mv	a4,s3
	mv	a2,s3
	mv	a0,s4
	li	a5,4
	li	a3,6
	li	a1,5
	call	Sec_Eng_PKA_LMUL
.LVL93:
.LM164:
	mv	a6,s2
	mv	a4,s3
	li	a5,7
	mv	a2,s4
	mv	a0,s3
	li	a3,5
	li	a1,9
	call	Sec_Eng_PKA_MREM
.LVL94:
.LM165:
	mv	a2,s1
	mv	a0,s3
	li	a3,0
	li	a1,10
	call	Sec_Eng_PKA_CREG
.LVL95:
.LM166:
	mv	a2,s1
	mv	a0,s3
	li	a3,0
	li	a1,11
	call	Sec_Eng_PKA_CREG
.LVL96:
.LM167:
	mv	a6,s2
	mv	a4,s3
	mv	a2,s3
	mv	a0,s4
	li	a5,8
	li	a3,9
	li	a1,5
	call	Sec_Eng_PKA_LMUL
.LVL97:
.LM168:
	li	a5,5
	mv	a6,s2
	mv	a4,s3
	mv	a3,a5
	mv	a2,s4
	mv	a1,a5
	mv	a0,s4
	call	Sec_Eng_PKA_LADD
.LVL98:
.LM169:
	slli	a3,s1,1
	mv	a0,s4
	mv	a2,s5
	andi	a3,a3,254
	li	a1,5
	call	Sec_Eng_PKA_Read_Data
.LVL99:
.LM170:
.LM171:
	lw	ra,316(sp)
	.cfi_restore 1
	lw	s0,312(sp)
	.cfi_restore 8
.LVL100:
.LM172:
	lw	s1,308(sp)
	.cfi_restore 9
	lw	s2,304(sp)
	.cfi_restore 18
	lw	s3,300(sp)
	.cfi_restore 19
.LVL101:
.LM173:
	lw	s4,296(sp)
	.cfi_restore 20
.LVL102:
.LM174:
	lw	s5,292(sp)
	.cfi_restore 21
.LVL103:
.LM175:
	li	a0,0
	addi	sp,sp,320
	.cfi_def_cfa_offset 0
.LVL104:
.LM176:
	jr	ra
	.cfi_endproc
.LFE11:
	.size	bflb_dsa_decrypt_crt, .-bflb_dsa_decrypt_crt
	.section	.text.bflb_dsa_init,"ax",@progbits
	.align	1
	.globl	bflb_dsa_init
	.type	bflb_dsa_init, @function
bflb_dsa_init:
.LVL105:
.LFB12:
.LM177:
	.cfi_startproc
.LM178:
.LM179:
	li	a0,0
.LVL106:
.LM180:
	ret
	.cfi_endproc
.LFE12:
	.size	bflb_dsa_init, .-bflb_dsa_init
	.section	.rodata
	.align	2
	.set	.LANCHOR0,. + 0
.LC0:
	.zero	127
	.ascii	"\001"
	.text
.Letext0:
	.section	.note.GNU-stack,"",@progbits
