	.file	"bflb_hash.c"
	.option nopic
	.attribute arch, "rv32i2p1_m2p0_f2p2_c2p0_zicsr2p0_zmmul1p0_zca1p0_zcf1p0"
	.attribute unaligned_access, 0
	.attribute stack_align, 16
	.text
.Ltext0:
	.cfi_sections	.debug_frame
	.section	.rodata.bflb_hash_init.str1.4,"aMS",@progbits,1
	.align	2
.LC0:
	.string	"unsupported type\r\n"
	.section	.text.bflb_hash_init,"ax",@progbits
	.align	1
	.globl	bflb_hash_init
	.type	bflb_hash_init, @function
bflb_hash_init:
.LVL0:
.LFB8:
.LM1:
	.cfi_startproc
.LM2:
.LM3:
.LM4:
	addi	sp,sp,-16
	.cfi_def_cfa_offset 16
	sw	s0,8(sp)
	sw	s1,4(sp)
	sw	ra,12(sp)
	.cfi_offset 8, -8
	.cfi_offset 9, -12
	.cfi_offset 1, -4
.LM5:
	li	a5,1
.LM6:
	mv	s0,a0
	mv	s1,a1
.LM7:
	beq	a1,a5,.L2
	li	a5,2
	beq	a1,a5,.L3
.LM8:
.LVL1:
.LM9:
	lui	a0,%hi(.LC0)
.LVL2:
.LM10:
	addi	a0,a0,%lo(.LC0)
	call	bflb_platform_printf
.LVL3:
.LM11:
.LM12:
.LM13:
	li	a0,-1
.LVL4:
.L1:
.LM14:
	lw	ra,12(sp)
	.cfi_remember_state
	.cfi_restore 1
	lw	s0,8(sp)
	.cfi_restore 8
.LVL5:
.LM15:
	lw	s1,4(sp)
	.cfi_restore 9
.LVL6:
.LM16:
	addi	sp,sp,16
	.cfi_def_cfa_offset 0
	jr	ra
.LVL7:
.L2:
	.cfi_restore_state
.LM17:
	addi	a4,a0,64
	mv	a3,a0
	mv	a2,a1
.L7:
.LM18:
	lui	a0,%hi(shaCtx)
	addi	a0,a0,%lo(shaCtx)
	li	a1,0
.LVL8:
.LM19:
	call	Sec_Eng_SHA256_Init
.LVL9:
.LM20:
.LM21:
.LM22:
.LM23:
	li	a0,0
.LM24:
.LM25:
	sb	s1,128(s0)
.LM26:
	j	.L1
.LVL10:
.L3:
.LM27:
	addi	a4,a0,64
	mv	a3,a0
	li	a2,0
	j	.L7
	.cfi_endproc
.LFE8:
	.size	bflb_hash_init, .-bflb_hash_init
	.section	.text.bflb_hash_start,"ax",@progbits
	.align	1
	.globl	bflb_hash_start
	.type	bflb_hash_start, @function
bflb_hash_start:
.LVL11:
.LFB9:
.LM28:
	.cfi_startproc
.LM29:
.LM30:
.LM31:
	addi	sp,sp,-16
	.cfi_def_cfa_offset 16
	sw	ra,12(sp)
	.cfi_offset 1, -4
.LM32:
	lbu	a5,128(a0)
.LM33:
	li	a4,2
	bgtu	a5,a4,.L9
	bne	a5,zero,.L10
.LVL12:
.L11:
.LM34:
	li	a0,0
.LVL13:
.L8:
.LM35:
	lw	ra,12(sp)
	.cfi_remember_state
	.cfi_restore 1
	addi	sp,sp,16
	.cfi_def_cfa_offset 0
	jr	ra
.LVL14:
.L9:
	.cfi_restore_state
.LM36:
	addi	a5,a5,-3
	andi	a5,a5,0xff
	li	a4,1
	bleu	a5,a4,.L11
.LM37:
	lui	a0,%hi(.LC0)
.LVL15:
.LM38:
	addi	a0,a0,%lo(.LC0)
	call	bflb_platform_printf
.LVL16:
.LM39:
.LM40:
	li	a0,-1
.LVL17:
.LM41:
	j	.L8
.LVL18:
.L10:
.LM42:
	li	a0,0
.LVL19:
.LM43:
	call	Sec_Eng_SHA_Start
.LVL20:
.LM44:
	j	.L11
	.cfi_endproc
.LFE9:
	.size	bflb_hash_start, .-bflb_hash_start
	.section	.text.bflb_hash_update,"ax",@progbits
	.align	1
	.globl	bflb_hash_update
	.type	bflb_hash_update, @function
bflb_hash_update:
.LVL21:
.LFB10:
.LM45:
	.cfi_startproc
.LM46:
.LM47:
.LM48:
	addi	sp,sp,-16
	.cfi_def_cfa_offset 16
	sw	ra,12(sp)
	.cfi_offset 1, -4
.LM49:
	lbu	a5,128(a0)
.LM50:
	li	a4,2
	bgtu	a5,a4,.L16
	bne	a5,zero,.L17
.LVL22:
.L18:
.LM51:
	li	a0,0
.LVL23:
.L15:
.LM52:
	lw	ra,12(sp)
	.cfi_remember_state
	.cfi_restore 1
	addi	sp,sp,16
	.cfi_def_cfa_offset 0
	jr	ra
.LVL24:
.L16:
	.cfi_restore_state
.LM53:
	addi	a5,a5,-3
	andi	a5,a5,0xff
	li	a4,1
	bleu	a5,a4,.L18
.LM54:
	lui	a0,%hi(.LC0)
.LVL25:
.LM55:
	addi	a0,a0,%lo(.LC0)
	call	bflb_platform_printf
.LVL26:
.LM56:
.LM57:
	li	a0,-1
.LVL27:
.LM58:
	j	.L15
.LVL28:
.L17:
.LM59:
	lui	a0,%hi(shaCtx)
.LVL29:
.LM60:
	mv	a3,a2
.LM61:
	addi	a0,a0,%lo(shaCtx)
	mv	a2,a1
.LVL30:
.LM62:
	li	a1,0
.LVL31:
.LM63:
	call	Sec_Eng_SHA256_Update
.LVL32:
.LM64:
	j	.L18
	.cfi_endproc
.LFE10:
	.size	bflb_hash_update, .-bflb_hash_update
	.section	.text.bflb_hash_finish,"ax",@progbits
	.align	1
	.globl	bflb_hash_finish
	.type	bflb_hash_finish, @function
bflb_hash_finish:
.LVL33:
.LFB11:
.LM65:
	.cfi_startproc
.LM66:
.LM67:
.LM68:
	addi	sp,sp,-16
	.cfi_def_cfa_offset 16
	sw	ra,12(sp)
	.cfi_offset 1, -4
.LM69:
	lbu	a5,128(a0)
.LM70:
	li	a4,2
	bgtu	a5,a4,.L23
	bne	a5,zero,.L24
.LVL34:
.L25:
.LM71:
	li	a0,0
.LVL35:
.L22:
.LM72:
	lw	ra,12(sp)
	.cfi_remember_state
	.cfi_restore 1
	addi	sp,sp,16
	.cfi_def_cfa_offset 0
	jr	ra
.LVL36:
.L23:
	.cfi_restore_state
.LM73:
	addi	a5,a5,-3
	andi	a5,a5,0xff
	li	a4,1
	bleu	a5,a4,.L25
.LM74:
	lui	a0,%hi(.LC0)
.LVL37:
.LM75:
	addi	a0,a0,%lo(.LC0)
	call	bflb_platform_printf
.LVL38:
.LM76:
.LM77:
	li	a0,-1
.LVL39:
.LM78:
	j	.L22
.LVL40:
.L24:
.LM79:
	lui	a0,%hi(shaCtx)
.LVL41:
.LM80:
	mv	a2,a1
.LM81:
	addi	a0,a0,%lo(shaCtx)
	li	a1,0
.LVL42:
.LM82:
	call	Sec_Eng_SHA256_Finish
.LVL43:
.LM83:
	j	.L25
	.cfi_endproc
.LFE11:
	.size	bflb_hash_finish, .-bflb_hash_finish
	.section	.text.bflb_hash_deinit,"ax",@progbits
	.align	1
	.globl	bflb_hash_deinit
	.type	bflb_hash_deinit, @function
bflb_hash_deinit:
.LVL44:
.LFB12:
.LM84:
	.cfi_startproc
.LM85:
.LM86:
	addi	sp,sp,-16
	.cfi_def_cfa_offset 16
	sw	ra,12(sp)
	.cfi_offset 1, -4
.LM87:
	lbu	a4,128(a0)
	li	a5,4
	bleu	a4,a5,.L30
.LM88:
	lui	a0,%hi(.LC0)
.LVL45:
.LM89:
	addi	a0,a0,%lo(.LC0)
	call	bflb_platform_printf
.LVL46:
.LM90:
.LM91:
	li	a0,-1
.L29:
.LM92:
	lw	ra,12(sp)
	.cfi_remember_state
	.cfi_restore 1
	addi	sp,sp,16
	.cfi_def_cfa_offset 0
	jr	ra
.LVL47:
.L30:
	.cfi_restore_state
.LM93:
	li	a2,132
	li	a1,0
	call	memset
.LVL48:
.LM94:
.LM95:
	li	a0,0
	j	.L29
	.cfi_endproc
.LFE12:
	.size	bflb_hash_deinit, .-bflb_hash_deinit
	.section	.bss.shaCtx,"aw",@nobits
	.align	2
	.type	shaCtx, @object
	.size	shaCtx, 20
shaCtx:
	.zero	20
	.text
.Letext0:
	.section	.note.GNU-stack,"",@progbits
