	.file	"vfs_spi.c"
	.option nopic
	.attribute arch, "rv32i2p1_m2p0_f2p2_c2p0_zicsr2p0_zmmul1p0_zca1p0_zcf1p0"
	.attribute unaligned_access, 0
	.attribute stack_align, 16
	.text
.Ltext0:
	.cfi_sections	.debug_frame
	.section	.text.vfs_spi_open,"ax",@progbits
	.align	1
	.globl	vfs_spi_open
	.type	vfs_spi_open, @function
vfs_spi_open:
.LVL0:
.LFB5:
.LM1:
	.cfi_startproc
.LM2:
.LM3:
.LM4:
.LM5:
	beq	a1,zero,.L4
.LM6:
	lw	a5,0(a1)
.LM7:
	beq	a5,zero,.L4
.LM8:
.LM9:
	lbu	a3,17(a5)
	li	a4,1
.LM10:
	li	a0,0
.LVL1:
.LM11:
	bne	a3,a4,.L1
.LM12:
.LVL2:
.LM13:
.LM14:
	lw	a0,4(a5)
	tail	hal_spi_init
.LVL3:
.L4:
.LM15:
	li	a0,-22
.LVL4:
.L1:
.LM16:
	ret
	.cfi_endproc
.LFE5:
	.size	vfs_spi_open, .-vfs_spi_open
	.section	.text.vfs_spi_close,"ax",@progbits
	.align	1
	.globl	vfs_spi_close
	.type	vfs_spi_close, @function
vfs_spi_close:
.LVL5:
.LFB6:
.LM17:
	.cfi_startproc
.LM18:
.LM19:
.LM20:
.LM21:
	beq	a0,zero,.L11
.LM22:
	lw	a5,0(a0)
.LM23:
	beq	a5,zero,.L11
.LM24:
.LM25:
	lbu	a3,17(a5)
	li	a4,1
.LM26:
	li	a0,0
.LVL6:
.LM27:
	bne	a3,a4,.L6
.LM28:
.LM29:
	lw	a0,4(a5)
.LVL7:
.LM30:
.LM31:
	beq	a0,zero,.L11
.LM32:
.LM33:
	tail	hal_spi_finalize
.LVL8:
.L11:
.LM34:
	li	a0,-22
.LVL9:
.LM35:
.L6:
.LM36:
	ret
	.cfi_endproc
.LFE6:
	.size	vfs_spi_close, .-vfs_spi_close
	.section	.text.vfs_spi_read,"ax",@progbits
	.align	1
	.globl	vfs_spi_read
	.type	vfs_spi_read, @function
vfs_spi_read:
.LVL10:
.LFB7:
.LM37:
	.cfi_startproc
.LM38:
.LM39:
.LM40:
.LM41:
	beq	a0,zero,.L14
.LM42:
	lw	a5,0(a0)
.LM43:
	li	a0,-22
.LVL11:
.LM44:
	beq	a5,zero,.L18
.LM45:
.LM46:
	lw	a5,4(a5)
.LVL12:
.LM47:
.LM48:
	beq	a5,zero,.L18
.LM49:
	addi	sp,sp,-16
	.cfi_def_cfa_offset 16
	sw	s0,8(sp)
	.cfi_offset 8, -8
	mv	s0,a2
.LM50:
.LM51:
	slli	a2,a2,16
.LVL13:
.LM52:
	li	a3,-1
	srli	a2,a2,16
	mv	a0,a5
.LM53:
	sw	ra,12(sp)
	.cfi_offset 1, -4
.LM54:
	call	hal_spi_recv
.LVL14:
.LM55:
.LM56:
	bne	a0,zero,.L12
.LM57:
.LM58:
	mv	a0,s0
.LVL15:
.L12:
.LM59:
	lw	ra,12(sp)
	.cfi_restore 1
	lw	s0,8(sp)
	.cfi_restore 8
.LVL16:
.LM60:
	addi	sp,sp,16
	.cfi_def_cfa_offset 0
	jr	ra
.LVL17:
.L14:
.LM61:
	li	a0,-22
.LVL18:
.LM62:
	ret
.LVL19:
.L18:
.LM63:
	ret
	.cfi_endproc
.LFE7:
	.size	vfs_spi_read, .-vfs_spi_read
	.section	.text.vfs_spi_write,"ax",@progbits
	.align	1
	.globl	vfs_spi_write
	.type	vfs_spi_write, @function
vfs_spi_write:
.LVL20:
.LFB8:
.LM64:
	.cfi_startproc
.LM65:
.LM66:
.LM67:
.LM68:
	beq	a0,zero,.L23
.LM69:
	lw	a5,0(a0)
.LM70:
	li	a0,-22
.LVL21:
.LM71:
	beq	a5,zero,.L27
.LM72:
.LM73:
	lw	a5,4(a5)
.LVL22:
.LM74:
.LM75:
	beq	a5,zero,.L27
.LM76:
	addi	sp,sp,-16
	.cfi_def_cfa_offset 16
	sw	s0,8(sp)
	.cfi_offset 8, -8
	mv	s0,a2
.LM77:
.LM78:
	slli	a2,a2,16
.LVL23:
.LM79:
	li	a3,-1
	srli	a2,a2,16
	mv	a0,a5
.LM80:
	sw	ra,12(sp)
	.cfi_offset 1, -4
.LM81:
	call	hal_spi_send
.LVL24:
.LM82:
.LM83:
	bne	a0,zero,.L21
.LM84:
.LM85:
	mv	a0,s0
.LVL25:
.L21:
.LM86:
	lw	ra,12(sp)
	.cfi_restore 1
	lw	s0,8(sp)
	.cfi_restore 8
.LVL26:
.LM87:
	addi	sp,sp,16
	.cfi_def_cfa_offset 0
	jr	ra
.LVL27:
.L23:
.LM88:
	li	a0,-22
.LVL28:
.LM89:
	ret
.LVL29:
.L27:
.LM90:
	ret
	.cfi_endproc
.LFE8:
	.size	vfs_spi_write, .-vfs_spi_write
	.section	.rodata.vfs_spi_ioctl.str1.4,"aMS",@progbits,1
	.align	2
.LC0:
	.string	"vfs_spi.c"
	.align	2
.LC1:
	.string	"\033[32mINFO  \033[0m"
	.align	2
.LC2:
	.string	"[%10u][%s: %s:%4d] IOCTL_SPI_IOC_WR_MODE.\r\n"
	.align	2
.LC3:
	.string	"[%10u][%s: %s:%4d] IOCTL_SPI_IOC_WR_MAX_SPEED_HZ.\r\n"
	.align	2
.LC4:
	.string	"\033[31mERROR \033[0m"
	.align	2
.LC5:
	.string	"[%10u][%s: %s:%4d] NOT SUPPORT, IOCTL_SPI_IOC_WR_MODE32.\r\n"
	.align	2
.LC6:
	.string	"[%10u][%s: %s:%4d] IOCTL_SPI_IOC_MESSAGE_1.\r\n"
	.align	2
.LC7:
	.string	"[%10u][%s: %s:%4d] IOCTL_SPI_IOC_MESSAGE_2.\r\n"
	.section	.text.vfs_spi_ioctl,"ax",@progbits
	.align	1
	.globl	vfs_spi_ioctl
	.type	vfs_spi_ioctl, @function
vfs_spi_ioctl:
.LVL30:
.LFB9:
.LM91:
	.cfi_startproc
.LM92:
.LM93:
.LM94:
.LM95:
.LM96:
	beq	a0,zero,.L49
.LM97:
	lw	a5,0(a0)
.LM98:
	beq	a5,zero,.L49
.LM99:
.LM100:
	addi	sp,sp,-16
	.cfi_def_cfa_offset 16
	sw	ra,12(sp)
	sw	s0,8(sp)
	sw	s1,4(sp)
	sw	s2,0(sp)
	.cfi_offset 1, -4
	.cfi_offset 8, -8
	.cfi_offset 9, -12
	.cfi_offset 18, -16
.LM101:
	lw	s1,4(a5)
.LVL31:
.LM102:
.LM103:
	beq	s1,zero,.L51
.LM104:
	li	a5,11
	bgtu	a1,a5,.L51
	lui	a4,%hi(.L33)
	addi	a4,a4,%lo(.L33)
	slli	a5,a1,2
	add	a5,a5,a4
	lw	a4,0(a5)
	lui	a5,%hi(TrapNetCounter)
.LM105:
	lw	a5,%lo(TrapNetCounter)(a5)
	mv	s0,a2
	lui	s2,%hi(.LC0)
.LM106:
	jr	a4
	.section	.rodata.vfs_spi_ioctl,"a",@progbits
	.align	2
	.align	2
.L33:
	.word	.L37
	.word	.L37
	.word	.L35
	.word	.L35
	.word	.L35
	.word	.L35
	.word	.L36
	.word	.L36
	.word	.L35
	.word	.L35
	.word	.L34
	.word	.L32
	.section	.text.vfs_spi_ioctl
.L37:
.LM107:
.LM108:
.LM109:
.LBB12:
.LBI12:
.LM110:
.LBB13:
.LM111:
.LBE13:
.LBE12:
.LM112:
	beq	a5,zero,.L38
.LM113:
	call	xTaskGetTickCountFromISR
.LVL32:
.L56:
.LM114:
	mv	a1,a0
.LM115:
	lui	a2,%hi(.LC1)
	lui	a0,%hi(.LC2)
	addi	a3,s2,%lo(.LC0)
	addi	a0,a0,%lo(.LC2)
	li	a4,152
	addi	a2,a2,%lo(.LC1)
	call	bl_printk
.LVL33:
.LM116:
.LM117:
.LM118:
.LM119:
	lw	a1,0(s0)
.LM120:
	lw	s0,8(sp)
	.cfi_remember_state
	.cfi_restore 8
.LVL34:
.LM121:
	lw	ra,12(sp)
	.cfi_restore 1
	lw	s2,0(sp)
	.cfi_restore 18
.LM122:
	mv	a0,s1
.LM123:
	lw	s1,4(sp)
	.cfi_restore 9
.LVL35:
.LM124:
	addi	sp,sp,16
	.cfi_def_cfa_offset 0
.LM125:
	tail	hal_spi_set_rwmode
.LVL36:
.L38:
	.cfi_restore_state
.LM126:
	call	xTaskGetTickCount
.LVL37:
.LM127:
	j	.L56
.LVL38:
.L36:
.LM128:
.LM129:
.LM130:
.LBB14:
.LBI14:
.LM131:
.LBB15:
.LM132:
.LBE15:
.LBE14:
.LM133:
	beq	a5,zero,.L40
.LM134:
	call	xTaskGetTickCountFromISR
.LVL39:
.L57:
.LM135:
	mv	a1,a0
.LM136:
	lui	a2,%hi(.LC1)
	lui	a0,%hi(.LC3)
	addi	a3,s2,%lo(.LC0)
	addi	a0,a0,%lo(.LC3)
	li	a4,159
	addi	a2,a2,%lo(.LC1)
	call	bl_printk
.LVL40:
.LM137:
.LM138:
.LM139:
.LM140:
	lw	a1,0(s0)
.LM141:
	lw	s0,8(sp)
	.cfi_remember_state
	.cfi_restore 8
.LVL41:
.LM142:
	lw	ra,12(sp)
	.cfi_restore 1
	lw	s2,0(sp)
	.cfi_restore 18
.LM143:
	mv	a0,s1
.LM144:
	lw	s1,4(sp)
	.cfi_restore 9
.LVL42:
.LM145:
	addi	sp,sp,16
	.cfi_def_cfa_offset 0
.LM146:
	tail	hal_spi_set_rwspeed
.LVL43:
.L40:
	.cfi_restore_state
.LM147:
	call	xTaskGetTickCount
.LVL44:
.LM148:
	j	.L57
.LVL45:
.L35:
.LM149:
.LM150:
.LM151:
.LBB16:
.LBI16:
.LM152:
.LBB17:
.LM153:
.LBE17:
.LBE16:
.LM154:
	beq	a5,zero,.L42
.LM155:
	call	xTaskGetTickCountFromISR
.LVL46:
.L58:
.LM156:
	mv	a1,a0
.LM157:
	lui	a2,%hi(.LC4)
	lui	a0,%hi(.LC5)
	addi	a0,a0,%lo(.LC5)
	li	a4,170
	addi	a3,s2,%lo(.LC0)
	addi	a2,a2,%lo(.LC4)
	call	bl_printk
.LVL47:
.LM158:
.LM159:
.LM160:
.LM161:
	li	a0,-1
.LVL48:
.L30:
.LM162:
	lw	ra,12(sp)
	.cfi_remember_state
	.cfi_restore 1
	lw	s0,8(sp)
	.cfi_restore 8
	lw	s1,4(sp)
	.cfi_restore 9
.LVL49:
.LM163:
	lw	s2,0(sp)
	.cfi_restore 18
	addi	sp,sp,16
	.cfi_def_cfa_offset 0
	jr	ra
.LVL50:
.L42:
	.cfi_restore_state
.LM164:
	call	xTaskGetTickCount
.LVL51:
.LM165:
	j	.L58
.LVL52:
.L34:
.LM166:
.LM167:
.LM168:
.LBB18:
.LBI18:
.LM169:
.LBB19:
.LM170:
.LBE19:
.LBE18:
.LM171:
	beq	a5,zero,.L44
.LM172:
	call	xTaskGetTickCountFromISR
.LVL53:
.L59:
.LM173:
	mv	a1,a0
.LM174:
	lui	a2,%hi(.LC1)
	lui	a0,%hi(.LC6)
	addi	a2,a2,%lo(.LC1)
	li	a4,175
	addi	a3,s2,%lo(.LC0)
	addi	a0,a0,%lo(.LC6)
	call	bl_printk
.LVL54:
.LM175:
.LM176:
.LM177:
.LM178:
	li	a2,1
.L61:
.LM179:
	mv	a1,s0
.LM180:
	lw	s0,8(sp)
	.cfi_remember_state
	.cfi_restore 8
.LVL55:
.LM181:
	lw	ra,12(sp)
	.cfi_restore 1
	lw	s2,0(sp)
	.cfi_restore 18
.LM182:
	mv	a0,s1
.LM183:
	lw	s1,4(sp)
	.cfi_restore 9
.LVL56:
.LM184:
	addi	sp,sp,16
	.cfi_def_cfa_offset 0
.LM185:
	tail	hal_spi_transfer
.LVL57:
.L44:
	.cfi_restore_state
.LM186:
	call	xTaskGetTickCount
.LVL58:
.LM187:
	j	.L59
.LVL59:
.L32:
.LM188:
.LM189:
.LM190:
.LBB20:
.LBI20:
.LM191:
.LBB21:
.LM192:
.LBE21:
.LBE20:
.LM193:
	beq	a5,zero,.L46
.LM194:
	call	xTaskGetTickCountFromISR
.LVL60:
.L60:
.LM195:
	mv	a1,a0
.LM196:
	lui	a2,%hi(.LC1)
	lui	a0,%hi(.LC7)
	addi	a2,a2,%lo(.LC1)
	li	a4,181
	addi	a3,s2,%lo(.LC0)
	addi	a0,a0,%lo(.LC7)
	call	bl_printk
.LVL61:
.LM197:
.LM198:
.LM199:
.LM200:
	li	a2,2
	j	.L61
.LVL62:
.L46:
.LM201:
	call	xTaskGetTickCount
.LVL63:
.LM202:
	j	.L60
.LVL64:
.L49:
	.cfi_def_cfa_offset 0
	.cfi_restore 1
	.cfi_restore 8
	.cfi_restore 9
	.cfi_restore 18
.LM203:
	li	a0,-22
.LVL65:
.LM204:
	ret
.LVL66:
.L51:
	.cfi_def_cfa_offset 16
	.cfi_offset 1, -4
	.cfi_offset 8, -8
	.cfi_offset 9, -12
	.cfi_offset 18, -16
.LM205:
	li	a0,-22
.LVL67:
.LM206:
	j	.L30
	.cfi_endproc
.LFE9:
	.size	vfs_spi_ioctl, .-vfs_spi_ioctl
	.globl	spi_ops
	.section	.rodata.spi_ops,"a"
	.align	2
	.type	spi_ops, @object
	.size	spi_ops, 28
spi_ops:
	.word	vfs_spi_open
	.word	vfs_spi_close
	.word	vfs_spi_read
	.word	vfs_spi_write
	.word	vfs_spi_ioctl
	.zero	8
	.text
.Letext0:
	.section	.note.GNU-stack,"",@progbits
