	.file	"vfs_adc.c"
	.option nopic
	.attribute arch, "rv32i2p1_m2p0_f2p2_c2p0_zicsr2p0_zmmul1p0_zca1p0_zcf1p0"
	.attribute unaligned_access, 0
	.attribute stack_align, 16
	.text
.Ltext0:
	.cfi_sections	.debug_frame
	.section	.text.vfs_adc_notify,"ax",@progbits
	.align	1
	.type	vfs_adc_notify, @function
vfs_adc_notify:
.LVL0:
.LFB8:
.LM1:
	.cfi_startproc
.LM2:
.LM3:
.LM4:
	lw	a5,20(a0)
	beq	a5,zero,.L1
.LM5:
.LM6:
	lw	a4,16(a0)
.LM7:
	lhu	a5,6(a4)
	ori	a5,a5,1
	sh	a5,6(a4)
.LM8:
.LM9:
	lw	a5,20(a0)
	lw	a1,24(a0)
	lw	a0,16(a0)
.LVL1:
.LM10:
	jr	a5
.LVL2:
.L1:
.LM11:
	ret
	.cfi_endproc
.LFE8:
	.size	vfs_adc_notify, .-vfs_adc_notify
	.section	.text.vfs_adc_close,"ax",@progbits
	.align	1
	.globl	vfs_adc_close
	.type	vfs_adc_close, @function
vfs_adc_close:
.LVL3:
.LFB6:
.LM12:
	.cfi_startproc
.LM13:
.LM14:
.LM15:
.LM16:
	beq	a0,zero,.L6
.LM17:
	lw	a5,0(a0)
.LM18:
	beq	a5,zero,.L6
.LM19:
.LM20:
	lbu	a3,17(a5)
	li	a4,1
.LM21:
	li	a0,0
.LVL4:
.LM22:
	bne	a3,a4,.L10
.LM23:
.LM24:
	addi	sp,sp,-16
	.cfi_def_cfa_offset 16
	sw	ra,12(sp)
	sw	s0,8(sp)
	.cfi_offset 1, -4
	.cfi_offset 8, -8
.LM25:
	lw	s0,4(a5)
.LVL5:
.LM26:
.LM27:
	beq	s0,zero,.L8
.LM28:
	addi	a0,s0,12
	call	aos_mutex_free
.LVL6:
.LM29:
.LM30:
	mv	a0,s0
.LM31:
	lw	s0,8(sp)
	.cfi_restore 8
.LVL7:
.LM32:
	lw	ra,12(sp)
	.cfi_restore 1
	addi	sp,sp,16
	.cfi_def_cfa_offset 0
.LM33:
	tail	hal_adc_finalize
.LVL8:
.L6:
.LM34:
	li	a0,-22
.LVL9:
.LM35:
	ret
.LVL10:
.L8:
	.cfi_def_cfa_offset 16
	.cfi_offset 1, -4
	.cfi_offset 8, -8
.LM36:
	lw	ra,12(sp)
	.cfi_restore 1
	lw	s0,8(sp)
	.cfi_restore 8
.LVL11:
.LM37:
	li	a0,-22
.LVL12:
.LM38:
.LM39:
	addi	sp,sp,16
	.cfi_def_cfa_offset 0
	jr	ra
.LVL13:
.L10:
.LM40:
	ret
	.cfi_endproc
.LFE6:
	.size	vfs_adc_close, .-vfs_adc_close
	.section	.text.vfs_adc_poll,"ax",@progbits
	.align	1
	.type	vfs_adc_poll, @function
vfs_adc_poll:
.LVL14:
.LFB9:
.LM41:
	.cfi_startproc
.LM42:
.LM43:
	addi	sp,sp,-32
	.cfi_def_cfa_offset 32
	sw	s1,20(sp)
	sw	s3,12(sp)
	sw	s4,8(sp)
	sw	s5,4(sp)
	sw	s6,0(sp)
	sw	ra,28(sp)
	sw	s0,24(sp)
	sw	s2,16(sp)
	.cfi_offset 9, -12
	.cfi_offset 19, -20
	.cfi_offset 20, -24
	.cfi_offset 21, -28
	.cfi_offset 22, -32
	.cfi_offset 1, -4
	.cfi_offset 8, -8
	.cfi_offset 18, -16
.LM44:
	lw	a5,0(a0)
.LM45:
	mv	s3,a1
.LM46:
	li	a1,-1
.LVL15:
.LM47:
	lw	s0,4(a5)
.LVL16:
.LM48:
.LM49:
	mv	s4,a2
	mv	s5,a3
.LM50:
	addi	a0,s0,12
.LVL17:
.LM51:
	mv	s6,a4
	lui	s1,%hi(vfs_adc_notify)
.LM52:
	call	aos_mutex_lock
.LVL18:
.LM53:
.LM54:
	bne	s3,zero,.L14
.LM55:
	call	vTaskEnterCritical
.LVL19:
.LM56:
.LM57:
	addi	a1,s1,%lo(vfs_adc_notify)
.LM58:
	sw	zero,20(s0)
.LM59:
.LM60:
	sw	zero,24(s0)
.LM61:
	mv	a0,s0
	call	hal_adc_notify_unregister
.LVL20:
.LM62:
.L17:
.L15:
.LM63:
	call	vTaskExitCritical
.LVL21:
.LM64:
	addi	a0,s0,12
	call	aos_mutex_unlock
.LVL22:
.LM65:
.LM66:
	lw	ra,28(sp)
	.cfi_remember_state
	.cfi_restore 1
	lw	s0,24(sp)
	.cfi_restore 8
.LVL23:
.LM67:
	lw	s1,20(sp)
	.cfi_restore 9
	lw	s2,16(sp)
	.cfi_restore 18
	lw	s3,12(sp)
	.cfi_restore 19
.LVL24:
.LM68:
	lw	s4,8(sp)
	.cfi_restore 20
.LVL25:
.LM69:
	lw	s5,4(sp)
	.cfi_restore 21
.LVL26:
.LM70:
	lw	s6,0(sp)
	.cfi_restore 22
.LVL27:
.LM71:
	li	a0,0
	addi	sp,sp,32
	.cfi_def_cfa_offset 0
	jr	ra
.LVL28:
.L14:
	.cfi_restore_state
.LM72:
	call	vTaskEnterCritical
.LVL29:
.LM73:
.LM74:
	addi	a1,s1,%lo(vfs_adc_notify)
.LM75:
	sw	s4,20(s0)
.LM76:
.LM77:
	sw	s5,16(s0)
.LM78:
.LM79:
	sw	s6,24(s0)
.LM80:
	mv	a0,s0
	call	hal_adc_notify_register
.LVL30:
	j	.L17
	.cfi_endproc
.LFE9:
	.size	vfs_adc_poll, .-vfs_adc_poll
	.section	.text.vfs_adc_ioctl,"ax",@progbits
	.align	1
	.type	vfs_adc_ioctl, @function
vfs_adc_ioctl:
.LVL31:
.LFB10:
.LM81:
	.cfi_startproc
.LM82:
.LM83:
.LM84:
.LM85:
.LM86:
.LM87:
.LM88:
	beq	a0,zero,.L28
.LM89:
	lw	a4,0(a0)
	li	a5,-22
.LM90:
	beq	a4,zero,.L38
.LM91:
.LM92:
	lw	a0,4(a4)
.LVL32:
.LM93:
.LM94:
	beq	a0,zero,.L38
.LM95:
	li	a4,4
	bgtu	a1,a4,.L38
	lui	a5,%hi(.L21)
	addi	a5,a5,%lo(.L21)
	slli	a1,a1,2
.LVL33:
.LM96:
	add	a1,a1,a5
	lw	a5,0(a1)
.LM97:
	addi	sp,sp,-16
	.cfi_def_cfa_offset 16
	sw	ra,12(sp)
	.cfi_offset 1, -4
.LM98:
	jr	a5
	.section	.rodata.vfs_adc_ioctl,"a",@progbits
	.align	2
	.align	2
.L21:
	.word	.L25
	.word	.L24
	.word	.L23
	.word	.L22
	.word	.L20
	.section	.text.vfs_adc_ioctl
.L25:
.LM99:
.LM100:
	call	hal_adc_notify_register_config_disable
.LVL34:
.L41:
.LM101:
.LM102:
	li	a5,0
.LM103:
	beq	a0,zero,.L18
.LM104:
	li	a5,-5
.LVL35:
.L18:
.LM105:
	lw	ra,12(sp)
	.cfi_remember_state
	.cfi_restore 1
	mv	a0,a5
	addi	sp,sp,16
	.cfi_def_cfa_offset 0
	jr	ra
.LVL36:
.L24:
	.cfi_restore_state
.LM106:
.LM107:
	call	hal_adc_notify_register_config_high
.LVL37:
.LM108:
	j	.L41
.LVL38:
.L23:
.LM109:
.LM110:
	call	hal_adc_notify_register_config_low
.LVL39:
.LM111:
	j	.L41
.LVL40:
.L22:
.LM112:
	li	a5,-22
.LM113:
	beq	a2,zero,.L18
.LM114:
.LM115:
	lw	a1,0(a2)
	call	hal_adc_notify_register_config_higher
.LVL41:
.LM116:
	j	.L41
.LVL42:
.L20:
.LM117:
	li	a5,-22
.LM118:
	beq	a2,zero,.L18
.LM119:
.LM120:
	lw	a1,0(a2)
	call	hal_adc_notify_register_config_lower
.LVL43:
.LM121:
	j	.L41
.LVL44:
.L28:
	.cfi_def_cfa_offset 0
	.cfi_restore 1
.LM122:
	li	a5,-22
.LVL45:
.L38:
.LM123:
	mv	a0,a5
	ret
	.cfi_endproc
.LFE10:
	.size	vfs_adc_ioctl, .-vfs_adc_ioctl
	.section	.text.vfs_adc_read,"ax",@progbits
	.align	1
	.type	vfs_adc_read, @function
vfs_adc_read:
.LVL46:
.LFB7:
.LM124:
	.cfi_startproc
.LM125:
.LM126:
.LM127:
.LM128:
.LM129:
.LM130:
	beq	a0,zero,.L44
.LM131:
	addi	a2,a2,-4
.LVL47:
.LM132:
	bne	a2,zero,.L44
.LM133:
	lw	a4,0(a0)
.LM134:
	li	a5,-22
.LM135:
	beq	a4,zero,.L55
.LM136:
.LM137:
	lw	a0,4(a4)
.LVL48:
.LM138:
.LM139:
	beq	a0,zero,.L55
.LM140:
	addi	sp,sp,-32
	.cfi_def_cfa_offset 32
	sw	s0,24(sp)
.LM141:
	li	a2,-1
.LVL49:
	.cfi_offset 8, -8
.LM142:
	mv	s0,a1
.LM143:
.LM144:
	addi	a1,sp,12
.LVL50:
.LM145:
	sw	ra,28(sp)
	.cfi_offset 1, -4
.LM146:
	call	hal_adc_value_get
.LVL51:
.LM147:
.LM148:
	li	a5,-5
.LM149:
	bne	a0,zero,.L42
.LM150:
.LVL52:
.LM151:
	li	a2,4
	addi	a1,sp,12
	mv	a0,s0
	call	memcpy
.LVL53:
.LM152:
	li	a5,4
.LVL54:
.L42:
.LM153:
	lw	ra,28(sp)
	.cfi_restore 1
	lw	s0,24(sp)
	.cfi_restore 8
.LVL55:
.LM154:
	mv	a0,a5
	addi	sp,sp,32
	.cfi_def_cfa_offset 0
	jr	ra
.LVL56:
.L44:
.LM155:
	li	a5,-22
.LVL57:
.L55:
.LM156:
	mv	a0,a5
	ret
	.cfi_endproc
.LFE7:
	.size	vfs_adc_read, .-vfs_adc_read
	.section	.text.vfs_adc_open,"ax",@progbits
	.align	1
	.type	vfs_adc_open, @function
vfs_adc_open:
.LVL58:
.LFB5:
.LM157:
	.cfi_startproc
.LM158:
.LM159:
.LM160:
.LM161:
	addi	sp,sp,-16
	.cfi_def_cfa_offset 16
	sw	s0,8(sp)
	sw	ra,12(sp)
	sw	s1,4(sp)
	.cfi_offset 8, -8
	.cfi_offset 1, -4
	.cfi_offset 9, -12
.LM162:
	li	s0,-22
.LM163:
	beq	a1,zero,.L58
.LM164:
	lw	a5,0(a1)
.LM165:
	beq	a5,zero,.L58
.LM166:
.LM167:
	lbu	a3,17(a5)
	li	a4,1
.LM168:
	li	s0,0
.LM169:
	bne	a3,a4,.L58
.LM170:
.LM171:
	lw	s1,4(a5)
.LVL59:
.LM172:
.LM173:
	mv	a0,s1
.LVL60:
.LM174:
	call	hal_adc_init
.LVL61:
.LM175:
	mv	s0,a0
.LVL62:
.LM176:
.LM177:
	bne	a0,zero,.L58
.LM178:
	addi	a0,s1,12
	call	aos_mutex_new
.LVL63:
.L58:
.LM179:
	lw	ra,12(sp)
	.cfi_restore 1
	mv	a0,s0
	lw	s0,8(sp)
	.cfi_restore 8
	lw	s1,4(sp)
	.cfi_restore 9
	addi	sp,sp,16
	.cfi_def_cfa_offset 0
	jr	ra
	.cfi_endproc
.LFE5:
	.size	vfs_adc_open, .-vfs_adc_open
	.globl	adc_ops
	.section	.rodata.adc_ops,"a"
	.align	2
	.type	adc_ops, @object
	.size	adc_ops, 28
adc_ops:
	.word	vfs_adc_open
	.word	vfs_adc_close
	.word	vfs_adc_read
	.zero	4
	.word	vfs_adc_ioctl
	.word	vfs_adc_poll
	.zero	4
	.text
.Letext0:
	.section	.note.GNU-stack,"",@progbits
