	.file	"platform_gpio.c"
	.option nopic
	.attribute arch, "rv32i2p1_m2p0_f2p2_c2p0_zicsr2p0_zmmul1p0_zca1p0_zcf1p0"
	.attribute unaligned_access, 0
	.attribute stack_align, 16
	.text
.Ltext0:
	.cfi_sections	.debug_frame
	.section	.text.bflb_platform_init_uart_debug_gpio,"ax",@progbits
	.align	1
	.weak	bflb_platform_init_uart_debug_gpio
	.type	bflb_platform_init_uart_debug_gpio, @function
bflb_platform_init_uart_debug_gpio:
.LFB8:
.LM1:
	.cfi_startproc
.LM2:
.LM3:
.LM4:
.LM5:
.LM6:
.LM7:
.LM8:
.LM9:
	li	a5,65536
.LM10:
	addi	sp,sp,-32
	.cfi_def_cfa_offset 32
.LM11:
	addi	a5,a5,1808
	sw	a5,8(sp)
.LM12:
	addi	a0,sp,8
.LM13:
	li	a5,256
.LM14:
	sw	ra,28(sp)
	.cfi_offset 1, -4
.LM15:
	sh	a5,12(sp)
.LM16:
	call	GLB_GPIO_Init
.LVL0:
.LM17:
	li	a1,2
	li	a0,0
	call	GLB_UART_Fun_Sel
.LVL1:
.LM18:
.LM19:
.LM20:
.LM21:
.LM22:
	li	a5,1799
.LM23:
	addi	a0,sp,8
.LM24:
	sw	a5,8(sp)
.LM25:
	call	GLB_GPIO_Init
.LVL2:
.LM26:
	li	a1,3
	li	a0,7
	call	GLB_UART_Fun_Sel
.LVL3:
.LM27:
	lw	ra,28(sp)
	.cfi_restore 1
	addi	sp,sp,32
	.cfi_def_cfa_offset 0
	jr	ra
	.cfi_endproc
.LFE8:
	.size	bflb_platform_init_uart_debug_gpio, .-bflb_platform_init_uart_debug_gpio
	.section	.text.bflb_platform_deinit_uart_debug_gpio,"ax",@progbits
	.align	1
	.weak	bflb_platform_deinit_uart_debug_gpio
	.type	bflb_platform_deinit_uart_debug_gpio, @function
bflb_platform_deinit_uart_debug_gpio:
.LFB9:
.LM28:
	.cfi_startproc
.LM29:
.LM30:
.LM31:
.LM32:
.LM33:
.LM34:
.LM35:
.LM36:
	li	a5,33558528
.LM37:
	addi	sp,sp,-32
	.cfi_def_cfa_offset 32
.LM38:
	addi	a5,a5,-1264
	sw	a5,8(sp)
.LM39:
	addi	a0,sp,8
.LM40:
	li	a5,256
.LM41:
	sw	ra,28(sp)
	.cfi_offset 1, -4
.LM42:
	sh	a5,12(sp)
.LM43:
	call	GLB_GPIO_Init
.LVL4:
.LM44:
	li	a0,0
	call	GLB_UART_Sig_Swap_Set
.LVL5:
.LM45:
	li	a1,0
	li	a0,0
	call	GLB_UART_Fun_Sel
.LVL6:
.LM46:
.LM47:
.LM48:
	li	a5,4096
	addi	a5,a5,-1273
.LM49:
	addi	a0,sp,8
.LM50:
	sh	a5,8(sp)
.LM51:
	call	GLB_GPIO_Init
.LVL7:
.LM52:
	li	a1,7
	mv	a0,a1
	call	GLB_UART_Fun_Sel
.LVL8:
.LM53:
	lw	ra,28(sp)
	.cfi_restore 1
	addi	sp,sp,32
	.cfi_def_cfa_offset 0
	jr	ra
	.cfi_endproc
.LFE9:
	.size	bflb_platform_deinit_uart_debug_gpio, .-bflb_platform_deinit_uart_debug_gpio
	.text
.Letext0:
	.section	.note.GNU-stack,"",@progbits
