	.file	"platform_device.c"
	.option nopic
	.attribute arch, "rv32i2p1_m2p0_f2p2_c2p0_zicsr2p0_zmmul1p0_zca1p0_zcf1p0"
	.attribute unaligned_access, 0
	.attribute stack_align, 16
	.text
.Ltext0:
	.cfi_sections	.debug_frame
	.section	.text.bflb_platform_uart_dbg_init,"ax",@progbits
	.align	1
	.globl	bflb_platform_uart_dbg_init
	.type	bflb_platform_uart_dbg_init, @function
bflb_platform_uart_dbg_init:
.LVL0:
.LFB10:
.LM1:
	.cfi_startproc
.LM2:
.LM3:
	addi	sp,sp,-48
	.cfi_def_cfa_offset 48
.LM4:
	li	a2,16
	lui	a1,%hi(.LANCHOR0)
	addi	a1,a1,%lo(.LANCHOR0)
.LM5:
	sw	s0,40(sp)
	.cfi_offset 8, -8
	mv	s0,a0
.LM6:
	add	a0,sp,a2
.LVL1:
.LM7:
	sw	ra,44(sp)
	.cfi_offset 1, -4
.LM8:
	call	memcpy
.LVL2:
.LM9:
.LM10:
	lui	a5,%hi(.LC1)
	lw	a5,%lo(.LC1)(a5)
	sw	a5,12(sp)
.LM11:
	call	bflb_platform_init_uart_debug_gpio
.LVL3:
.LM12:
	lui	a1,%hi(uartBuf)
	lui	a0,%hi(uartRB)
	li	a4,0
	li	a3,0
	li	a2,64
	addi	a1,a1,%lo(uartBuf)
	addi	a0,a0,%lo(uartRB)
	call	Ring_Buffer_Init
.LVL4:
.LM13:
	li	a1,1
	li	a2,0
	mv	a0,a1
	call	GLB_Set_UART_CLK
.LVL5:
.LM14:
.LM15:
	li	a5,160002048
	addi	a5,a5,-2048
	sw	a5,16(sp)
.LM16:
.LM17:
	beq	s0,zero,.L2
.LM18:
.LM19:
	sw	s0,20(sp)
.L2:
.LM20:
	li	a0,16
	call	GLB_AHB_Slave1_Reset
.LVL6:
.LM21:
	li	a2,1
	li	a1,8
	li	a0,0
	call	UART_IntMask
.LVL7:
.LM22:
	li	a1,2
	li	a0,0
	call	UART_Disable
.LVL8:
.LM23:
	addi	a1,sp,16
	li	a0,0
	call	UART_Init
.LVL9:
.LM24:
	addi	a1,sp,12
	li	a0,0
	call	UART_FifoConfig
.LVL10:
.LM25:
	li	a1,1
	li	a0,0
	call	UART_TxFreeRun
.LVL11:
.LM26:
	li	a1,80
	li	a0,0
	call	UART_SetRxTimeoutValue
.LVL12:
.LM27:
	li	a2,0
	li	a1,3
	li	a0,0
	call	UART_IntMask
.LVL13:
.LM28:
	li	a2,0
	li	a1,4
	li	a0,0
	call	UART_IntMask
.LVL14:
.LM29:
	lui	a2,%hi(UART_RFR_Cbf)
	addi	a2,a2,%lo(UART_RFR_Cbf)
	li	a1,3
	li	a0,0
	call	UART_Int_Callback_Install
.LVL15:
.LM30:
	lui	a2,%hi(UART_RTO_Cbf)
	addi	a2,a2,%lo(UART_RTO_Cbf)
	li	a1,4
	li	a0,0
	call	UART_Int_Callback_Install
.LVL16:
.LM31:
	li	a0,45
	call	clic_enable_interrupt
.LVL17:
.LM32:
	li	a1,2
	li	a0,0
	call	UART_Enable
.LVL18:
.LM33:
	lw	ra,44(sp)
	.cfi_restore 1
	lw	s0,40(sp)
	.cfi_restore 8
.LVL19:
.LM34:
	addi	sp,sp,48
	.cfi_def_cfa_offset 0
	jr	ra
	.cfi_endproc
.LFE10:
	.size	bflb_platform_uart_dbg_init, .-bflb_platform_uart_dbg_init
	.section	.text.bflb_platform_usart_dbg_send,"ax",@progbits
	.align	1
	.globl	bflb_platform_usart_dbg_send
	.type	bflb_platform_usart_dbg_send, @function
bflb_platform_usart_dbg_send:
.LVL20:
.LFB11:
.LM35:
	.cfi_startproc
.LM36:
.LM37:
	mv	a2,a1
.LM38:
	mv	a1,a0
.LVL21:
.LM39:
	li	a0,0
.LVL22:
.LM40:
	tail	UART_SendData
.LVL23:
.LM41:
	.cfi_endproc
.LFE11:
	.size	bflb_platform_usart_dbg_send, .-bflb_platform_usart_dbg_send
	.section	.text.bflb_platform_uart_dbg_deinit,"ax",@progbits
	.align	1
	.globl	bflb_platform_uart_dbg_deinit
	.type	bflb_platform_uart_dbg_deinit, @function
bflb_platform_uart_dbg_deinit:
.LFB12:
.LM42:
	.cfi_startproc
.LM43:
.LM44:
	addi	sp,sp,-16
	.cfi_def_cfa_offset 16
.LM45:
	li	a1,2
	li	a0,0
.LM46:
	sw	ra,12(sp)
	.cfi_offset 1, -4
.LM47:
	call	UART_Disable
.LVL24:
.LM48:
	li	a0,16
	call	GLB_AHB_Slave1_Reset
.LVL25:
.LM49:
.LM50:
	lw	ra,12(sp)
	.cfi_restore 1
	addi	sp,sp,16
	.cfi_def_cfa_offset 0
.LM51:
	tail	bflb_platform_deinit_uart_debug_gpio
.LVL26:
	.cfi_endproc
.LFE12:
	.size	bflb_platform_uart_dbg_deinit, .-bflb_platform_uart_dbg_deinit
	.section	.text.bflb_platform_printf,"ax",@progbits
	.align	1
	.globl	bflb_platform_printf
	.type	bflb_platform_printf, @function
bflb_platform_printf:
.LVL27:
.LFB13:
.LM52:
	.cfi_startproc
.LM53:
.LM54:
.LM55:
.LM56:
	addi	sp,sp,-64
	.cfi_def_cfa_offset 64
	sw	a5,52(sp)
.LM57:
	lui	a5,%hi(uart_dbg_disable)
.LM58:
	lbu	a5,%lo(uart_dbg_disable)(a5)
.LM59:
	sw	ra,28(sp)
	sw	s0,24(sp)
	.cfi_offset 1, -36
	.cfi_offset 8, -40
.LM60:
	sw	a1,36(sp)
	sw	a2,40(sp)
	sw	a3,44(sp)
	sw	a4,48(sp)
	sw	a6,56(sp)
	sw	a7,60(sp)
.LM61:
	bne	a5,zero,.L10
.LM62:
	lui	s0,%hi(print_buf.0)
	mv	a2,a0
.LM63:
	addi	a3,sp,36
.LM64:
	li	a1,127
	addi	a0,s0,%lo(print_buf.0)
.LVL28:
.LM65:
	sw	a3,12(sp)
.LM66:
	call	vsnprintf
.LVL29:
.LM67:
.LM68:
.LM69:
	addi	a0,s0,%lo(print_buf.0)
	call	strlen
.LVL30:
	mv	a1,a0
.LM70:
	addi	a0,s0,%lo(print_buf.0)
	call	bflb_platform_usart_dbg_send
.LVL31:
.L10:
.LM71:
	lw	ra,28(sp)
	.cfi_restore 1
	lw	s0,24(sp)
	.cfi_restore 8
	addi	sp,sp,64
	.cfi_def_cfa_offset 0
	jr	ra
	.cfi_endproc
.LFE13:
	.size	bflb_platform_printf, .-bflb_platform_printf
	.section	.rodata.UART_RFR_Cbf.str1.4,"aMS",@progbits,1
	.align	2
.LC2:
	.string	"UART Recv Full\r\n"
	.section	.text.UART_RFR_Cbf,"ax",@progbits
	.align	1
	.type	UART_RFR_Cbf, @function
UART_RFR_Cbf:
.LFB8:
.LM72:
	.cfi_startproc
.LM73:
.LM74:
.LM75:
	addi	sp,sp,-32
	.cfi_def_cfa_offset 32
.LM76:
	li	a0,0
.LM77:
	sw	ra,28(sp)
	sw	s0,24(sp)
	.cfi_offset 1, -4
	.cfi_offset 8, -8
.LM78:
	call	UART_GetRxFifoCount
.LVL32:
.LM79:
	lui	a2,%hi(UART_ReceiveData)
	lui	s0,%hi(uartRB)
.LM80:
	mv	a1,a0
.LVL33:
.LM81:
	li	a3,0
	addi	a2,a2,%lo(UART_ReceiveData)
	addi	a0,s0,%lo(uartRB)
	call	Ring_Buffer_Write_Callback
.LVL34:
.LM82:
.LM83:
	li	a0,0
	call	UART_GetRxFifoCount
.LVL35:
.LM84:
.LM85:
	beq	a0,zero,.L13
.LM86:
	addi	a0,s0,%lo(uartRB)
.LVL36:
.LM87:
	call	Ring_Buffer_Get_Empty_Length
.LVL37:
.LM88:
	bne	a0,zero,.L13
.LBB8:
.LBI8:
.LM89:
.LBB9:
.LM90:
	lui	a0,%hi(.LC2)
	addi	a0,a0,%lo(.LC2)
	call	bflb_platform_printf
.LVL38:
.L17:
.LM91:
.LM92:
	li	a2,16
	mv	a1,sp
	li	a0,0
	call	UART_ReceiveData
.LVL39:
.LM93:
	li	a0,0
	call	UART_GetRxFifoCount
.LVL40:
	bne	a0,zero,.L17
.L13:
.LBE9:
.LBE8:
.LM94:
	lw	ra,28(sp)
	.cfi_restore 1
	lw	s0,24(sp)
	.cfi_restore 8
	addi	sp,sp,32
	.cfi_def_cfa_offset 0
	jr	ra
	.cfi_endproc
.LFE8:
	.size	UART_RFR_Cbf, .-UART_RFR_Cbf
	.section	.text.UART_RTO_Cbf,"ax",@progbits
	.align	1
	.type	UART_RTO_Cbf, @function
UART_RTO_Cbf:
.LFB36:
	.cfi_startproc
.LM95:
	tail	UART_RFR_Cbf
	.cfi_endproc
.LFE36:
	.size	UART_RTO_Cbf, .-UART_RTO_Cbf
	.section	.rodata.bflb_platform_dump.str1.4,"aMS",@progbits,1
	.align	2
.LC3:
	.string	"\r\n"
	.align	2
.LC4:
	.string	"%02x "
	.section	.text.bflb_platform_dump,"ax",@progbits
	.align	1
	.globl	bflb_platform_dump
	.type	bflb_platform_dump, @function
bflb_platform_dump:
.LVL41:
.LFB14:
.LM96:
	.cfi_startproc
.LM97:
.LM98:
.LM99:
	addi	sp,sp,-32
	.cfi_def_cfa_offset 32
.LM100:
	lui	a5,%hi(.LC3)
.LM101:
	sw	s1,20(sp)
	.cfi_offset 9, -12
.LM102:
	addi	s1,a5,%lo(.LC3)
.LM103:
	lui	a5,%hi(.LC4)
.LM104:
	sw	s0,24(sp)
	sw	s2,16(sp)
	sw	s3,12(sp)
	sw	s4,8(sp)
	sw	ra,28(sp)
	.cfi_offset 8, -8
	.cfi_offset 18, -16
	.cfi_offset 19, -20
	.cfi_offset 20, -24
	.cfi_offset 1, -4
.LM105:
	mv	s3,a0
.LVL42:
.LM106:
.LM107:
	mv	s4,a1
.LM108:
	li	s0,0
.LM109:
	addi	s2,a5,%lo(.LC4)
.LVL43:
.L22:
.LM110:
	bne	s0,s4,.L24
.LM111:
.LM112:
	lw	s0,24(sp)
	.cfi_remember_state
	.cfi_restore 8
.LVL44:
.LM113:
	lw	ra,28(sp)
	.cfi_restore 1
	lw	s1,20(sp)
	.cfi_restore 9
	lw	s2,16(sp)
	.cfi_restore 18
	lw	s3,12(sp)
	.cfi_restore 19
.LVL45:
.LM114:
	lw	s4,8(sp)
	.cfi_restore 20
.LVL46:
.LM115:
	lui	a0,%hi(.LC3)
.LM116:
.LM117:
	addi	a0,a0,%lo(.LC3)
.LM118:
	addi	sp,sp,32
	.cfi_def_cfa_offset 0
.LM119:
	tail	bflb_platform_printf
.LVL47:
.L24:
	.cfi_restore_state
.LM120:
.LM121:
	andi	a5,s0,15
.LM122:
	bne	a5,zero,.L23
.LM123:
	mv	a0,s1
	call	bflb_platform_printf
.LVL48:
.L23:
.LM124:
.LM125:
	add	a5,s3,s0
.LM126:
	lbu	a1,0(a5)
	mv	a0,s2
.LM127:
	addi	s0,s0,1
.LVL49:
.LM128:
	call	bflb_platform_printf
.LVL50:
.LM129:
	j	.L22
	.cfi_endproc
.LFE14:
	.size	bflb_platform_dump, .-bflb_platform_dump
	.section	.text.bflb_platform_prints,"ax",@progbits
	.align	1
	.globl	bflb_platform_prints
	.type	bflb_platform_prints, @function
bflb_platform_prints:
.LVL51:
.LFB15:
.LM130:
	.cfi_startproc
.LM131:
.LM132:
	addi	sp,sp,-16
	.cfi_def_cfa_offset 16
	sw	s0,8(sp)
	sw	ra,12(sp)
	.cfi_offset 8, -8
	.cfi_offset 1, -4
.LM133:
	mv	s0,a0
.LM134:
	call	strlen
.LVL52:
.LM135:
	mv	a1,a0
.LM136:
	mv	a0,s0
.LM137:
	lw	s0,8(sp)
	.cfi_restore 8
.LVL53:
.LM138:
	lw	ra,12(sp)
	.cfi_restore 1
	addi	sp,sp,16
	.cfi_def_cfa_offset 0
.LM139:
	tail	bflb_platform_usart_dbg_send
.LVL54:
.LM140:
	.cfi_endproc
.LFE15:
	.size	bflb_platform_prints, .-bflb_platform_prints
	.section	.text.bflb_platform_printx,"ax",@progbits
	.align	1
	.globl	bflb_platform_printx
	.type	bflb_platform_printx, @function
bflb_platform_printx:
.LVL55:
.LFB16:
.LM141:
	.cfi_startproc
.LM142:
.LM143:
.LM144:
.LM145:
	addi	sp,sp,-32
	.cfi_def_cfa_offset 32
.LM146:
	lui	a2,%hi(hexTable)
.LM147:
	mv	a5,a0
.LM148:
.LM149:
	sw	ra,28(sp)
	.cfi_offset 1, -4
.LM150:
	li	a4,7
.LM151:
	addi	a0,sp,8
.LVL56:
.LM152:
	addi	a2,a2,%lo(hexTable)
.LM153:
	li	a1,-1
.LVL57:
.L29:
.LM154:
.LM155:
	andi	a3,a5,15
.LM156:
	add	a3,a2,a3
.LM157:
	lbu	a3,0(a3)
	add	a6,a0,a4
.LM158:
	addi	a4,a4,-1
.LVL58:
.LM159:
	sb	a3,0(a6)
.LM160:
.LM161:
	srli	a5,a5,4
.LVL59:
.LM162:
.LM163:
	bne	a4,a1,.L29
.LM164:
	li	a1,8
	call	bflb_platform_usart_dbg_send
.LVL60:
.LM165:
	lw	ra,28(sp)
	.cfi_restore 1
	addi	sp,sp,32
	.cfi_def_cfa_offset 0
	jr	ra
	.cfi_endproc
.LFE16:
	.size	bflb_platform_printx, .-bflb_platform_printx
	.section	.text.bflb_platform_printc,"ax",@progbits
	.align	1
	.globl	bflb_platform_printc
	.type	bflb_platform_printc, @function
bflb_platform_printc:
.LVL61:
.LFB17:
.LM166:
	.cfi_startproc
.LM167:
.LM168:
	addi	sp,sp,-32
	.cfi_def_cfa_offset 32
	sb	a0,15(sp)
.LM169:
	addi	a1,sp,15
	li	a2,1
	li	a0,0
.LVL62:
.LM170:
	sw	ra,28(sp)
	.cfi_offset 1, -4
.LM171:
	call	UART_SendData
.LVL63:
.LM172:
	lw	ra,28(sp)
	.cfi_restore 1
	addi	sp,sp,32
	.cfi_def_cfa_offset 0
	jr	ra
	.cfi_endproc
.LFE17:
	.size	bflb_platform_printc, .-bflb_platform_printc
	.section	.text.bflb_platform_clear_time,"ax",@progbits
	.align	1
	.globl	bflb_platform_clear_time
	.type	bflb_platform_clear_time, @function
bflb_platform_clear_time:
.LFB18:
.LM173:
	.cfi_startproc
.LM174:
.LM175:
	li	a5,33603584
	li	a3,0
	li	a4,0
	sw	a3,-8(a5)
	sw	a4,-4(a5)
.LM176:
	ret
	.cfi_endproc
.LFE18:
	.size	bflb_platform_clear_time, .-bflb_platform_clear_time
	.section	.text.bflb_platform_get_time_ms,"ax",@progbits
	.align	1
	.globl	bflb_platform_get_time_ms
	.type	bflb_platform_get_time_ms, @function
bflb_platform_get_time_ms:
.LFB19:
.LM177:
	.cfi_startproc
.LM178:
.LM179:
.LVL64:
.LM180:
	addi	sp,sp,-32
	.cfi_def_cfa_offset 32
.LM181:
	li	a5,33603584
.LM182:
	li	a4,33603584
.LM183:
	sw	ra,28(sp)
	sw	s0,24(sp)
	sw	s1,20(sp)
	.cfi_offset 1, -4
	.cfi_offset 8, -8
	.cfi_offset 9, -12
.LM184:
	li	a3,5
.LM185:
	addi	a5,a5,-8
.LM186:
	addi	a4,a4,-4
.LVL65:
.L42:
.LM187:
.LM188:
.LM189:
	lw	a0,0(a5)
.LVL66:
.LM190:
.LM191:
	lw	a2,0(a4)
.LVL67:
.LM192:
.LM193:
	lw	s0,0(a5)
.LVL68:
.LM194:
.LM195:
	lw	a1,0(a4)
.LVL69:
.LM196:
.LM197:
.LM198:
	addi	a3,a3,-1
.LVL70:
.LM199:
	beq	a3,zero,.L36
.LVL71:
.LM200:
.LM201:
	bgtu	a0,s0,.L42
	bgtu	a2,a1,.L42
.LVL72:
.L36:
.LM202:
	sw	a1,12(sp)
.LM203:
.LM204:
	li	a5,1073803264
	lw	s1,264(a5)
.LM205:
	call	GLB_Get_BCLK_Div
.LVL73:
.LM206:
.LM207:
	addi	a0,a0,1
.LVL74:
.LM208:
	divu	a2,s1,a0
.LM209:
	lw	a1,12(sp)
.LM210:
	li	a5,1000
.LM211:
	srli	a2,a2,3
.LM212:
	divu	a2,a2,a5
.LVL75:
.LM213:
.LM214:
	bne	a1,zero,.L38
.LM215:
.LM216:
	divu	a0,s0,a2
.LVL76:
.L35:
.LM217:
	lw	ra,28(sp)
	.cfi_remember_state
	.cfi_restore 1
	lw	s0,24(sp)
	.cfi_restore 8
.LVL77:
.LM218:
	lw	s1,20(sp)
	.cfi_restore 9
.LM219:
	addi	sp,sp,32
	.cfi_def_cfa_offset 0
.LVL78:
.LM220:
	jr	ra
.LVL79:
.L38:
	.cfi_restore_state
.LM221:
.LM222:
	li	a3,0
	mv	a0,s0
	call	__udivdi3
.LVL80:
.LM223:
	j	.L35
	.cfi_endproc
.LFE19:
	.size	bflb_platform_get_time_ms, .-bflb_platform_get_time_ms
	.section	.text.bflb_platform_start_time,"ax",@progbits
	.align	1
	.globl	bflb_platform_start_time
	.type	bflb_platform_start_time, @function
bflb_platform_start_time:
.LFB34:
	.cfi_startproc
.LM224:
	tail	bflb_platform_clear_time
	.cfi_endproc
.LFE34:
	.size	bflb_platform_start_time, .-bflb_platform_start_time
	.section	.text.bflb_platform_stop_time,"ax",@progbits
	.align	1
	.globl	bflb_platform_stop_time
	.type	bflb_platform_stop_time, @function
bflb_platform_stop_time:
.LFB21:
.LM225:
	.cfi_startproc
.LM226:
	ret
	.cfi_endproc
.LFE21:
	.size	bflb_platform_stop_time, .-bflb_platform_stop_time
	.section	.text.bflb_platform_set_alarm_time,"ax",@progbits
	.align	1
	.globl	bflb_platform_set_alarm_time
	.type	bflb_platform_set_alarm_time, @function
bflb_platform_set_alarm_time:
.LVL81:
.LFB22:
.LM227:
	.cfi_startproc
.LM228:
.LM229:
.LM230:
	addi	sp,sp,-32
	.cfi_def_cfa_offset 32
	sw	s1,20(sp)
	sw	ra,28(sp)
	sw	s0,24(sp)
	.cfi_offset 9, -12
	.cfi_offset 1, -4
	.cfi_offset 8, -8
.LM231:
	sw	a1,12(sp)
.LM232:
	li	a5,1073803264
	lw	s0,264(a5)
.LM233:
	mv	s1,a0
.LM234:
	call	GLB_Get_BCLK_Div
.LVL82:
.LM235:
.LM236:
	addi	a0,a0,1
.LVL83:
.LM237:
	divu	a5,s0,a0
.LM238:
	li	a4,33603584
	lw	a2,-8(a4)
	lw	a3,-4(a4)
.LM239:
	li	a4,1000
.LM240:
	lw	a1,12(sp)
.LM241:
	li	a0,7
.LVL84:
.LM242:
	srli	a5,a5,3
.LVL85:
.LM243:
.LM244:
.LM245:
	divu	a5,a5,a4
.LVL86:
.LM246:
	mul	a4,a5,s1
	mul	a1,a1,a5
	mulhu	a5,a5,s1
.LVL87:
.LM247:
	add	a1,a1,a5
.LM248:
	add	a5,a4,a2
	sltu	a4,a5,a4
	mv	a2,a5
	add	a1,a1,a3
.LM249:
	li	a5,33570816
	sw	a2,0(a5)
.LM250:
	add	a3,a4,a1
.LM251:
	sw	a3,4(a5)
.LM252:
.LM253:
	lw	s0,24(sp)
	.cfi_restore 8
.LM254:
	lw	ra,28(sp)
	.cfi_restore 1
	lw	s1,20(sp)
	.cfi_restore 9
	addi	sp,sp,32
	.cfi_def_cfa_offset 0
.LM255:
	tail	clic_enable_interrupt
.LVL88:
	.cfi_endproc
.LFE22:
	.size	bflb_platform_set_alarm_time, .-bflb_platform_set_alarm_time
	.section	.text.bflb_platform_init_time,"ax",@progbits
	.align	1
	.globl	bflb_platform_init_time
	.type	bflb_platform_init_time, @function
bflb_platform_init_time:
.LFB23:
.LM256:
	.cfi_startproc
.LM257:
.LM258:
	addi	sp,sp,-16
	.cfi_def_cfa_offset 16
.LM259:
	li	a0,7
.LM260:
	sw	ra,12(sp)
	.cfi_offset 1, -4
.LM261:
	call	clic_disable_interrupt
.LVL89:
.LM262:
	li	a2,7
	li	a1,0
	li	a0,1
	call	GLB_Set_MTimer_CLK
.LVL90:
.LM263:
.LM264:
	lw	ra,12(sp)
	.cfi_restore 1
	addi	sp,sp,16
	.cfi_def_cfa_offset 0
.LM265:
	tail	bflb_platform_clear_time
.LVL91:
	.cfi_endproc
.LFE23:
	.size	bflb_platform_init_time, .-bflb_platform_init_time
	.section	.text.bflb_platform_deinit_time,"ax",@progbits
	.align	1
	.globl	bflb_platform_deinit_time
	.type	bflb_platform_deinit_time, @function
bflb_platform_deinit_time:
.LFB24:
.LM266:
	.cfi_startproc
.LM267:
	li	a0,7
	tail	clic_disable_interrupt
.LVL92:
	.cfi_endproc
.LFE24:
	.size	bflb_platform_deinit_time, .-bflb_platform_deinit_time
	.section	.text.bflb_platform_delay_ms,"ax",@progbits
	.align	1
	.globl	bflb_platform_delay_ms
	.type	bflb_platform_delay_ms, @function
bflb_platform_delay_ms:
.LVL93:
.LFB25:
.LM268:
	.cfi_startproc
.LM269:
.LM270:
.LM271:
	addi	sp,sp,-32
	.cfi_def_cfa_offset 32
	sw	s1,20(sp)
	sw	s2,16(sp)
	sw	s3,12(sp)
	sw	ra,28(sp)
	sw	s0,24(sp)
	.cfi_offset 9, -12
	.cfi_offset 18, -16
	.cfi_offset 19, -20
	.cfi_offset 1, -4
	.cfi_offset 8, -8
.LM272:
	li	a5,1073803264
	lw	s0,264(a5)
.LVL94:
.LM273:
.LM274:
.LM275:
	mv	s3,a0
.LM276:
	li	s1,0
.LM277:
	srli	s0,s0,15
.LVL95:
.LM278:
	mul	s0,s0,s3
.LM279:
	call	bflb_platform_clear_time
.LVL96:
.LM280:
.LM281:
	li	s2,0
.LM282:
	slli	s0,s0,1
.LVL97:
.L53:
.LM283:
.LM284:
	call	bflb_platform_get_time_ms
.LVL98:
.LM285:
	bne	a1,zero,.L52
	bleu	s3,a0,.L52
.LM286:
.LM287:
	addi	a5,s1,1
	sltu	a4,a5,s1
	add	s2,a4,s2
.LVL99:
.LM288:
.LM289:
	mv	s1,a5
.LM290:
	bne	s2,zero,.L52
	bleu	a5,s0,.L53
.LVL100:
.L52:
.LM291:
	lw	ra,28(sp)
	.cfi_restore 1
	lw	s0,24(sp)
	.cfi_restore 8
	lw	s1,20(sp)
	.cfi_restore 9
	lw	s2,16(sp)
	.cfi_restore 18
	lw	s3,12(sp)
	.cfi_restore 19
.LVL101:
.LM292:
	addi	sp,sp,32
	.cfi_def_cfa_offset 0
	jr	ra
	.cfi_endproc
.LFE25:
	.size	bflb_platform_delay_ms, .-bflb_platform_delay_ms
	.section	.rodata.bflb_platform_init.str1.4,"aMS",@progbits,1
	.align	2
.LC5:
	.string	"system clock=%dM\r\n"
	.section	.text.bflb_platform_init,"ax",@progbits
	.align	1
	.globl	bflb_platform_init
	.type	bflb_platform_init, @function
bflb_platform_init:
.LVL102:
.LFB26:
.LM293:
	.cfi_startproc
.LM294:
.LM295:
	lui	a5,%hi(init_flag)
.LM296:
	lw	a4,%lo(init_flag)(a5)
	bne	a4,zero,.L64
.LM297:
	addi	sp,sp,-16
	.cfi_def_cfa_offset 16
.LM298:
	li	a4,1
	sw	a4,%lo(init_flag)(a5)
.LM299:
	sw	ra,12(sp)
	sw	s0,8(sp)
	.cfi_offset 1, -4
	.cfi_offset 8, -8
	mv	s0,a0
.LM300:
.LM301:
	call	bflb_platform_init_time
.LVL103:
.LM302:
	call	Sec_Eng_Trng_Enable
.LVL104:
.LM303:
.LM304:
	lui	a5,%hi(uart_dbg_disable)
.LM305:
	lbu	a5,%lo(uart_dbg_disable)(a5)
	bne	a5,zero,.L59
.LM306:
	mv	a0,s0
	call	bflb_platform_uart_dbg_init
.LVL105:
.LM307:
.LM308:
	li	a5,1073803264
	lw	a1,264(a5)
.LM309:
	li	a5,999424
	addi	a5,a5,576
	divu	a1,a1,a5
.LM310:
	lw	s0,8(sp)
	.cfi_remember_state
	.cfi_restore 8
.LVL106:
.LM311:
	lw	ra,12(sp)
	.cfi_restore 1
.LM312:
	lui	a0,%hi(.LC5)
.LM313:
.LM314:
	addi	a0,a0,%lo(.LC5)
.LM315:
	addi	sp,sp,16
	.cfi_def_cfa_offset 0
.LM316:
	tail	bflb_platform_printf
.LVL107:
.L59:
	.cfi_restore_state
.LM317:
	lw	ra,12(sp)
	.cfi_restore 1
	lw	s0,8(sp)
	.cfi_restore 8
.LVL108:
.LM318:
	addi	sp,sp,16
	.cfi_def_cfa_offset 0
	jr	ra
.LVL109:
.L64:
.LM319:
	ret
	.cfi_endproc
.LFE26:
	.size	bflb_platform_init, .-bflb_platform_init
	.section	.text.bflb_platform_deinit,"ax",@progbits
	.align	1
	.globl	bflb_platform_deinit
	.type	bflb_platform_deinit, @function
bflb_platform_deinit:
.LFB27:
.LM320:
	.cfi_startproc
.LM321:
.LM322:
	lui	a5,%hi(init_flag)
.LM323:
	lw	a4,%lo(init_flag)(a5)
	beq	a4,zero,.L67
.LM324:
.LM325:
	addi	sp,sp,-16
	.cfi_def_cfa_offset 16
	sw	ra,12(sp)
	.cfi_offset 1, -4
.LM326:
	sw	zero,%lo(init_flag)(a5)
.LM327:
	call	bflb_platform_deinit_time
.LVL110:
.LM328:
	call	Sec_Eng_Trng_Disable
.LVL111:
.LM329:
.LM330:
	lui	a5,%hi(uart_dbg_disable)
.LM331:
	lbu	a5,%lo(uart_dbg_disable)(a5)
	bne	a5,zero,.L69
.LM332:
	call	bflb_platform_uart_dbg_deinit
.LVL112:
.L69:
.LM333:
.LM334:
	lw	ra,12(sp)
	.cfi_restore 1
	addi	sp,sp,16
	.cfi_def_cfa_offset 0
.LM335:
	tail	bflb_platform_deinit_time
.LVL113:
.L67:
	ret
	.cfi_endproc
.LFE27:
	.size	bflb_platform_deinit, .-bflb_platform_deinit
	.section	.text.bflb_platform_print_set,"ax",@progbits
	.align	1
	.globl	bflb_platform_print_set
	.type	bflb_platform_print_set, @function
bflb_platform_print_set:
.LVL114:
.LFB28:
.LM336:
	.cfi_startproc
.LM337:
.LM338:
	lui	a5,%hi(uart_dbg_disable)
	sb	a0,%lo(uart_dbg_disable)(a5)
.LM339:
	ret
	.cfi_endproc
.LFE28:
	.size	bflb_platform_print_set, .-bflb_platform_print_set
	.section	.text.bflb_platform_get_random,"ax",@progbits
	.align	1
	.globl	bflb_platform_get_random
	.type	bflb_platform_get_random, @function
bflb_platform_get_random:
.LVL115:
.LFB29:
.LM340:
	.cfi_startproc
.LM341:
.LM342:
.LM343:
.LM344:
.LM345:
	addi	sp,sp,-80
	.cfi_def_cfa_offset 80
	sw	s0,72(sp)
	sw	s1,68(sp)
	sw	s2,64(sp)
	sw	s3,60(sp)
	sw	ra,76(sp)
	.cfi_offset 8, -8
	.cfi_offset 9, -12
	.cfi_offset 18, -16
	.cfi_offset 19, -20
	.cfi_offset 1, -4
.LM346:
	mv	s3,a0
.LM347:
	li	s0,0
.LM348:
	addi	s1,sp,16
.LM349:
	li	s2,32
.LVL116:
.L75:
.LM350:
	bltu	s0,a1,.L79
.LM351:
	li	a0,0
.L74:
.LM352:
	lw	ra,76(sp)
	.cfi_remember_state
	.cfi_restore 1
	lw	s0,72(sp)
	.cfi_restore 8
.LVL117:
.LM353:
	lw	s1,68(sp)
	.cfi_restore 9
	lw	s2,64(sp)
	.cfi_restore 18
	lw	s3,60(sp)
	.cfi_restore 19
.LVL118:
.LM354:
	addi	sp,sp,80
	.cfi_def_cfa_offset 0
	jr	ra
.LVL119:
.L79:
	.cfi_restore_state
.LM355:
	mv	a0,s1
	sw	a1,12(sp)
.LM356:
.LM357:
	call	Sec_Eng_Trng_Read
.LVL120:
.LM358:
	bne	a0,zero,.L80
.LM359:
.LVL121:
.LM360:
.LM361:
	lw	a1,12(sp)
	sub	a4,a1,s0
.LVL122:
.LM362:
	bleu	a4,s2,.L77
	li	a4,32
.LVL123:
.L77:
.LM363:
.LM364:
.LM365:
	li	a5,0
.LVL124:
.L78:
.LM366:
.LM367:
	add	a2,s1,a5
.LM368:
	lbu	a2,0(a2)
	add	a3,s0,a5
	add	a3,s3,a3
	sb	a2,0(a3)
.LM369:
	addi	a5,a5,1
.LVL125:
.LM370:
	bne	a5,a4,.L78
.LM371:
.LM372:
	add	s0,s0,a5
.LVL126:
.LM373:
	j	.L75
.LVL127:
.L80:
.LM374:
	li	a0,-1
	j	.L74
	.cfi_endproc
.LFE29:
	.size	bflb_platform_get_random, .-bflb_platform_get_random
	.section	.text.bflb_platform_get_input,"ax",@progbits
	.align	1
	.globl	bflb_platform_get_input
	.type	bflb_platform_get_input, @function
bflb_platform_get_input:
.LVL128:
.LFB30:
.LM375:
	.cfi_startproc
.LM376:
.LM377:
	addi	sp,sp,-32
	.cfi_def_cfa_offset 32
	sw	s0,24(sp)
	.cfi_offset 8, -8
.LM378:
	lui	s0,%hi(uartRB)
.LM379:
	sw	s1,20(sp)
	.cfi_offset 9, -12
	mv	s1,a0
.LM380:
	addi	a0,s0,%lo(uartRB)
.LVL129:
.LM381:
	sw	a1,12(sp)
	sw	ra,28(sp)
	.cfi_offset 1, -4
.LM382:
	call	Ring_Buffer_Get_Length
.LVL130:
.LM383:
.LM384:
.LM385:
	lw	a1,12(sp)
	bleu	a0,a1,.L84
	mv	a0,a1
.LVL131:
.L84:
.LM386:
	slli	a2,a0,16
	mv	a1,s1
	addi	a0,s0,%lo(uartRB)
	srli	a2,a2,16
	call	Ring_Buffer_Read
.LVL132:
.LM387:
	lw	ra,28(sp)
	.cfi_restore 1
	lw	s0,24(sp)
	.cfi_restore 8
	lw	s1,20(sp)
	.cfi_restore 9
.LVL133:
.LM388:
	addi	sp,sp,32
	.cfi_def_cfa_offset 0
.LVL134:
.LM389:
	jr	ra
	.cfi_endproc
.LFE30:
	.size	bflb_platform_get_input, .-bflb_platform_get_input
	.section	.bss.print_buf.0,"aw",@nobits
	.align	2
	.type	print_buf.0, @object
	.size	print_buf.0, 128
print_buf.0:
	.zero	128
	.section	.sbss.init_flag,"aw",@nobits
	.align	2
	.type	init_flag, @object
	.size	init_flag, 4
init_flag:
	.zero	4
	.section	.bss.uartBuf,"aw",@nobits
	.align	2
	.type	uartBuf, @object
	.size	uartBuf, 64
uartBuf:
	.zero	64
	.section	.bss.uartRB,"aw",@nobits
	.align	2
	.type	uartRB, @object
	.size	uartRB, 24
uartRB:
	.zero	24
	.section	.sbss.systick_int_cnt,"aw",@nobits
	.align	2
	.type	systick_int_cnt, @object
	.size	systick_int_cnt, 4
systick_int_cnt:
	.zero	4
	.section	.rodata.hexTable,"a"
	.align	2
	.type	hexTable, @object
	.size	hexTable, 16
hexTable:
	.ascii	"0123456789ABCDEF"
	.section	.sbss.uart_dbg_disable,"aw",@nobits
	.type	uart_dbg_disable, @object
	.size	uart_dbg_disable, 1
uart_dbg_disable:
	.zero	1
	.section	.rodata
	.align	2
	.set	.LANCHOR0,. + 0
.LC0:
	.word	32000000
	.word	2000000
	.byte	3
	.byte	0
	.byte	0
	.byte	0
	.byte	0
	.byte	0
	.byte	0
	.zero	1
	.section	.srodata,"a"
	.align	2
.LC1:
	.byte	16
	.byte	16
	.byte	0
	.byte	0
	.text
.Letext0:
	.section	.note.GNU-stack,"",@progbits
