	.file	"print_lock.c"
	.option nopic
	.attribute arch, "rv32i2p1_m2p0_f2p2_c2p0_zicsr2p0_zmmul1p0_zca1p0_zcf1p0"
	.attribute unaligned_access, 0
	.attribute stack_align, 16
	.text
.Ltext0:
	.cfi_sections	.debug_frame
	.section	.text.print_init,"ax",@progbits
	.align	1
	.globl	print_init
	.type	print_init, @function
print_init:
.LFB4:
.LM1:
	.cfi_startproc
.LM2:
.LM3:
	addi	sp,sp,-16
	.cfi_def_cfa_offset 16
.LM4:
	li	a0,1
.LM5:
	sw	ra,12(sp)
	.cfi_offset 1, -4
.LM6:
	call	xQueueCreateMutex
.LVL0:
.LM7:
	lw	ra,12(sp)
	.cfi_restore 1
.LM8:
	lui	a5,%hi(g_print_mutex)
	sw	a0,%lo(g_print_mutex)(a5)
.LM9:
	addi	sp,sp,16
	.cfi_def_cfa_offset 0
	jr	ra
	.cfi_endproc
.LFE4:
	.size	print_init, .-print_init
	.section	.text.safe_printf,"ax",@progbits
	.align	1
	.globl	safe_printf
	.type	safe_printf, @function
safe_printf:
.LVL1:
.LFB5:
.LM10:
	.cfi_startproc
.LM11:
.LM12:
	addi	sp,sp,-64
	.cfi_def_cfa_offset 64
	sw	s0,24(sp)
	.cfi_offset 8, -40
.LM13:
	lui	s0,%hi(g_print_mutex)
.LM14:
	sw	a5,52(sp)
.LM15:
	lw	a5,%lo(g_print_mutex)(s0)
.LM16:
	sw	ra,28(sp)
	sw	s1,20(sp)
	.cfi_offset 1, -36
	.cfi_offset 9, -44
.LM17:
	sw	a1,36(sp)
	sw	a2,40(sp)
	sw	a3,44(sp)
	sw	a4,48(sp)
	sw	a6,56(sp)
	sw	a7,60(sp)
.LM18:
	beq	a5,zero,.L3
	mv	s1,a0
.LM19:
	li	a1,-1
	mv	a0,a5
.LVL2:
.LM20:
	call	xQueueSemaphoreTake
.LVL3:
.LM21:
.LM22:
	addi	a1,sp,36
.LM23:
	mv	a0,s1
.LM24:
	sw	a1,12(sp)
.LM25:
	call	vprintf
.LVL4:
.LM26:
.LM27:
	lw	a0,%lo(g_print_mutex)(s0)
	li	a3,0
	li	a2,0
	li	a1,0
	call	xQueueGenericSend
.LVL5:
.L3:
.LM28:
	lw	ra,28(sp)
	.cfi_restore 1
	lw	s0,24(sp)
	.cfi_restore 8
	lw	s1,20(sp)
	.cfi_restore 9
	addi	sp,sp,64
	.cfi_def_cfa_offset 0
	jr	ra
	.cfi_endproc
.LFE5:
	.size	safe_printf, .-safe_printf
	.globl	g_print_mutex
	.section	.sbss.g_print_mutex,"aw",@nobits
	.align	2
	.type	g_print_mutex, @object
	.size	g_print_mutex, 4
g_print_mutex:
	.zero	4
	.text
.Letext0:
	.section	.note.GNU-stack,"",@progbits
