	.file	"safe_print.c"
	.option nopic
	.attribute arch, "rv32i2p1_m2p0_f2p2_c2p0_zicsr2p0_zmmul1p0_zca1p0_zcf1p0"
	.attribute unaligned_access, 0
	.attribute stack_align, 16
	.text
.Ltext0:
	.cfi_sections	.debug_frame
	.section	.rodata.print_task.str1.4,"aMS",@progbits,1
	.align	2
.LC0:
	.string	"%s\n"
	.section	.text.print_task,"ax",@progbits
	.align	1
	.type	print_task, @function
print_task:
.LVL0:
.LFB4:
.LM1:
	.cfi_startproc
.LM2:
	addi	sp,sp,-144
	.cfi_def_cfa_offset 144
.LM3:
	lui	a5,%hi(.LC0)
.LM4:
	sw	s0,136(sp)
	sw	s1,132(sp)
	sw	s2,128(sp)
	sw	ra,140(sp)
	.cfi_offset 8, -8
	.cfi_offset 9, -12
	.cfi_offset 18, -16
	.cfi_offset 1, -4
.LM5:
	lui	s0,%hi(print_queue)
.LM6:
	li	s1,1
.LM7:
	addi	s2,a5,%lo(.LC0)
.LVL1:
.L2:
.LM8:
.LM9:
.LM10:
.LM11:
.LM12:
	lw	a0,%lo(print_queue)(s0)
	li	a2,-1
	mv	a1,sp
	call	xQueueReceive
.LVL2:
.LM13:
	bne	a0,s1,.L2
.LM14:
	mv	a1,sp
	mv	a0,s2
	call	printf
.LVL3:
	j	.L2
	.cfi_endproc
.LFE4:
	.size	print_task, .-print_task
	.section	.rodata.safe_print_init.str1.4,"aMS",@progbits,1
	.align	2
.LC1:
	.string	"print_task"
	.section	.text.safe_print_init,"ax",@progbits
	.align	1
	.globl	safe_print_init
	.type	safe_print_init, @function
safe_print_init:
.LFB5:
.LM15:
	.cfi_startproc
.LM16:
.LM17:
	addi	sp,sp,-16
	.cfi_def_cfa_offset 16
.LM18:
	li	a2,0
	li	a1,128
	li	a0,16
.LM19:
	sw	ra,12(sp)
	.cfi_offset 1, -4
.LM20:
	call	xQueueGenericCreate
.LVL4:
.LM21:
	lui	a5,%hi(print_queue)
	sw	a0,%lo(print_queue)(a5)
.LM22:
.LM23:
	bne	a0,zero,.L7
.LM24:
	call	vAssertCalled
.LVL5:
.L7:
.LM25:
.LM26:
	lw	ra,12(sp)
	.cfi_restore 1
.LM27:
	lui	a1,%hi(.LC1)
	lui	a0,%hi(print_task)
.LM28:
.LM29:
	li	a5,0
	li	a4,2
	li	a3,0
	li	a2,512
	addi	a1,a1,%lo(.LC1)
	addi	a0,a0,%lo(print_task)
.LM30:
	addi	sp,sp,16
	.cfi_def_cfa_offset 0
.LM31:
	tail	xTaskCreate
.LVL6:
	.cfi_endproc
.LFE5:
	.size	safe_print_init, .-safe_print_init
	.section	.text.safe_printf,"ax",@progbits
	.align	1
	.globl	safe_printf
	.type	safe_printf, @function
safe_printf:
.LVL7:
.LFB6:
.LM32:
	.cfi_startproc
.LM33:
.LM34:
	addi	sp,sp,-192
	.cfi_def_cfa_offset 192
	sw	s0,152(sp)
	.cfi_offset 8, -40
.LM35:
	lui	s0,%hi(print_queue)
.LM36:
	sw	a5,180(sp)
.LM37:
	lw	a5,%lo(print_queue)(s0)
.LM38:
	sw	ra,156(sp)
	.cfi_offset 1, -36
.LM39:
	sw	a1,164(sp)
	sw	a2,168(sp)
	sw	a3,172(sp)
	sw	a4,176(sp)
	sw	a6,184(sp)
	sw	a7,188(sp)
.LM40:
	beq	a5,zero,.L9
	mv	a2,a0
.LM41:
.LM42:
.LM43:
	addi	a3,sp,164
.LM44:
	li	a1,128
	addi	a0,sp,16
.LVL8:
.LM45:
	sw	a3,12(sp)
.LM46:
	call	vsnprintf
.LVL9:
.LM47:
.LM48:
	lw	a0,%lo(print_queue)(s0)
	li	a3,0
	li	a2,0
	addi	a1,sp,16
	call	xQueueGenericSend
.LVL10:
.L9:
.LM49:
	lw	ra,156(sp)
	.cfi_restore 1
	lw	s0,152(sp)
	.cfi_restore 8
	addi	sp,sp,192
	.cfi_def_cfa_offset 0
	jr	ra
	.cfi_endproc
.LFE6:
	.size	safe_printf, .-safe_printf
	.section	.sbss.print_queue,"aw",@nobits
	.align	2
	.type	print_queue, @object
	.size	print_queue, 4
print_queue:
	.zero	4
	.text
.Letext0:
	.section	.note.GNU-stack,"",@progbits
