	.file	"cli.c"
	.option nopic
	.attribute arch, "rv32i2p1_m2p0_f2p2_c2p0_zicsr2p0_zmmul1p0_zca1p0_zcf1p0"
	.attribute unaligned_access, 0
	.attribute stack_align, 16
	.text
.Ltext0:
	.cfi_sections	.debug_frame
	.section	.text.cli_command_get,"ax",@progbits
	.align	1
	.type	cli_command_get, @function
cli_command_get:
.LVL0:
.LFB5:
.LM1:
	.cfi_startproc
.LM2:
.LM3:
	mv	a5,a0
.LM4:
	blt	a0,zero,.L6
.LM5:
	lui	a4,%hi(cli)
	lw	a4,%lo(cli)(a4)
.LM6:
	li	a0,-1
.LVL1:
.LM7:
	lw	a3,44(a4)
.LM8:
	addi	a2,a3,8
.LM9:
	bleu	a2,a5,.L1
.LM10:
.LM11:
	bleu	a3,a5,.L3
.LM12:
.LM13:
	beq	a1,zero,.L4
.LM14:
.LM15:
	li	a3,1
	sw	a3,0(a1)
.L4:
.LM16:
.LM17:
	li	a3,12
	mul	a5,a5,a3
.LVL2:
.LM18:
	lw	a0,8(a4)
	add	a0,a0,a5
	ret
.LVL3:
.L3:
.LM19:
.LM20:
	beq	a1,zero,.L5
.LM21:
.LM22:
	sw	zero,0(a1)
.L5:
.LM23:
.LM24:
	lw	a3,44(a4)
	sub	a5,a5,a3
.LVL4:
.LM25:
	slli	a5,a5,2
	add	a4,a4,a5
	lw	a0,12(a4)
	ret
.LVL5:
.L6:
.LM26:
	li	a0,-1
.LVL6:
.L1:
.LM27:
	ret
	.cfi_endproc
.LFE5:
	.size	cli_command_get, .-cli_command_get
	.section	.text.exit_cmd,"ax",@progbits
	.align	1
	.type	exit_cmd, @function
exit_cmd:
.LVL7:
.LFB19:
.LM28:
	.cfi_startproc
.LM29:
.LM30:
	lui	a5,%hi(cliexit)
	li	a4,1
	sw	a4,%lo(cliexit)(a5)
.LM31:
.LM32:
	ret
	.cfi_endproc
.LFE19:
	.size	exit_cmd, .-exit_cmd
	.section	.rodata.cb_idnoe.str1.4,"aMS",@progbits,1
	.align	2
.LC0:
	.string	"Unknown"
	.align	2
.LC1:
	.string	"\tSize\t\t\t\t\t Name\t\t\tFiletype\r\n"
	.align	2
.LC2:
	.string	"----------------------------------------------------------------------------------\r\n"
	.align	2
.LC3:
	.string	"%10d\t\t%30s\t\t\t%s\r\n"
	.section	.text.cb_idnoe,"ax",@progbits
	.align	1
	.type	cb_idnoe, @function
cb_idnoe:
.LVL8:
.LFB30:
.LM33:
	.cfi_startproc
.LM34:
.LM35:
.LM36:
	addi	sp,sp,-32
	.cfi_def_cfa_offset 32
	sw	ra,28(sp)
	.cfi_offset 1, -4
.LM37:
	lw	a5,0(a0)
	bne	a5,zero,.L16
.LM38:
	li	a5,1
	sw	a5,0(a0)
.LM39:
	lui	a0,%hi(.LC1)
.LVL9:
.LM40:
	addi	a0,a0,%lo(.LC1)
	sw	a1,12(sp)
.LM41:
.LM42:
	call	printf
.LVL10:
.LM43:
	lui	a0,%hi(.LC2)
	addi	a0,a0,%lo(.LC2)
	call	printf
.LVL11:
	lw	a1,12(sp)
.LVL12:
.L16:
.LM44:
.LM45:
	lbu	a5,16(a1)
	li	a4,2
	bgtu	a5,a4,.L17
	seqz	a4,a5
	neg	a4,a4
	andi	a4,a4,-28
	addi	a4,a4,28
.L18:
	addi	a5,a5,-1
	andi	a5,a5,0xff
	li	a3,2
.LM46:
	lw	a2,8(a1)
	bgtu	a5,a3,.L22
	lui	a3,%hi(CSWTCH.205)
	addi	a3,a3,%lo(CSWTCH.205)
	slli	a5,a5,2
	add	a5,a3,a5
	lw	a3,0(a5)
.L19:
.LM47:
	lui	a0,%hi(.LC3)
	mv	a1,a4
	addi	a0,a0,%lo(.LC3)
	call	printf
.LVL13:
.LM48:
.LM49:
	lw	ra,28(sp)
	.cfi_remember_state
	.cfi_restore 1
	li	a0,0
	addi	sp,sp,32
	.cfi_def_cfa_offset 0
	jr	ra
.L17:
	.cfi_restore_state
	li	a3,3
.LM50:
	li	a4,0
	bne	a5,a3,.L18
.LM51:
	li	a4,80
	j	.L18
.L22:
.LM52:
	lui	a3,%hi(.LC0)
	addi	a3,a3,%lo(.LC0)
	j	.L19
	.cfi_endproc
.LFE30:
	.size	cb_idnoe, .-cb_idnoe
	.section	.rodata.console_cb_write.str1.4,"aMS",@progbits,1
	.align	2
.LC4:
	.string	"Empty cb\r\n"
	.section	.text.console_cb_write,"ax",@progbits
	.align	1
	.type	console_cb_write, @function
console_cb_write:
.LVL14:
.LFB42:
.LM53:
	.cfi_startproc
.LM54:
	lui	a0,%hi(.LC4)
.LVL15:
.LM55:
	addi	a0,a0,%lo(.LC4)
	tail	printf
.LVL16:
.LM56:
	.cfi_endproc
.LFE42:
	.size	console_cb_write, .-console_cb_write
	.section	.rodata.cat_cmd.str1.4,"aMS",@progbits,1
	.align	2
.LC5:
	.string	"invalid parameter!\r\n"
	.align	2
.LC6:
	.string	"open %s failed!\r\n"
	.align	2
.LC7:
	.string	"%c"
	.align	2
.LC8:
	.string	"\r\n"
	.section	.text.cat_cmd,"ax",@progbits
	.align	1
	.type	cat_cmd, @function
cat_cmd:
.LVL17:
.LFB33:
.LM57:
	.cfi_startproc
.LM58:
.LM59:
.LM60:
.LM61:
	addi	sp,sp,-32
	.cfi_def_cfa_offset 32
	sw	s0,24(sp)
	sw	ra,28(sp)
	sw	s1,20(sp)
	sw	s2,16(sp)
	.cfi_offset 8, -8
	.cfi_offset 1, -4
	.cfi_offset 9, -12
	.cfi_offset 18, -16
.LM62:
	li	a5,2
.LM63:
	mv	s0,a3
.LM64:
	beq	a2,a5,.L26
.LM65:
	lui	a0,%hi(.LC5)
.LVL18:
.LM66:
	addi	a0,a0,%lo(.LC5)
	call	printf
.LVL19:
.L26:
.LM67:
.LM68:
	lw	a0,4(s0)
	li	a1,0
	call	aos_open
.LVL20:
	mv	s1,a0
.LVL21:
.LM69:
.LM70:
	blt	a0,zero,.L30
.LM71:
	lui	a5,%hi(.LC7)
.LM72:
	li	s0,1
.LVL22:
.LM73:
	addi	s2,a5,%lo(.LC7)
.L27:
.LM74:
.LM75:
.LM76:
	li	a2,1
	addi	a1,sp,15
	mv	a0,s1
	call	aos_read
.LVL23:
.LM77:
	bne	a0,s0,.L28
.LM78:
	lbu	a1,15(sp)
	mv	a0,s2
	call	printf
.LVL24:
.LM79:
.LM80:
	j	.L27
.LVL25:
.L30:
.LM81:
	lw	a1,4(s0)
.LM82:
	lw	s0,24(sp)
	.cfi_remember_state
	.cfi_restore 8
.LVL26:
.LM83:
	lw	ra,28(sp)
	.cfi_restore 1
	lw	s1,20(sp)
	.cfi_restore 9
.LVL27:
.LM84:
	lw	s2,16(sp)
	.cfi_restore 18
.LM85:
	lui	a0,%hi(.LC6)
.LVL28:
.LM86:
.LM87:
	addi	a0,a0,%lo(.LC6)
.LM88:
	addi	sp,sp,32
	.cfi_def_cfa_offset 0
.LM89:
	tail	printf
.LVL29:
.L28:
	.cfi_restore_state
.LM90:
	lui	a0,%hi(.LC8)
	addi	a0,a0,%lo(.LC8)
	call	printf
.LVL30:
.LM91:
	mv	a0,s1
	call	aos_close
.LVL31:
.LM92:
	lw	ra,28(sp)
	.cfi_restore 1
	lw	s0,24(sp)
	.cfi_restore 8
	lw	s1,20(sp)
	.cfi_restore 9
.LVL32:
.LM93:
	lw	s2,16(sp)
	.cfi_restore 18
	addi	sp,sp,32
	.cfi_def_cfa_offset 0
	jr	ra
	.cfi_endproc
.LFE33:
	.size	cat_cmd, .-cat_cmd
	.section	.rodata.hexdump_cmd.str1.4,"aMS",@progbits,1
	.align	2
.LC9:
	.string	"Found file %s. XIP Addr %p, len %lu\r\n"
	.section	.text.hexdump_cmd,"ax",@progbits
	.align	1
	.type	hexdump_cmd, @function
hexdump_cmd:
.LVL33:
.LFB32:
.LM94:
	.cfi_startproc
.LM95:
.LM96:
.LM97:
.LM98:
	addi	sp,sp,-32
	.cfi_def_cfa_offset 32
	sw	s0,24(sp)
	sw	ra,28(sp)
	sw	s1,20(sp)
	.cfi_offset 8, -8
	.cfi_offset 1, -4
	.cfi_offset 9, -12
.LM99:
	li	a5,2
.LM100:
	mv	s0,a3
.LM101:
	beq	a2,a5,.L33
.LM102:
	lui	a0,%hi(.LC5)
.LVL34:
.LM103:
	addi	a0,a0,%lo(.LC5)
	call	printf
.LVL35:
.L33:
.LM104:
.LM105:
	lw	a0,4(s0)
	li	a1,0
	call	aos_open
.LVL36:
	mv	s1,a0
.LVL37:
.LM106:
.LM107:
	bge	a0,zero,.L34
.LM108:
	lw	a1,4(s0)
.LM109:
	lw	s0,24(sp)
	.cfi_remember_state
	.cfi_restore 8
.LVL38:
.LM110:
	lw	ra,28(sp)
	.cfi_restore 1
	lw	s1,20(sp)
	.cfi_restore 9
.LVL39:
.LM111:
	lui	a0,%hi(.LC6)
.LVL40:
.LM112:
.LM113:
	addi	a0,a0,%lo(.LC6)
.LM114:
	addi	sp,sp,32
	.cfi_def_cfa_offset 0
.LM115:
	tail	printf
.LVL41:
.L34:
	.cfi_restore_state
.LM116:
	li	a2,8
	add	a0,sp,a2
	li	a1,0
	call	memset
.LVL42:
.LM117:
	addi	a2,sp,8
	li	a1,1
	mv	a0,s1
	call	aos_ioctl
.LVL43:
.LM118:
	lw	a3,12(sp)
	lw	a2,8(sp)
	lw	a1,4(s0)
	lui	a0,%hi(.LC9)
	addi	a0,a0,%lo(.LC9)
	call	printf
.LVL44:
.LM119:
	lw	a1,12(sp)
	lw	a0,8(sp)
	call	utils_hexdump
.LVL45:
.LM120:
	mv	a0,s1
	call	aos_close
.LVL46:
.LM121:
	lw	ra,28(sp)
	.cfi_restore 1
	lw	s0,24(sp)
	.cfi_restore 8
.LVL47:
.LM122:
	lw	s1,20(sp)
	.cfi_restore 9
.LVL48:
.LM123:
	addi	sp,sp,32
	.cfi_def_cfa_offset 0
	jr	ra
	.cfi_endproc
.LFE32:
	.size	hexdump_cmd, .-hexdump_cmd
	.section	.rodata.ota_cmd.str1.4,"aMS",@progbits,1
	.align	2
.LC10:
	.string	"LOCAL OTA"
	.section	.text.ota_cmd,"ax",@progbits
	.align	1
	.type	ota_cmd, @function
ota_cmd:
.LVL49:
.LFB28:
.LM124:
	.cfi_startproc
.LM125:
	lui	a1,%hi(tftp_ota_thread)
.LVL50:
.LM126:
	lui	a0,%hi(.LC10)
.LVL51:
.LM127:
	li	a3,4096
.LVL52:
.LM128:
	li	a2,0
.LVL53:
.LM129:
	addi	a1,a1,%lo(tftp_ota_thread)
	addi	a0,a0,%lo(.LC10)
	tail	aos_task_new
.LVL54:
	.cfi_endproc
.LFE28:
	.size	ota_cmd, .-ota_cmd
	.section	.text.tftp_ota_thread,"ax",@progbits
	.align	1
	.globl	tftp_ota_thread
	.type	tftp_ota_thread, @function
tftp_ota_thread:
.LVL55:
.LFB27:
.LM130:
	.cfi_startproc
.LM131:
	li	a0,0
.LVL56:
.LM132:
	tail	aos_task_exit
.LVL57:
	.cfi_endproc
.LFE27:
	.size	tftp_ota_thread, .-tftp_ota_thread
	.section	.text.aos_cli_register_command,"ax",@progbits
	.align	1
	.globl	aos_cli_register_command
	.type	aos_cli_register_command, @function
aos_cli_register_command:
.LVL58:
.LFB34:
.LM133:
	.cfi_startproc
.LM134:
.LM135:
.LM136:
	addi	sp,sp,-32
	.cfi_def_cfa_offset 32
.LM137:
	lui	a5,%hi(cli)
.LM138:
	sw	s1,20(sp)
	.cfi_offset 9, -12
.LM139:
	lw	s1,%lo(cli)(a5)
.LM140:
	sw	ra,28(sp)
	sw	s0,24(sp)
	sw	s2,16(sp)
	sw	s3,12(sp)
	sw	s4,8(sp)
	.cfi_offset 1, -4
	.cfi_offset 8, -8
	.cfi_offset 18, -16
	.cfi_offset 19, -20
	.cfi_offset 20, -24
.LM141:
	li	a5,1
.LM142:
	beq	s1,zero,.L38
.LM143:
.LM144:
	lw	a4,0(a0)
.LM145:
	li	a5,22
.LM146:
	beq	a4,zero,.L38
.LM147:
	lw	a4,8(a0)
	beq	a4,zero,.L38
.LM148:
.LM149:
	lw	s3,44(s1)
.LM150:
	lw	s4,48(s1)
.LM151:
	li	a5,12
.LM152:
	addi	a4,s3,8
.LM153:
	bgeu	s4,a4,.L38
	mv	s2,a0
.LM154:
	li	s0,0
.LVL59:
.L40:
.LM155:
	bne	s0,s4,.L42
.LM156:
.LM157:
	addi	a5,s0,1
.LM158:
	sub	s0,s0,s3
.LVL60:
.LM159:
	slli	s0,s0,2
.LM160:
	sw	a5,48(s1)
.LM161:
	add	s1,s1,s0
	sw	s2,12(s1)
.LM162:
.LM163:
	j	.L43
.LVL61:
.L42:
.LM164:
.LM165:
	li	a1,0
	mv	a0,s0
	call	cli_command_get
.LVL62:
.LM166:
	bne	a0,s2,.L41
.LVL63:
.L43:
.LM167:
	li	a5,0
.LVL64:
.L38:
.LM168:
	lw	ra,28(sp)
	.cfi_remember_state
	.cfi_restore 1
	lw	s0,24(sp)
	.cfi_restore 8
	lw	s1,20(sp)
	.cfi_restore 9
	lw	s2,16(sp)
	.cfi_restore 18
	lw	s3,12(sp)
	.cfi_restore 19
	lw	s4,8(sp)
	.cfi_restore 20
	mv	a0,a5
	addi	sp,sp,32
	.cfi_def_cfa_offset 0
	jr	ra
.LVL65:
.L41:
	.cfi_restore_state
.LM169:
	addi	s0,s0,1
.LVL66:
.LM170:
	j	.L40
	.cfi_endproc
.LFE34:
	.size	aos_cli_register_command, .-aos_cli_register_command
	.section	.text.aos_cli_unregister_command,"ax",@progbits
	.align	1
	.globl	aos_cli_unregister_command
	.type	aos_cli_unregister_command, @function
aos_cli_unregister_command:
.LVL67:
.LFB35:
.LM171:
	.cfi_startproc
.LM172:
.LM173:
.LM174:
.LM175:
	addi	sp,sp,-48
	.cfi_def_cfa_offset 48
	sw	s2,32(sp)
	sw	ra,44(sp)
	sw	s0,40(sp)
	sw	s1,36(sp)
	sw	s3,28(sp)
	sw	s4,24(sp)
	.cfi_offset 18, -16
	.cfi_offset 1, -4
	.cfi_offset 8, -8
	.cfi_offset 9, -12
	.cfi_offset 19, -20
	.cfi_offset 20, -24
.LM176:
	lw	a5,0(a0)
.LM177:
	li	s2,22
.LM178:
	beq	a5,zero,.L49
.LM179:
	lw	a5,8(a0)
.LM180:
	li	s2,22
.LM181:
	beq	a5,zero,.L49
	mv	s2,a0
.LBB6:
.LBB7:
.LM182:
	li	s0,0
.LM183:
	lui	s4,%hi(cli)
.LVL68:
.L51:
.LM184:
.LM185:
	lw	s3,%lo(cli)(s4)
	lw	s1,48(s3)
.LM186:
	bgtu	s1,s0,.L55
.LM187:
	li	s2,-12
.LVL69:
.LM188:
	j	.L49
.LVL70:
.L55:
.LBB8:
.LM189:
.LM190:
	addi	a1,sp,12
	mv	a0,s0
.LM191:
	sw	zero,12(sp)
.LM192:
.LM193:
	call	cli_command_get
.LVL71:
.LM194:
.LM195:
	bne	s2,a0,.L52
.LM196:
.LM197:
	lw	s2,12(sp)
.LVL72:
.LM198:
	bne	s2,zero,.L58
.LM199:
.LM200:
	addi	a2,s1,-1
	sw	a2,48(s3)
.LM201:
.LM202:
	sub	a2,a2,s0
.LVL73:
.LM203:
.LM204:
	ble	a2,zero,.L54
.LM205:
.LM206:
	lw	a5,44(s3)
.LM207:
	slli	a2,a2,2
.LVL74:
.LM208:
	sub	a0,s0,a5
.LVL75:
.LM209:
	addi	a0,a0,3
	slli	a0,a0,2
.LM210:
	addi	a1,a0,4
.LM211:
	add	a1,s3,a1
	add	a0,s3,a0
	call	memmove
.LVL76:
.L54:
.LM212:
.LM213:
	lw	a5,%lo(cli)(s4)
.LM214:
	lw	a4,48(a5)
	lw	a3,44(a5)
	sub	a4,a4,a3
.LM215:
	slli	a4,a4,2
	add	a5,a5,a4
	sw	zero,12(a5)
.LM216:
.LVL77:
.L49:
.LM217:
.LBE8:
.LBE7:
.LBE6:
.LM218:
	lw	ra,44(sp)
	.cfi_remember_state
	.cfi_restore 1
	lw	s0,40(sp)
	.cfi_restore 8
	lw	s1,36(sp)
	.cfi_restore 9
	lw	s3,28(sp)
	.cfi_restore 19
	lw	s4,24(sp)
	.cfi_restore 20
	mv	a0,s2
	lw	s2,32(sp)
	.cfi_restore 18
	addi	sp,sp,48
	.cfi_def_cfa_offset 0
	jr	ra
.LVL78:
.L52:
	.cfi_restore_state
.LBB11:
.LBB10:
.LM219:
	addi	s0,s0,1
.LVL79:
.LM220:
	j	.L51
.LVL80:
.L58:
.LBB9:
.LM221:
	li	s2,1
	j	.L49
.LBE9:
.LBE10:
.LBE11:
	.cfi_endproc
.LFE35:
	.size	aos_cli_unregister_command, .-aos_cli_unregister_command
	.section	.text.aos_cli_register_commands,"ax",@progbits
	.align	1
	.globl	aos_cli_register_commands
	.type	aos_cli_register_commands, @function
aos_cli_register_commands:
.LVL81:
.LFB36:
.LM222:
	.cfi_startproc
.LM223:
.LM224:
.LM225:
.LM226:
	lui	a5,%hi(cli)
.LM227:
	lw	a5,%lo(cli)(a5)
	beq	a5,zero,.L64
.LM228:
	addi	sp,sp,-32
	.cfi_def_cfa_offset 32
	sw	s0,24(sp)
	sw	s1,20(sp)
	sw	s2,16(sp)
	sw	ra,28(sp)
	.cfi_offset 8, -8
	.cfi_offset 9, -12
	.cfi_offset 18, -16
	.cfi_offset 1, -4
	mv	s1,a0
.LM229:
	li	s0,0
	li	s2,12
.LVL82:
.L62:
.LM230:
	blt	s0,a1,.L63
.LM231:
	li	a0,0
.LVL83:
.L60:
.LM232:
	lw	ra,28(sp)
	.cfi_remember_state
	.cfi_restore 1
	lw	s0,24(sp)
	.cfi_restore 8
.LVL84:
.LM233:
	lw	s1,20(sp)
	.cfi_restore 9
	lw	s2,16(sp)
	.cfi_restore 18
	addi	sp,sp,32
	.cfi_def_cfa_offset 0
	jr	ra
.LVL85:
.L63:
	.cfi_restore_state
.LM234:
.LM235:
	mul	a0,s0,s2
	sw	a1,12(sp)
.LM236:
	add	a0,s1,a0
	call	aos_cli_register_command
.LVL86:
.LM237:
	bne	a0,zero,.L60
.LM238:
	lw	a1,12(sp)
	addi	s0,s0,1
.LVL87:
.LM239:
	j	.L62
.LVL88:
.L64:
	.cfi_def_cfa_offset 0
	.cfi_restore 1
	.cfi_restore 8
	.cfi_restore 9
	.cfi_restore 18
.LM240:
	li	a0,1
.LVL89:
.LM241:
	ret
	.cfi_endproc
.LFE36:
	.size	aos_cli_register_commands, .-aos_cli_register_commands
	.section	.text.aos_cli_unregister_commands,"ax",@progbits
	.align	1
	.globl	aos_cli_unregister_commands
	.type	aos_cli_unregister_commands, @function
aos_cli_unregister_commands:
.LVL90:
.LFB37:
.LM242:
	.cfi_startproc
.LM243:
.LM244:
.LM245:
.LM246:
	addi	sp,sp,-32
	.cfi_def_cfa_offset 32
	sw	s0,24(sp)
	sw	s1,20(sp)
	sw	s2,16(sp)
	sw	ra,28(sp)
	.cfi_offset 8, -8
	.cfi_offset 9, -12
	.cfi_offset 18, -16
	.cfi_offset 1, -4
.LM247:
	mv	s2,a0
.LM248:
	li	s0,0
	li	s1,12
.LVL91:
.L70:
.LM249:
	blt	s0,a1,.L72
.LM250:
	li	a0,0
.LVL92:
.L69:
.LM251:
	lw	ra,28(sp)
	.cfi_remember_state
	.cfi_restore 1
	lw	s0,24(sp)
	.cfi_restore 8
.LVL93:
.LM252:
	lw	s1,20(sp)
	.cfi_restore 9
	lw	s2,16(sp)
	.cfi_restore 18
	addi	sp,sp,32
	.cfi_def_cfa_offset 0
	jr	ra
.LVL94:
.L72:
	.cfi_restore_state
.LM253:
.LM254:
	mul	a0,s0,s1
	sw	a1,12(sp)
.LM255:
	add	a0,s2,a0
	call	aos_cli_unregister_command
.LVL95:
.LM256:
	bne	a0,zero,.L69
.LM257:
	lw	a1,12(sp)
	addi	s0,s0,1
.LVL96:
.LM258:
	j	.L70
	.cfi_endproc
.LFE37:
	.size	aos_cli_unregister_commands, .-aos_cli_unregister_commands
	.section	.text.aos_cli_stop,"ax",@progbits
	.align	1
	.globl	aos_cli_stop
	.type	aos_cli_stop, @function
aos_cli_stop:
.LFB38:
.LM259:
	.cfi_startproc
.LM260:
.LM261:
	lui	a5,%hi(cliexit)
	li	a4,1
	sw	a4,%lo(cliexit)(a5)
.LM262:
.LM263:
	li	a0,0
	ret
	.cfi_endproc
.LFE38:
	.size	aos_cli_stop, .-aos_cli_stop
	.section	.text.aos_cli_task_get,"ax",@progbits
	.align	1
	.globl	aos_cli_task_get
	.type	aos_cli_task_get, @function
aos_cli_task_get:
.LFB39:
.LM264:
	.cfi_startproc
.LM265:
.LM266:
	li	a0,0
	ret
	.cfi_endproc
.LFE39:
	.size	aos_cli_task_get, .-aos_cli_task_get
	.section	.text.aos_cli_init,"ax",@progbits
	.align	1
	.globl	aos_cli_init
	.type	aos_cli_init, @function
aos_cli_init:
.LVL97:
.LFB40:
.LM267:
	.cfi_startproc
.LM268:
.LM269:
.LM270:
	addi	sp,sp,-16
	.cfi_def_cfa_offset 16
.LM271:
	li	a0,580
.LVL98:
.LM272:
	sw	s0,8(sp)
	sw	ra,12(sp)
	.cfi_offset 8, -8
	.cfi_offset 1, -4
.LM273:
	lui	s0,%hi(cli)
.LM274:
	call	aos_malloc
.LVL99:
.LM275:
	sw	a0,%lo(cli)(s0)
.LM276:
	li	a5,12
.LM277:
	beq	a0,zero,.L76
.LM278:
	li	a2,580
	li	a1,0
	call	memset
.LVL100:
.LM279:
.LM280:
	lw	a4,%lo(cli)(s0)
.LM281:
	lui	a3,%hi(_ld_bl_static_cli_cmds_start)
.LM282:
	lui	a5,%hi(_ld_bl_static_cli_cmds_end)
.LM283:
	addi	a3,a3,%lo(_ld_bl_static_cli_cmds_start)
.LM284:
	addi	a5,a5,%lo(_ld_bl_static_cli_cmds_end)
	sub	a5,a5,a3
.LM285:
	sw	a3,8(a4)
.LM286:
.LM287:
	li	a3,-1431654400
	srai	a5,a5,2
	addi	a3,a3,-1365
	mul	a5,a5,a3
.LM288:
	sw	zero,4(a4)
.LM289:
	sw	a5,44(a4)
.LM290:
.LM291:
	sw	a5,48(a4)
.LM292:
.LM293:
	li	a5,1
	sw	a5,0(a4)
.LM294:
.LM295:
.LM296:
	li	a5,0
.L76:
.LM297:
	lw	ra,12(sp)
	.cfi_restore 1
	lw	s0,8(sp)
	.cfi_restore 8
	mv	a0,a5
	addi	sp,sp,16
	.cfi_def_cfa_offset 0
	jr	ra
	.cfi_endproc
.LFE40:
	.size	aos_cli_init, .-aos_cli_init
	.section	.text.aos_cli_event_cb_read_get,"ax",@progbits
	.align	1
	.globl	aos_cli_event_cb_read_get
	.type	aos_cli_event_cb_read_get, @function
aos_cli_event_cb_read_get:
.LFB43:
.LM298:
	.cfi_startproc
.LM299:
.LM300:
	lui	a0,%hi(console_cb_read)
	addi	a0,a0,%lo(console_cb_read)
	ret
	.cfi_endproc
.LFE43:
	.size	aos_cli_event_cb_read_get, .-aos_cli_event_cb_read_get
	.section	.text.aos_cli_event_cb_write_get,"ax",@progbits
	.align	1
	.globl	aos_cli_event_cb_write_get
	.type	aos_cli_event_cb_write_get, @function
aos_cli_event_cb_write_get:
.LFB44:
.LM301:
	.cfi_startproc
.LM302:
.LM303:
	lui	a0,%hi(console_cb_write)
	addi	a0,a0,%lo(console_cb_write)
	ret
	.cfi_endproc
.LFE44:
	.size	aos_cli_event_cb_write_get, .-aos_cli_event_cb_write_get
	.section	.text.aos_cli_get_tag,"ax",@progbits
	.align	1
	.globl	aos_cli_get_tag
	.type	aos_cli_get_tag, @function
aos_cli_get_tag:
.LFB45:
.LM304:
	.cfi_startproc
.LM305:
.LM306:
	lui	a0,%hi(esc_tag)
	addi	a0,a0,%lo(esc_tag)
	ret
	.cfi_endproc
.LFE45:
	.size	aos_cli_get_tag, .-aos_cli_get_tag
	.section	.text.cli_putstr,"ax",@progbits
	.align	1
	.globl	cli_putstr
	.type	cli_putstr, @function
cli_putstr:
.LVL101:
.LFB48:
.LM307:
	.cfi_startproc
.LM308:
.LM309:
.LM310:
	addi	sp,sp,-32
	.cfi_def_cfa_offset 32
	sw	s0,24(sp)
	sw	s1,20(sp)
	sw	s2,16(sp)
	sw	s3,12(sp)
	sw	ra,28(sp)
	.cfi_offset 8, -8
	.cfi_offset 9, -12
	.cfi_offset 18, -16
	.cfi_offset 19, -20
	.cfi_offset 1, -4
.LM311:
	mv	s3,a0
.LM312:
	call	strlen
.LVL102:
.LM313:
	mv	s1,a0
.LVL103:
.LM314:
.LM315:
.LM316:
	li	s0,0
.LM317:
	lui	s2,%hi(fd_console)
.LVL104:
.L85:
.LM318:
	blt	s0,s1,.L87
.L89:
.LM319:
	lw	ra,28(sp)
	.cfi_remember_state
	.cfi_restore 1
	lw	s0,24(sp)
	.cfi_restore 8
.LVL105:
.LM320:
	lw	s1,20(sp)
	.cfi_restore 9
.LVL106:
.LM321:
	lw	s2,16(sp)
	.cfi_restore 18
	lw	s3,12(sp)
	.cfi_restore 19
.LVL107:
.LM322:
	li	a0,0
	addi	sp,sp,32
	.cfi_def_cfa_offset 0
	jr	ra
.LVL108:
.L87:
	.cfi_restore_state
.LM323:
.LM324:
	lw	a0,%lo(fd_console)(s2)
	sub	a2,s1,s0
	add	a1,s3,s0
	call	aos_write
.LVL109:
.LM325:
	blt	a0,zero,.L89
.LM326:
.LM327:
	add	s0,s0,a0
.LVL110:
.LM328:
	j	.L85
	.cfi_endproc
.LFE48:
	.size	cli_putstr, .-cli_putstr
	.section	.rodata.ps_cmd.str1.4,"aMS",@progbits,1
	.align	2
.LC11:
	.string	"Task"
	.align	2
.LC12:
	.string	"State   Priority  Stack    #          Base\r\n********************************************************\r\n"
	.section	.text.ps_cmd,"ax",@progbits
	.align	1
	.type	ps_cmd, @function
ps_cmd:
.LVL111:
.LFB29:
.LM329:
	.cfi_startproc
.LM330:
.LM331:
.LM332:
.LM333:
.LM334:
	addi	sp,sp,-16
	.cfi_def_cfa_offset 16
.LM335:
	li	a0,1536
.LVL112:
.LM336:
	sw	ra,12(sp)
	sw	s0,8(sp)
	sw	s1,4(sp)
	sw	s2,0(sp)
	.cfi_offset 1, -4
	.cfi_offset 8, -8
	.cfi_offset 9, -12
	.cfi_offset 18, -16
.LM337:
	call	pvPortMalloc
.LVL113:
.LM338:
.LM339:
	beq	a0,zero,.L91
.LM340:
	lui	s2,%hi(.LC11)
	addi	a1,s2,%lo(.LC11)
	mv	s1,a0
.LM341:
.LVL114:
.LM342:
	call	strcpy
.LVL115:
.LM343:
.LM344:
	mv	a0,s1
	call	strlen
.LVL116:
.LM345:
	add	s0,s1,a0
.LVL117:
.LM346:
.LM347:
	addi	a0,s2,%lo(.LC11)
	call	strlen
.LVL118:
.LM348:
	mv	a5,s0
.LM349:
	sub	a2,a0,s0
	li	a4,12
.LM350:
	li	a1,32
.LVL119:
.L93:
.LM351:
	add	a3,a5,a2
	ble	a3,a4,.L94
.LM352:
	slti	a4,a0,14
	li	a5,0
.LVL120:
.LM353:
	beq	a4,zero,.L96
	li	a5,13
	sub	a5,a5,a0
.L96:
	add	s0,s0,a5
.LM354:
	lui	s2,%hi(.LC12)
	addi	a1,s2,%lo(.LC12)
	mv	a0,s0
	call	strcpy
.LVL121:
.LM355:
.LM356:
	addi	a0,s2,%lo(.LC12)
	call	strlen
.LVL122:
.LM357:
	add	a0,s0,a0
	call	vTaskList
.LVL123:
.LM358:
	mv	a0,s1
	call	cli_putstr
.LVL124:
.LM359:
.LM360:
	lw	s0,8(sp)
	.cfi_remember_state
	.cfi_restore 8
	lw	ra,12(sp)
	.cfi_restore 1
	lw	s2,0(sp)
	.cfi_restore 18
.LM361:
	mv	a0,s1
.LM362:
	lw	s1,4(sp)
	.cfi_restore 9
.LVL125:
.LM363:
	addi	sp,sp,16
	.cfi_def_cfa_offset 0
.LM364:
	tail	vPortFree
.LVL126:
.L94:
	.cfi_restore_state
.LM365:
.LM366:
	sb	a1,0(a5)
.LM367:
.LM368:
	sb	zero,1(a5)
.LM369:
	addi	a5,a5,1
.LVL127:
.LM370:
.LM371:
	j	.L93
.LVL128:
.L91:
.LM372:
	lw	ra,12(sp)
	.cfi_restore 1
	lw	s0,8(sp)
	.cfi_restore 8
	lw	s1,4(sp)
	.cfi_restore 9
	lw	s2,0(sp)
	.cfi_restore 18
	addi	sp,sp,16
	.cfi_def_cfa_offset 0
	jr	ra
	.cfi_endproc
.LFE29:
	.size	ps_cmd, .-ps_cmd
	.section	.text.aos_cli_printf,"ax",@progbits
	.align	1
	.globl	aos_cli_printf
	.type	aos_cli_printf, @function
aos_cli_printf:
.LVL129:
.LFB47:
.LM373:
	.cfi_startproc
.LM374:
.LM375:
.LM376:
.LM377:
.LM378:
.LM379:
	addi	sp,sp,-320
	.cfi_def_cfa_offset 320
	sw	s0,280(sp)
	.cfi_offset 8, -40
.LM380:
	addi	s0,sp,16
.LM381:
	sw	s2,272(sp)
	sw	a1,292(sp)
	sw	a2,296(sp)
	.cfi_offset 18, -48
	mv	s2,a0
.LM382:
	li	a2,256
	li	a1,0
	mv	a0,s0
.LVL130:
.LM383:
	sw	a5,308(sp)
	sw	ra,284(sp)
	sw	s1,276(sp)
	.cfi_offset 1, -36
	.cfi_offset 9, -44
.LM384:
	sw	a3,300(sp)
	sw	a4,304(sp)
	sw	a6,312(sp)
	sw	a7,316(sp)
.LM385:
	call	memset
.LVL131:
.LM386:
.LM387:
.LM388:
	lui	a5,%hi(esc_tag_len)
.LM389:
	lbu	a5,%lo(esc_tag_len)(a5)
	li	a0,0
	beq	a5,zero,.L100
.LM390:
	lui	s1,%hi(esc_tag)
	addi	a1,s1,%lo(esc_tag)
	mv	a0,s0
	call	strcpy
.LVL132:
.LM391:
.LM392:
	addi	a0,s1,%lo(esc_tag)
	call	strlen
.LVL133:
.LM393:
	mv	a5,a0
.LVL134:
.L100:
.LM394:
.LM395:
.LM396:
	li	a1,256
.LM397:
	addi	a3,sp,292
.LM398:
	mv	a2,s2
	sub	a1,a1,a5
	add	a0,s0,a0
.LVL135:
.LM399:
	sw	a3,12(sp)
.LM400:
.LM401:
	call	vsnprintf
.LVL136:
.LM402:
.LM403:
.LM404:
	ble	a0,zero,.L101
.LM405:
	mv	a0,s0
.LVL137:
.LM406:
	call	cli_putstr
.LVL138:
.LM407:
.L101:
.LM408:
	lw	ra,284(sp)
	.cfi_restore 1
	lw	s0,280(sp)
	.cfi_restore 8
	lw	s1,276(sp)
	.cfi_restore 9
	lw	s2,272(sp)
	.cfi_restore 18
.LVL139:
.LM409:
	li	a0,0
	addi	sp,sp,320
	.cfi_def_cfa_offset 0
.LM410:
	jr	ra
	.cfi_endproc
.LFE47:
	.size	aos_cli_printf, .-aos_cli_printf
	.section	.rodata.proc_onecmd.str1.4,"aMS",@progbits,1
	.align	2
.LC13:
	.string	"Error! cli alloc mem fail!\r\n"
	.align	2
.LC14:
	.string	"%s"
	.section	.text.proc_onecmd,"ax",@progbits
	.align	1
	.globl	proc_onecmd
	.type	proc_onecmd, @function
proc_onecmd:
.LVL140:
.LFB7:
.LM411:
	.cfi_startproc
.LM412:
.LM413:
.LM414:
.LM415:
.LM416:
	ble	a0,zero,.L128
.LM417:
	addi	sp,sp,-48
	.cfi_def_cfa_offset 48
	sw	s0,40(sp)
	.cfi_offset 8, -8
.LM418:
	lui	s0,%hi(cli)
	lw	a5,%lo(cli)(s0)
.LM419:
	sw	s1,36(sp)
	sw	s7,12(sp)
	sw	ra,44(sp)
	sw	s2,32(sp)
	sw	s3,28(sp)
	sw	s4,24(sp)
	sw	s5,20(sp)
	sw	s6,16(sp)
	.cfi_offset 9, -12
	.cfi_offset 23, -36
	.cfi_offset 1, -4
	.cfi_offset 18, -16
	.cfi_offset 19, -20
	.cfi_offset 20, -24
	.cfi_offset 21, -28
	.cfi_offset 22, -32
.LM420:
	lw	a5,4(a5)
	mv	s1,a1
	mv	s7,a0
.LM421:
.LM422:
	bne	a5,zero,.L106
.LM423:
	lui	a0,%hi(.LC8)
.LVL141:
.LM424:
	addi	a0,a0,%lo(.LC8)
	call	printf
.LVL142:
.L106:
.LM425:
.LM426:
.LM427:
.LM428:
.LM429:
	lw	a0,0(s1)
	li	a1,46
.LM430:
	li	s4,0
.LM431:
	call	strchr
.LVL143:
.LM432:
	lw	s5,0(s1)
.LM433:
	beq	a0,zero,.L107
.LM434:
	sub	s4,a0,s5
.L107:
.LVL144:
.LM435:
.LBB15:
.LBI15:
.LM436:
.LBB16:
.LM437:
.LM438:
.LM439:
.LM440:
	li	s2,0
.LM441:
	li	s3,0
.LVL145:
.L108:
.LM442:
.LM443:
	lw	a4,%lo(cli)(s0)
.LM444:
	lw	a5,44(a4)
	addi	a5,a5,8
.LM445:
	bgeu	s2,a5,.L113
.LM446:
	lw	a5,48(a4)
	bgtu	a5,s3,.L114
.LVL146:
.L113:
.LM447:
.LBE16:
.LBE15:
.LM448:
	li	a0,1
.L104:
.LM449:
	lw	ra,44(sp)
	.cfi_remember_state
	.cfi_restore 1
	lw	s0,40(sp)
	.cfi_restore 8
	lw	s1,36(sp)
	.cfi_restore 9
.LVL147:
.LM450:
	lw	s2,32(sp)
	.cfi_restore 18
	lw	s3,28(sp)
	.cfi_restore 19
	lw	s4,24(sp)
	.cfi_restore 20
.LVL148:
.LM451:
	lw	s5,20(sp)
	.cfi_restore 21
	lw	s6,16(sp)
	.cfi_restore 22
	lw	s7,12(sp)
	.cfi_restore 23
.LVL149:
.LM452:
	addi	sp,sp,48
	.cfi_def_cfa_offset 0
	jr	ra
.LVL150:
.L114:
	.cfi_restore_state
.LBB19:
.LBB18:
.LBB17:
.LM453:
.LM454:
	li	a1,0
	mv	a0,s2
	call	cli_command_get
.LVL151:
	mv	s6,a0
.LVL152:
.LM455:
.LM456:
	lw	a0,0(a0)
.LVL153:
.LM457:
	beq	a0,zero,.L109
.LM458:
.LM459:
	beq	s4,zero,.L110
.LM460:
.LM461:
	mv	a2,s4
	mv	a1,s5
	call	strncmp
.LVL154:
.L132:
.LM462:
	beq	a0,zero,.L111
.LM463:
.LVL155:
.LM464:
.LM465:
	addi	s3,s3,1
.LVL156:
.L109:
.LM466:
	addi	s2,s2,1
	j	.L108
.LVL157:
.L110:
.LM467:
.LM468:
	mv	a1,s5
	call	strcmp
.LVL158:
	j	.L132
.L111:
.LVL159:
.LM469:
.LBE17:
.LBE18:
.LBE19:
.LM470:
.LM471:
	li	a0,512
.LM472:
	lw	s2,%lo(cli)(s0)
.LM473:
	call	aos_malloc
.LVL160:
.LM474:
	lw	a5,%lo(cli)(s0)
.LM475:
	sw	a0,312(s2)
.LM476:
.LM477:
	lw	a0,312(a5)
.LM478:
	bne	a0,zero,.L115
.LM479:
	lui	a0,%hi(.LC13)
	addi	a0,a0,%lo(.LC13)
	call	aos_cli_printf
.LVL161:
.LM480:
.LM481:
	j	.L113
.L115:
.LM482:
	li	a2,512
	li	a1,0
	call	memset
.LVL162:
.LM483:
	lw	a4,%lo(cli)(s0)
	lw	a5,8(s6)
	mv	a3,s1
	lw	a0,312(a4)
	mv	a2,s7
	li	a1,512
	jalr	a5
.LVL163:
.LM484:
	lw	a5,%lo(cli)(s0)
	lui	a0,%hi(.LC14)
	addi	a0,a0,%lo(.LC14)
	lw	a1,312(a5)
	call	aos_cli_printf
.LVL164:
.LM485:
.LM486:
	lw	a5,%lo(cli)(s0)
.LM487:
	lw	a0,312(a5)
	call	aos_free
.LVL165:
.LM488:
.LM489:
	lw	a5,%lo(cli)(s0)
.LM490:
	li	a0,0
.LM491:
	sw	zero,312(a5)
.LM492:
	j	.L104
.LVL166:
.L128:
	.cfi_def_cfa_offset 0
	.cfi_restore 1
	.cfi_restore 8
	.cfi_restore 9
	.cfi_restore 18
	.cfi_restore 19
	.cfi_restore 20
	.cfi_restore 21
	.cfi_restore 22
	.cfi_restore 23
.LM493:
	li	a0,0
.LVL167:
.LM494:
	ret
	.cfi_endproc
.LFE7:
	.size	proc_onecmd, .-proc_onecmd
	.section	.rodata.ls_cmd.str1.4,"aMS",@progbits,1
	.align	2
.LC15:
	.string	"/sdcard"
	.align	2
.LC16:
	.string	"/sdcard/%s"
	.align	2
.LC17:
	.string	"%10ld\t\t%30s\t\t\tDirectory\r\n"
	.align	2
.LC18:
	.string	"%10ld\t\t%30s\t\t\tFile\r\n"
	.align	2
.LC19:
	.string	"can not open sdcard\r\n"
	.align	2
.LC20:
	.string	"/romfs"
	.align	2
.LC21:
	.string	"can not open romfs\r\n"
	.align	2
.LC22:
	.string	"/"
	.align	2
.LC23:
	.string	"un-supported direcotry!\r\n"
	.section	.text.ls_cmd,"ax",@progbits
	.align	1
	.type	ls_cmd, @function
ls_cmd:
.LVL168:
.LFB31:
.LM495:
	.cfi_startproc
.LM496:
.LM497:
.LM498:
.LM499:
.LM500:
.LM501:
	addi	sp,sp,-192
	.cfi_def_cfa_offset 192
.LM502:
	li	a0,88
.LVL169:
.LM503:
	sw	ra,188(sp)
	sw	s0,184(sp)
	sw	s1,180(sp)
	sw	s2,176(sp)
	sw	s3,172(sp)
	.cfi_offset 1, -4
	.cfi_offset 8, -8
	.cfi_offset 9, -12
	.cfi_offset 18, -16
	.cfi_offset 19, -20
	mv	s2,a2
	mv	s3,a3
	sw	s4,168(sp)
	sw	s5,164(sp)
	sw	s6,160(sp)
	sw	s7,156(sp)
	sw	s8,152(sp)
	.cfi_offset 20, -24
	.cfi_offset 21, -28
	.cfi_offset 22, -32
	.cfi_offset 23, -36
	.cfi_offset 24, -40
.LM504:
	sw	zero,12(sp)
.LM505:
.LM506:
	call	pvPortMalloc
.LVL170:
.LM507:
	mv	s1,a0
.LVL171:
.LM508:
	lui	a0,%hi(stat)
	li	a2,88
	li	a1,0
	addi	a0,a0,%lo(stat)
	call	memset
.LVL172:
.LM509:
	addi	s0,sp,16
	li	a2,128
	li	a1,0
	mv	a0,s0
	call	memset
.LVL173:
.LM510:
.LM511:
	li	a5,2
	bne	s2,a5,.L134
.LM512:
.LM513:
	lw	a0,4(s3)
	lui	s2,%hi(.LC15)
.LVL174:
.LM514:
	addi	a1,s2,%lo(.LC15)
	call	strcmp
.LVL175:
.LM515:
	bne	a0,zero,.L135
.LM516:
.LM517:
	addi	a0,s2,%lo(.LC15)
	call	aos_opendir
.LVL176:
	mv	s2,a0
.LVL177:
.LM518:
.LM519:
	beq	a0,zero,.L136
.LM520:
	lui	a0,%hi(.LC1)
.LVL178:
.LM521:
	addi	a0,a0,%lo(.LC1)
	call	printf
.LVL179:
.LM522:
	lui	a0,%hi(.LC2)
	addi	a0,a0,%lo(.LC2)
.LM523:
	lui	s3,%hi(.LC16)
.LVL180:
.LM524:
	call	printf
.LVL181:
.LM525:
	addi	s3,s3,%lo(.LC16)
.L139:
.LM526:
.LM527:
.LM528:
	mv	a0,s2
	call	aos_readdir
.LVL182:
.LM529:
.LM530:
	beq	a0,zero,.L138
.LM531:
.LM532:
	addi	s4,a0,5
.LM533:
	li	a1,127
	mv	a3,s4
	mv	a2,s3
	mv	a0,s0
.LVL183:
.LM534:
	call	snprintf
.LVL184:
.LM535:
.LM536:
	mv	a1,s1
	mv	a0,s0
	call	aos_stat
.LVL185:
.LM537:
	bne	a0,zero,.L139
.LM538:
.LM539:
	lw	a5,4(s1)
.LM540:
	lw	a1,16(s1)
	mv	a2,s4
.LM541:
	slli	a4,a5,17
	bge	a4,zero,.L140
.LM542:
	lui	a0,%hi(.LC17)
	addi	a0,a0,%lo(.LC17)
.L156:
.LM543:
	call	printf
.LVL186:
	j	.L139
.LVL187:
.L140:
.LM544:
	lui	a0,%hi(.LC18)
	addi	a0,a0,%lo(.LC18)
	j	.L156
.LVL188:
.L138:
.LM545:
	mv	a0,s2
.LVL189:
.L158:
.LM546:
	call	aos_closedir
.LVL190:
.L142:
.LM547:
	mv	a0,s1
	call	vPortFree
.LVL191:
.LM548:
	lw	ra,188(sp)
	.cfi_remember_state
	.cfi_restore 1
	lw	s0,184(sp)
	.cfi_restore 8
	lw	s1,180(sp)
	.cfi_restore 9
.LVL192:
.LM549:
	lw	s2,176(sp)
	.cfi_restore 18
	lw	s3,172(sp)
	.cfi_restore 19
	lw	s4,168(sp)
	.cfi_restore 20
	lw	s5,164(sp)
	.cfi_restore 21
	lw	s6,160(sp)
	.cfi_restore 22
	lw	s7,156(sp)
	.cfi_restore 23
	lw	s8,152(sp)
	.cfi_restore 24
	addi	sp,sp,192
	.cfi_def_cfa_offset 0
	jr	ra
.LVL193:
.L136:
	.cfi_restore_state
.LM550:
	lui	a0,%hi(.LC19)
.LVL194:
.LM551:
	addi	a0,a0,%lo(.LC19)
.LVL195:
.L160:
.LM552:
	call	printf
.LVL196:
	j	.L142
.L135:
.LM553:
.LM554:
	lw	s4,4(s3)
	lui	s2,%hi(.LC20)
	addi	a0,s2,%lo(.LC20)
	call	strlen
.LVL197:
	mv	a2,a0
.LM555:
	addi	a1,s2,%lo(.LC20)
	mv	a0,s4
	call	memcmp
.LVL198:
	mv	a5,a0
.LM556:
	lw	a0,4(s3)
.LM557:
	bne	a5,zero,.L143
.LM558:
.LM559:
	call	aos_opendir
.LVL199:
	mv	s6,a0
.LVL200:
.LM560:
.LM561:
	beq	a0,zero,.L144
.LM562:
	lui	a0,%hi(.LC1)
.LVL201:
.LM563:
	addi	a0,a0,%lo(.LC1)
	call	printf
.LVL202:
.LM564:
	lui	a0,%hi(.LC2)
	addi	a0,a0,%lo(.LC2)
	call	printf
.LVL203:
.LM565:
	lui	a5,%hi(.LC14)
	addi	s7,a5,%lo(.LC14)
.LM566:
	li	s4,47
.L145:
.LM567:
	li	s5,127
.L148:
.LM568:
.LM569:
.LM570:
	mv	a0,s6
	call	aos_readdir
.LVL204:
	mv	s2,a0
.LVL205:
.LM571:
.LM572:
	beq	a0,zero,.L146
.LM573:
	li	a2,128
	li	a1,0
	mv	a0,s0
.LVL206:
.LM574:
	call	memset
.LVL207:
.LM575:
	lw	a3,4(s3)
	mv	a2,s7
	li	a1,127
	mv	a0,s0
	call	snprintf
.LVL208:
.LM576:
.LM577:
	mv	a0,s0
	call	strlen
.LVL209:
.LM578:
	addi	a5,a0,144
	add	a0,a5,sp
.LM579:
	lbu	a5,-129(a0)
	beq	a5,s4,.L147
.LM580:
.LM581:
	mv	a0,s0
	call	strlen
.LVL210:
.LM582:
	addi	a5,a0,144
	add	a0,a5,sp
	sb	s4,-128(a0)
.L147:
.LM583:
.LM584:
	mv	a0,s0
	call	strlen
.LVL211:
	mv	s8,a0
.LM585:
	mv	a0,s0
	call	strlen
.LVL212:
.LM586:
	addi	s2,s2,5
.LVL213:
.LM587:
	sub	a1,s5,a0
	mv	a3,s2
	mv	a2,s7
	add	a0,s0,s8
	call	snprintf
.LVL214:
.LM588:
.LM589:
	mv	a1,s1
	mv	a0,s0
	call	aos_stat
.LVL215:
.LM590:
	bne	a0,zero,.L148
.LM591:
.LM592:
	lw	a5,4(s1)
.LM593:
	lw	a1,16(s1)
	mv	a2,s2
.LM594:
	slli	a4,a5,17
	bge	a4,zero,.L149
.LM595:
	lui	a0,%hi(.LC17)
	addi	a0,a0,%lo(.LC17)
.L157:
.LM596:
	call	printf
.LVL216:
	j	.L145
.LVL217:
.L149:
.LM597:
	lui	a0,%hi(.LC18)
	addi	a0,a0,%lo(.LC18)
	j	.L157
.LVL218:
.L146:
.LM598:
	mv	a0,s6
.LVL219:
.LM599:
	j	.L158
.LVL220:
.L144:
.LM600:
	lui	a0,%hi(.LC21)
.LVL221:
.LM601:
	addi	a0,a0,%lo(.LC21)
	j	.L160
.LVL222:
.L143:
.LM602:
.LM603:
	lui	a1,%hi(.LC22)
	addi	a1,a1,%lo(.LC22)
	call	strcmp
.LVL223:
.LM604:
	bne	a0,zero,.L151
.L152:
.LM605:
	lui	a0,%hi(cb_idnoe)
	addi	a1,sp,12
	addi	a0,a0,%lo(cb_idnoe)
	call	inode_forearch_name
.LVL224:
	j	.L142
.L151:
.LM606:
	lui	a0,%hi(.LC23)
	addi	a0,a0,%lo(.LC23)
.L159:
.LM607:
	call	aos_cli_printf
.LVL225:
	j	.L142
.LVL226:
.L134:
.LM608:
.LM609:
	li	a5,1
	beq	s2,a5,.L152
.LM610:
	lui	a0,%hi(.LC5)
	addi	a0,a0,%lo(.LC5)
	j	.L159
	.cfi_endproc
.LFE31:
	.size	ls_cmd, .-ls_cmd
	.section	.rodata.uptime_cmd.str1.4,"aMS",@progbits,1
	.align	2
.LC24:
	.string	"UP time in ms %llu\r\n"
	.align	2
.LC25:
	.string	"UP time in %llu days, %llu hours, %llu minutes, %llu seconds\r\n"
	.section	.text.uptime_cmd,"ax",@progbits
	.align	1
	.type	uptime_cmd, @function
uptime_cmd:
.LVL227:
.LFB26:
.LM611:
	.cfi_startproc
.LM612:
.LM613:
.LM614:
.LM615:
.LM616:
.LM617:
.LM618:
	addi	sp,sp,-64
	.cfi_def_cfa_offset 64
	sw	ra,60(sp)
	sw	s0,56(sp)
	sw	s1,52(sp)
	sw	s2,48(sp)
	sw	s3,44(sp)
	sw	s4,40(sp)
	sw	s5,36(sp)
	.cfi_offset 1, -4
	.cfi_offset 8, -8
	.cfi_offset 9, -12
	.cfi_offset 18, -16
	.cfi_offset 19, -20
	.cfi_offset 20, -24
	.cfi_offset 21, -28
.LM619:
	call	aos_now_ms
.LVL228:
.LM620:
	mv	s0,a0
.LM621:
	mv	a2,a0
	lui	a0,%hi(.LC24)
	mv	a3,a1
	addi	a0,a0,%lo(.LC24)
.LM622:
	mv	s1,a1
.LVL229:
.LM623:
	call	aos_cli_printf
.LVL230:
.LM624:
.LM625:
	li	a2,1000
	li	a3,0
	mv	a0,s0
	mv	a1,s1
	call	__divdi3
.LVL231:
.LM626:
	li	a2,60
	li	a3,0
.LM627:
	mv	s2,a0
	mv	s3,a1
.LVL232:
.LM628:
.LM629:
	call	__divdi3
.LVL233:
.LM630:
	li	a2,60
	li	a3,0
.LM631:
	mv	s4,a0
	mv	s5,a1
.LVL234:
.LM632:
.LM633:
	call	__divdi3
.LVL235:
	mv	s0,a0
.LVL236:
.LM634:
	mv	s1,a1
.LVL237:
.LM635:
.LM636:
	li	a2,60
	li	a3,0
	mv	a0,s4
	mv	a1,s5
	call	__moddi3
.LVL238:
	sw	a0,24(sp)
	sw	a1,28(sp)
	li	a2,24
	li	a3,0
	mv	a0,s0
	mv	a1,s1
	call	__moddi3
.LVL239:
	sw	a0,16(sp)
	sw	a1,20(sp)
.LM637:
	li	a2,24
	li	a3,0
	mv	a0,s0
	mv	a1,s1
	call	__divdi3
.LVL240:
	mv	s0,a0
.LVL241:
.LM638:
	mv	s1,a1
.LM639:
	li	a2,60
	li	a3,0
	mv	a0,s2
	mv	a1,s3
	call	__moddi3
.LVL242:
	lw	a6,24(sp)
	lw	a7,28(sp)
	lw	a4,16(sp)
	lw	a5,20(sp)
	sw	a0,0(sp)
	lui	a0,%hi(.LC25)
	sw	a1,4(sp)
	mv	a2,s0
	mv	a3,s1
	addi	a0,a0,%lo(.LC25)
	call	aos_cli_printf
.LVL243:
.LM640:
	lw	ra,60(sp)
	.cfi_restore 1
	lw	s0,56(sp)
	.cfi_restore 8
	lw	s1,52(sp)
	.cfi_restore 9
	lw	s2,48(sp)
	.cfi_restore 18
.LVL244:
.LM641:
	lw	s3,44(sp)
	.cfi_restore 19
	lw	s4,40(sp)
	.cfi_restore 20
.LVL245:
.LM642:
	lw	s5,36(sp)
	.cfi_restore 21
	addi	sp,sp,64
	.cfi_def_cfa_offset 0
	jr	ra
	.cfi_endproc
.LFE26:
	.size	uptime_cmd, .-uptime_cmd
	.section	.rodata.reset_cmd.str1.4,"aMS",@progbits,1
	.align	2
.LC26:
	.string	"system reset\r\n"
	.section	.text.reset_cmd,"ax",@progbits
	.align	1
	.type	reset_cmd, @function
reset_cmd:
.LVL246:
.LFB25:
.LM643:
	.cfi_startproc
.LM644:
	lui	a0,%hi(.LC26)
.LVL247:
.LM645:
	addi	sp,sp,-16
	.cfi_def_cfa_offset 16
.LM646:
	addi	a0,a0,%lo(.LC26)
.LM647:
	sw	ra,12(sp)
	.cfi_offset 1, -4
.LM648:
	call	aos_cli_printf
.LVL248:
.LM649:
.LM650:
	lw	ra,12(sp)
	.cfi_restore 1
	addi	sp,sp,16
	.cfi_def_cfa_offset 0
.LM651:
	tail	hal_sys_reset
.LVL249:
	.cfi_endproc
.LFE25:
	.size	reset_cmd, .-reset_cmd
	.section	.rodata.poweroff_cmd.str1.4,"aMS",@progbits,1
	.align	2
.LC27:
	.string	"poweroff\r\n"
	.section	.text.poweroff_cmd,"ax",@progbits
	.align	1
	.type	poweroff_cmd, @function
poweroff_cmd:
.LVL250:
.LFB24:
.LM652:
	.cfi_startproc
.LM653:
	lui	a0,%hi(.LC27)
.LVL251:
.LM654:
	addi	sp,sp,-16
	.cfi_def_cfa_offset 16
.LM655:
	addi	a0,a0,%lo(.LC27)
.LM656:
	sw	ra,12(sp)
	.cfi_offset 1, -4
.LM657:
	call	aos_cli_printf
.LVL252:
.LM658:
.LM659:
	lw	ra,12(sp)
	.cfi_restore 1
	addi	sp,sp,16
	.cfi_def_cfa_offset 0
.LM660:
	tail	hal_poweroff
.LVL253:
	.cfi_endproc
.LFE24:
	.size	poweroff_cmd, .-poweroff_cmd
	.section	.rodata.reboot_cmd.str1.4,"aMS",@progbits,1
	.align	2
.LC28:
	.string	"reboot\r\n"
	.section	.text.reboot_cmd,"ax",@progbits
	.align	1
	.type	reboot_cmd, @function
reboot_cmd:
.LVL254:
.LFB23:
.LM661:
	.cfi_startproc
.LM662:
	lui	a0,%hi(.LC28)
.LVL255:
.LM663:
	addi	sp,sp,-16
	.cfi_def_cfa_offset 16
.LM664:
	addi	a0,a0,%lo(.LC28)
.LM665:
	sw	ra,12(sp)
	.cfi_offset 1, -4
.LM666:
	call	aos_cli_printf
.LVL256:
.LM667:
.LM668:
	lw	ra,12(sp)
	.cfi_restore 1
	addi	sp,sp,16
	.cfi_def_cfa_offset 0
.LM669:
	tail	hal_reboot
.LVL257:
	.cfi_endproc
.LFE23:
	.size	reboot_cmd, .-reboot_cmd
	.section	.rodata.version_cmd.str1.4,"aMS",@progbits,1
	.align	2
.LC29:
	.string	"kernel version :posix\r\n"
	.align	2
.LC30:
	.string	"release_bl_iot_sdk_1.6.11-1-g66bb28da-dirty"
	.align	2
.LC31:
	.string	"Heap left: %d Bytes\r\n"
	.align	2
.LC32:
	.string	"Memory Configuration on %d banks:\r\n"
	.align	2
.LC33:
	.string	"    [%d]%6s %6u Kbytes @ %p\r\n"
	.section	.text.version_cmd,"ax",@progbits
	.align	1
	.type	version_cmd, @function
version_cmd:
.LVL258:
.LFB17:
.LM670:
	.cfi_startproc
.LM671:
.LM672:
	lui	a0,%hi(.LC29)
.LVL259:
.LM673:
	addi	sp,sp,-112
	.cfi_def_cfa_offset 112
.LM674:
	li	a5,4
.LM675:
	addi	a0,a0,%lo(.LC29)
.LM676:
	sw	ra,108(sp)
.LM677:
	sw	a5,20(sp)
.LM678:
.LM679:
.LM680:
.LM681:
	sw	s0,104(sp)
	sw	s1,100(sp)
	sw	s2,96(sp)
	sw	s3,92(sp)
	.cfi_offset 1, -4
	.cfi_offset 8, -8
	.cfi_offset 9, -12
	.cfi_offset 18, -16
	.cfi_offset 19, -20
.LM682:
	call	aos_cli_printf
.LVL260:
.LM683:
	lui	a0,%hi(.LC30)
	addi	a0,a0,%lo(.LC30)
	call	aos_cli_printf
.LVL261:
.LM684:
	lui	a0,%hi(.LC8)
	addi	a0,a0,%lo(.LC8)
	call	aos_cli_printf
.LVL262:
.LM685:
.LM686:
	addi	a3,sp,56
	addi	a2,sp,40
	addi	a1,sp,24
	addi	a0,sp,20
	call	bl_chip_memory_ram
.LVL263:
.LM687:
	beq	a0,zero,.L170
.L173:
.LM688:
	call	xPortGetFreeHeapSize
.LVL264:
	mv	a1,a0
.LM689:
	lui	a0,%hi(.LC31)
	addi	a0,a0,%lo(.LC31)
	call	aos_cli_printf
.LVL265:
.LM690:
	lw	ra,108(sp)
	.cfi_remember_state
	.cfi_restore 1
	lw	s0,104(sp)
	.cfi_restore 8
	lw	s1,100(sp)
	.cfi_restore 9
	lw	s2,96(sp)
	.cfi_restore 18
	lw	s3,92(sp)
	.cfi_restore 19
	addi	sp,sp,112
	.cfi_def_cfa_offset 0
	jr	ra
.L170:
	.cfi_restore_state
.LM691:
	lw	a1,20(sp)
	mv	s0,a0
.LM692:
	lui	a0,%hi(.LC32)
	addi	a0,a0,%lo(.LC32)
	call	aos_cli_printf
.LVL266:
.LM693:
.LM694:
	lui	a5,%hi(.LC33)
	addi	s1,sp,40
	addi	s2,sp,24
	addi	a2,sp,56
	addi	s3,a5,%lo(.LC33)
.LVL267:
.L171:
.LM695:
	lw	a5,20(sp)
	ble	a5,s0,.L173
.LM696:
	lw	a3,0(s1)
	lw	a4,0(s2)
	mv	a1,s0
	srli	a3,a3,10
	mv	a0,s3
	sw	a2,12(sp)
	call	aos_cli_printf
.LVL268:
.LM697:
	lw	a2,12(sp)
	addi	s0,s0,1
.LVL269:
.LM698:
	addi	s1,s1,4
	addi	s2,s2,4
	addi	a2,a2,6
	j	.L171
	.cfi_endproc
.LFE17:
	.size	version_cmd, .-version_cmd
	.section	.rodata.devname_cmd.str1.4,"aMS",@progbits,1
	.align	2
.LC34:
	.string	"BL602"
	.align	2
.LC35:
	.string	"device name: %s\r\n"
	.section	.text.devname_cmd,"ax",@progbits
	.align	1
	.type	devname_cmd, @function
devname_cmd:
.LVL270:
.LFB20:
.LM699:
	.cfi_startproc
.LM700:
	lui	a1,%hi(.LC34)
.LVL271:
.LM701:
	lui	a0,%hi(.LC35)
.LVL272:
.LM702:
	addi	a1,a1,%lo(.LC34)
	addi	a0,a0,%lo(.LC35)
	tail	aos_cli_printf
.LVL273:
.LM703:
	.cfi_endproc
.LFE20:
	.size	devname_cmd, .-devname_cmd
	.section	.rodata.echo_cmd.str1.4,"aMS",@progbits,1
	.align	2
.LC36:
	.string	"Disabled"
	.align	2
.LC37:
	.string	"Enabled"
	.align	2
.LC38:
	.string	"Usage: echo on/off. Echo is currently %s\r\n"
	.align	2
.LC39:
	.string	"on"
	.align	2
.LC40:
	.string	"Enable echo\r\n"
	.align	2
.LC41:
	.string	"off"
	.align	2
.LC42:
	.string	"Disable echo\r\n"
	.section	.text.echo_cmd,"ax",@progbits
	.align	1
	.type	echo_cmd, @function
echo_cmd:
.LVL274:
.LFB18:
.LM704:
	.cfi_startproc
.LM705:
.LM706:
	addi	sp,sp,-32
	.cfi_def_cfa_offset 32
	sw	s0,24(sp)
	sw	ra,28(sp)
	.cfi_offset 8, -8
	.cfi_offset 1, -4
.LM707:
	li	s0,1
	bne	a2,s0,.L178
.LM708:
.LM709:
	lui	a5,%hi(cli)
	lw	a5,%lo(cli)(a5)
.LM710:
	lw	a5,4(a5)
	beq	a5,zero,.L182
.LM711:
	lui	a1,%hi(.LC36)
.LVL275:
.LM712:
	addi	a1,a1,%lo(.LC36)
.L179:
.LM713:
	lw	s0,24(sp)
	.cfi_remember_state
	.cfi_restore 8
	lw	ra,28(sp)
	.cfi_restore 1
.LM714:
	lui	a0,%hi(.LC38)
.LVL276:
.LM715:
.LM716:
	addi	a0,a0,%lo(.LC38)
.LM717:
	addi	sp,sp,32
	.cfi_def_cfa_offset 0
.LM718:
	tail	aos_cli_printf
.LVL277:
.L182:
	.cfi_restore_state
.LM719:
	lui	a1,%hi(.LC37)
.LVL278:
.LM720:
	addi	a1,a1,%lo(.LC37)
	j	.L179
.LVL279:
.L178:
.LM721:
.LM722:
	lw	a0,4(a3)
.LVL280:
.LM723:
	lui	a1,%hi(.LC39)
.LVL281:
.LM724:
	addi	a1,a1,%lo(.LC39)
	sw	a3,12(sp)
	call	strcmp
.LVL282:
.LM725:
	lw	a3,12(sp)
	bne	a0,zero,.L180
.LM726:
	lui	a0,%hi(.LC40)
	addi	a0,a0,%lo(.LC40)
	call	aos_cli_printf
.LVL283:
.LM727:
.LM728:
	lui	a5,%hi(cli)
	lw	a5,%lo(cli)(a5)
	sw	zero,4(a5)
.L177:
.LM729:
	lw	ra,28(sp)
	.cfi_remember_state
	.cfi_restore 1
	lw	s0,24(sp)
	.cfi_restore 8
	addi	sp,sp,32
	.cfi_def_cfa_offset 0
.LVL284:
.LM730:
	jr	ra
.LVL285:
.L180:
	.cfi_restore_state
.LBB22:
.LBI22:
.LM731:
.LBB23:
.LM732:
.LM733:
	lw	a0,4(a3)
	lui	a1,%hi(.LC41)
	addi	a1,a1,%lo(.LC41)
	call	strcmp
.LVL286:
.LM734:
	bne	a0,zero,.L177
.LM735:
	lui	a0,%hi(.LC42)
	addi	a0,a0,%lo(.LC42)
	call	aos_cli_printf
.LVL287:
.LM736:
.LM737:
	lui	a5,%hi(cli)
	lw	a5,%lo(cli)(a5)
	sw	s0,4(a5)
.LVL288:
.LM738:
	j	.L177
.LBE23:
.LBE22:
	.cfi_endproc
.LFE18:
	.size	echo_cmd, .-echo_cmd
	.section	.rodata.mmem_cmd.str1.4,"aMS",@progbits,1
	.align	2
.LC43:
	.string	"m <addr> <value> <width>\r\naddr  : address to modify\r\nvalue : new value (default is 0)\r\nwidth : width of unit, 1/2/4 (default is 4)\r\n"
	.align	2
.LC44:
	.string	"value on 0x%x change from 0x%x to 0x%x.\r\n"
	.section	.text.mmem_cmd,"ax",@progbits
	.align	1
	.type	mmem_cmd, @function
mmem_cmd:
.LVL289:
.LFB22:
.LM739:
	.cfi_startproc
.LM740:
.LM741:
.LM742:
.LM743:
.LM744:
.LM745:
.LM746:
	addi	sp,sp,-16
	.cfi_def_cfa_offset 16
	sw	s1,4(sp)
	sw	s2,0(sp)
	sw	ra,12(sp)
	sw	s0,8(sp)
	.cfi_offset 9, -12
	.cfi_offset 18, -16
	.cfi_offset 1, -4
	.cfi_offset 8, -8
.LM747:
	li	a5,3
.LM748:
	mv	s2,a3
	li	s1,4
.LM749:
	beq	a2,a5,.L185
	beq	a2,s1,.L186
	li	a5,2
	beq	a2,a5,.L195
.LVL290:
.L188:
.LM750:
.LM751:
	lw	s0,8(sp)
	.cfi_remember_state
	.cfi_restore 8
	lw	ra,12(sp)
	.cfi_restore 1
	lw	s1,4(sp)
	.cfi_restore 9
	lw	s2,0(sp)
	.cfi_restore 18
.LVL291:
.LM752:
	lui	a0,%hi(.LC43)
.LM753:
.LM754:
	addi	a0,a0,%lo(.LC43)
.LM755:
	addi	sp,sp,16
	.cfi_def_cfa_offset 0
.LM756:
	tail	aos_cli_printf
.LVL292:
.L186:
	.cfi_restore_state
.LM757:
.LM758:
	lw	a0,12(a3)
.LVL293:
.LM759:
	li	a2,0
.LVL294:
.LM760:
	li	a1,0
.LVL295:
.LM761:
	call	strtol
.LVL296:
.LM762:
	mv	s1,a0
.LVL297:
.L185:
.LM763:
.LM764:
.LM765:
	lw	a0,8(s2)
	li	a2,0
	li	a1,0
	call	strtol
.LVL298:
	mv	s0,a0
.LVL299:
.L187:
.LM766:
.LM767:
.LM768:
	lw	a0,4(s2)
	li	a1,0
	li	a2,0
	call	strtol
.LVL300:
	mv	a1,a0
.LM769:
.LVL301:
.LM770:
.LM771:
	beq	a0,zero,.L188
.LM772:
	li	a5,1
	beq	s1,a5,.L190
	li	a5,2
	beq	s1,a5,.L191
.LM773:
.LM774:
	lw	a2,0(a0)
.LVL302:
.LM775:
.LM776:
	sw	s0,0(a0)
.LM777:
.LM778:
	lw	a3,0(a0)
.LVL303:
.LM779:
	j	.L193
.LVL304:
.L195:
.LM780:
	li	s0,0
	j	.L187
.LVL305:
.L190:
.LM781:
.LM782:
	lbu	a2,0(a0)
.LM783:
	sb	s0,0(a0)
.LM784:
	lbu	a3,0(a0)
.LM785:
	andi	a2,a2,0xff
.LVL306:
.LM786:
.LM787:
.LM788:
	andi	a3,a3,0xff
.LVL307:
.LM789:
.L193:
.LM790:
.LM791:
	lw	s0,8(sp)
	.cfi_remember_state
	.cfi_restore 8
.LVL308:
.LM792:
	lw	ra,12(sp)
	.cfi_restore 1
	lw	s1,4(sp)
	.cfi_restore 9
.LVL309:
.LM793:
	lw	s2,0(sp)
	.cfi_restore 18
.LVL310:
.LM794:
	lui	a0,%hi(.LC44)
.LVL311:
.LM795:
.LM796:
	addi	a0,a0,%lo(.LC44)
.LM797:
	addi	sp,sp,16
	.cfi_def_cfa_offset 0
.LM798:
	tail	aos_cli_printf
.LVL312:
.L191:
	.cfi_restore_state
.LM799:
.LM800:
	lhu	a2,0(a0)
.LM801:
	sh	s0,0(a0)
.LM802:
	lhu	a3,0(a0)
.LM803:
	slli	a2,a2,16
	srli	a2,a2,16
.LVL313:
.LM804:
.LM805:
.LM806:
	slli	a3,a3,16
	srli	a3,a3,16
.LVL314:
.LM807:
	j	.L193
	.cfi_endproc
.LFE22:
	.size	mmem_cmd, .-mmem_cmd
	.section	.rodata.pmem_cmd.str1.4,"aMS",@progbits,1
	.align	2
.LC45:
	.string	"p <addr> <nunits> <width>\r\naddr  : address to display\r\nnunits: number of units to display (default is 16)\r\nwidth : width of unit, 1/2/4 (default is 4)\r\n"
	.align	2
.LC46:
	.string	"0x%08x:"
	.align	2
.LC47:
	.string	" %02x"
	.align	2
.LC48:
	.string	" %04x"
	.align	2
.LC49:
	.string	" %08x"
	.section	.text.pmem_cmd,"ax",@progbits
	.align	1
	.type	pmem_cmd, @function
pmem_cmd:
.LVL315:
.LFB21:
.LM808:
	.cfi_startproc
.LM809:
.LM810:
.LM811:
	addi	sp,sp,-80
	.cfi_def_cfa_offset 80
	sw	s1,68(sp)
	sw	s3,60(sp)
	sw	ra,76(sp)
	sw	s0,72(sp)
	sw	s2,64(sp)
	sw	s4,56(sp)
	sw	s5,52(sp)
	sw	s6,48(sp)
	sw	s7,44(sp)
	.cfi_offset 9, -12
	.cfi_offset 19, -20
	.cfi_offset 1, -4
	.cfi_offset 8, -8
	.cfi_offset 18, -16
	.cfi_offset 20, -24
	.cfi_offset 21, -28
	.cfi_offset 22, -32
	.cfi_offset 23, -36
.LM812:
	sw	zero,28(sp)
.LM813:
.LVL316:
.LM814:
.LM815:
.LM816:
	li	a5,3
.LM817:
	mv	s3,a3
	li	s1,4
.LM818:
	beq	a2,a5,.L199
	beq	a2,s1,.L200
	li	a5,2
	li	s2,16
	li	s0,0
	bne	a2,a5,.L202
.LVL317:
.L201:
.LM819:
.LM820:
.LM821:
	lw	a0,4(s3)
	li	a2,0
	addi	a1,sp,28
	call	strtol
.LVL318:
	mv	s0,a0
.LVL319:
.LM822:
.L202:
.LM823:
.LM824:
	lw	a5,28(sp)
.LM825:
	beq	a5,zero,.L204
.LM826:
	lw	a4,4(s3)
	bne	a5,a4,.L205
.L204:
.LM827:
	lui	a0,%hi(.LC45)
	addi	a0,a0,%lo(.LC45)
	call	aos_cli_printf
.LVL320:
.LM828:
.L198:
.LM829:
	lw	ra,76(sp)
	.cfi_remember_state
	.cfi_restore 1
	lw	s0,72(sp)
	.cfi_restore 8
	lw	s1,68(sp)
	.cfi_restore 9
	lw	s2,64(sp)
	.cfi_restore 18
.LVL321:
.LM830:
	lw	s3,60(sp)
	.cfi_restore 19
	lw	s4,56(sp)
	.cfi_restore 20
	lw	s5,52(sp)
	.cfi_restore 21
	lw	s6,48(sp)
	.cfi_restore 22
	lw	s7,44(sp)
	.cfi_restore 23
	addi	sp,sp,80
	.cfi_def_cfa_offset 0
	jr	ra
.LVL322:
.L200:
	.cfi_restore_state
.LM831:
.LM832:
	lw	a0,12(a3)
.LVL323:
.LM833:
	li	a2,0
.LVL324:
.LM834:
	li	a1,0
.LVL325:
.LM835:
	call	strtol
.LVL326:
.LM836:
	mv	s1,a0
.LVL327:
.L199:
.LM837:
.LM838:
.LM839:
	lw	a0,8(s3)
	li	a2,0
	li	a1,0
	call	strtol
.LVL328:
.LM840:
	li	a5,1024
.LM841:
	mv	s2,a0
.LVL329:
.LM842:
.LM843:
	ble	a0,a5,.L201
	mv	s2,a5
.LVL330:
.LM844:
	j	.L201
.LVL331:
.L205:
.LM845:
	li	a5,1
	beq	s1,a5,.L222
	li	a5,2
	beq	s1,a5,.L223
.LM846:
	lui	a5,%hi(.LC49)
.LM847:
	lui	s3,%hi(.LC46)
.LVL332:
.LM848:
	addi	s6,a5,%lo(.LC49)
.LM849:
	lui	a5,%hi(.LC8)
.LM850:
	li	s1,0
.LVL333:
.LM851:
	addi	s3,s3,%lo(.LC46)
.LM852:
	li	s5,3
.LM853:
	addi	s7,a5,%lo(.LC8)
.L209:
.LVL334:
.LM854:
	bge	s1,s2,.L198
.LM855:
	andi	s4,s1,3
.LM856:
	bne	s4,zero,.L217
.LM857:
	mv	a1,s0
	mv	a0,s3
	call	aos_cli_printf
.LVL335:
.L217:
.LM858:
	lw	a1,0(s0)
	mv	a0,s6
.LM859:
	addi	s0,s0,4
.LVL336:
.LM860:
	call	aos_cli_printf
.LVL337:
.LM861:
.LM862:
.LM863:
	bne	s4,s5,.L218
.LM864:
	mv	a0,s7
	call	aos_cli_printf
.LVL338:
.L218:
.LM865:
	addi	s1,s1,1
.LVL339:
.LM866:
	j	.L209
.LVL340:
.L212:
.LM867:
	andi	s4,s1,15
	add	a1,s0,s1
.LM868:
	bne	s4,zero,.L210
.LM869:
	mv	a0,s3
	sw	a1,12(sp)
	call	aos_cli_printf
.LVL341:
	lw	a1,12(sp)
.L210:
.LM870:
	lbu	a1,0(a1)
	mv	a0,s6
	call	aos_cli_printf
.LVL342:
.LM871:
.LM872:
.LM873:
	bne	s4,s5,.L211
.LM874:
	mv	a0,s7
	call	aos_cli_printf
.LVL343:
.L211:
.LM875:
	addi	s1,s1,1
.LVL344:
.L207:
.LM876:
	blt	s1,s2,.L212
	j	.L198
.LVL345:
.L222:
.LM877:
	lui	a5,%hi(.LC47)
.LM878:
	lui	s3,%hi(.LC46)
.LVL346:
.LM879:
	addi	s6,a5,%lo(.LC47)
.LM880:
	lui	a5,%hi(.LC8)
.LM881:
	li	s1,0
.LVL347:
.LM882:
	addi	s3,s3,%lo(.LC46)
.LM883:
	li	s5,15
.LM884:
	addi	s7,a5,%lo(.LC8)
	j	.L207
.LVL348:
.L215:
.LM885:
	andi	s4,s1,7
.LM886:
	bne	s4,zero,.L213
.LM887:
	mv	a1,s0
	mv	a0,s3
	call	aos_cli_printf
.LVL349:
.L213:
.LM888:
	lhu	a1,0(s0)
	mv	a0,s6
.LM889:
	addi	s0,s0,2
.LVL350:
.LM890:
	call	aos_cli_printf
.LVL351:
.LM891:
.LM892:
.LM893:
	bne	s4,s5,.L214
.LM894:
	mv	a0,s7
	call	aos_cli_printf
.LVL352:
.L214:
.LM895:
	addi	s1,s1,1
.LVL353:
.L208:
.LM896:
	blt	s1,s2,.L215
.LM897:
	j	.L198
.LVL354:
.L223:
.LM898:
	lui	a5,%hi(.LC48)
.LM899:
	lui	s3,%hi(.LC46)
.LVL355:
.LM900:
	addi	s6,a5,%lo(.LC48)
.LM901:
	lui	a5,%hi(.LC8)
.LM902:
	li	s1,0
.LVL356:
.LM903:
	addi	s3,s3,%lo(.LC46)
.LM904:
	li	s5,7
.LM905:
	addi	s7,a5,%lo(.LC8)
	j	.L208
	.cfi_endproc
.LFE21:
	.size	pmem_cmd, .-pmem_cmd
	.section	.rodata.help_cmd.str1.4,"aMS",@progbits,1
	.align	2
.LC50:
	.string	""
	.align	2
.LC51:
	.string	"====Build-in Commands====\r\n"
	.align	2
.LC52:
	.string	"====Support %d cmds once, seperate by ; ====\r\n"
	.align	2
.LC53:
	.string	"%-25s: %s\r\n"
	.align	2
.LC54:
	.string	"====User Commands====\r\n"
	.section	.text.help_cmd,"ax",@progbits
	.align	1
	.type	help_cmd, @function
help_cmd:
.LVL357:
.LFB16:
.LM906:
	.cfi_startproc
.LM907:
.LM908:
.LM909:
	lui	a0,%hi(.LC51)
.LVL358:
.LM910:
	addi	sp,sp,-32
	.cfi_def_cfa_offset 32
.LM911:
	addi	a0,a0,%lo(.LC51)
.LM912:
	sw	ra,28(sp)
	sw	s0,24(sp)
	sw	s1,20(sp)
	sw	s2,16(sp)
	sw	s3,12(sp)
	sw	s4,8(sp)
	sw	s5,4(sp)
	sw	s6,0(sp)
	.cfi_offset 1, -4
	.cfi_offset 8, -8
	.cfi_offset 9, -12
	.cfi_offset 18, -16
	.cfi_offset 19, -20
	.cfi_offset 20, -24
	.cfi_offset 21, -28
	.cfi_offset 22, -32
.LM913:
	call	aos_cli_printf
.LVL359:
.LM914:
	lui	a0,%hi(.LC52)
	lui	s0,%hi(built_ins)
	addi	s0,s0,%lo(built_ins)
	li	a1,4
	addi	a0,a0,%lo(.LC52)
.LBB24:
.LM915:
	lui	s1,%hi(.LC53)
.LBE24:
.LM916:
	call	aos_cli_printf
.LVL360:
.LM917:
.LM918:
	addi	s2,s0,192
	mv	s3,s0
.LBB25:
.LM919:
	addi	s1,s1,%lo(.LC53)
.LM920:
	lui	s4,%hi(.LC50)
.LVL361:
.L231:
.LM921:
.LM922:
.LM923:
	lw	a1,0(s0)
.LM924:
	beq	a1,zero,.L229
.LM925:
.LM926:
	lw	a2,4(s0)
.LM927:
	bne	a2,zero,.L230
.LM928:
	addi	a2,s4,%lo(.LC50)
.L230:
.LM929:
	mv	a0,s1
	call	aos_cli_printf
.LVL362:
.L229:
.LBE25:
.LM930:
.LM931:
	addi	s0,s0,12
	bne	s0,s2,.L231
.LM932:
	lui	a0,%hi(.LC8)
	addi	a0,a0,%lo(.LC8)
	call	aos_cli_printf
.LVL363:
.LM933:
	lui	a0,%hi(.LC54)
	addi	a0,a0,%lo(.LC54)
	call	aos_cli_printf
.LVL364:
.LM934:
.LBB26:
.LM935:
	lui	a5,%hi(.LC53)
.LBE26:
.LM936:
	li	s1,16
.LM937:
	li	s0,0
.LM938:
	lui	s4,%hi(cli)
.LBB27:
.LM939:
	addi	s6,a5,%lo(.LC53)
.LM940:
	lui	s5,%hi(.LC50)
.LVL365:
.L232:
.LM941:
.LBE27:
.LM942:
.LM943:
	lw	a4,%lo(cli)(s4)
.LM944:
	lw	a5,44(a4)
	addi	a5,a5,8
.LM945:
	bleu	a5,s0,.L228
.LM946:
	lw	a5,48(a4)
	bgtu	a5,s1,.L237
.L228:
.LM947:
	lw	ra,28(sp)
	.cfi_remember_state
	.cfi_restore 1
	lw	s0,24(sp)
	.cfi_restore 8
.LVL366:
.LM948:
	lw	s1,20(sp)
	.cfi_restore 9
.LVL367:
.LM949:
	lw	s2,16(sp)
	.cfi_restore 18
	lw	s3,12(sp)
	.cfi_restore 19
	lw	s4,8(sp)
	.cfi_restore 20
	lw	s5,4(sp)
	.cfi_restore 21
	lw	s6,0(sp)
	.cfi_restore 22
	addi	sp,sp,32
	.cfi_def_cfa_offset 0
	jr	ra
.LVL368:
.L237:
	.cfi_restore_state
.LBB28:
.LM950:
.LM951:
	li	a1,0
	mv	a0,s0
	call	cli_command_get
.LVL369:
.LM952:
.LM953:
	bgeu	a0,s2,.L239
	bgeu	a0,s3,.L233
.L239:
.LM954:
.LM955:
	lw	a1,0(a0)
.LM956:
	beq	a1,zero,.L233
.LM957:
.LM958:
	lw	a2,4(a0)
.LM959:
	bne	a2,zero,.L235
.LM960:
	addi	a2,s5,%lo(.LC50)
.L235:
.LM961:
	mv	a0,s6
.LVL370:
.LM962:
	call	aos_cli_printf
.LVL371:
.LM963:
.LM964:
	addi	s1,s1,1
.LVL372:
.L233:
.LM965:
.LBE28:
.LM966:
	addi	s0,s0,1
.LVL373:
.LM967:
	j	.L232
	.cfi_endproc
.LFE16:
	.size	help_cmd, .-help_cmd
	.section	.text.cli_getchar,"ax",@progbits
	.align	1
	.globl	cli_getchar
	.type	cli_getchar, @function
cli_getchar:
.LVL374:
.LFB49:
.LM968:
	.cfi_startproc
.LM969:
.LM970:
.LM971:
	addi	sp,sp,-80
	.cfi_def_cfa_offset 80
	sw	s0,72(sp)
.LM972:
	li	a2,60
	.cfi_offset 8, -8
.LM973:
	mv	s0,a0
.LM974:
	li	a1,0
	addi	a0,sp,4
.LVL375:
.LM975:
	sw	ra,76(sp)
	.cfi_offset 1, -4
.LM976:
	sw	zero,0(sp)
.LM977:
.LM978:
	call	memset
.LVL376:
.LM979:
.LM980:
	li	a4,-1
	mv	a3,sp
	li	a2,1
	mv	a1,s0
	addi	a0,sp,4
.LM981:
	sb	zero,4(sp)
.LM982:
.LM983:
	call	hal_uart_recv_II
.LVL377:
.LM984:
.LM985:
	bne	a0,zero,.L253
.LM986:
	lw	a0,0(sp)
.LVL378:
.LM987:
	addi	a0,a0,-1
	seqz	a0,a0
.L251:
.LM988:
	lw	ra,76(sp)
	.cfi_remember_state
	.cfi_restore 1
	lw	s0,72(sp)
	.cfi_restore 8
.LVL379:
.LM989:
	addi	sp,sp,80
	.cfi_def_cfa_offset 0
	jr	ra
.LVL380:
.L253:
	.cfi_restore_state
.LM990:
	li	a0,0
.LVL381:
.LM991:
	j	.L251
	.cfi_endproc
.LFE49:
	.size	cli_getchar, .-cli_getchar
	.section	.rodata.cli_main_input.str1.4,"aMS",@progbits,1
	.align	2
.LC55:
	.string	"\033%c"
	.align	2
.LC56:
	.string	"\033%c%c"
	.align	2
.LC57:
	.string	"\r\n# %s"
	.align	2
.LC58:
	.string	"Error: esc_tag buffer overflow\r\n"
	.align	2
.LC59:
	.string	"%c %c"
	.align	2
.LC60:
	.string	"%s %s "
	.align	2
.LC61:
	.string	"%s "
	.align	2
.LC62:
	.string	"# "
	.align	2
.LC63:
	.string	"%s%s"
	.align	2
.LC64:
	.string	"Error: input buffer overflow\r\n"
	.align	2
.LC65:
	.string	"command '%s' not found\r\n"
	.align	2
.LC66:
	.string	"syntax error\r\n"
	.section	.text.cli_main_input,"ax",@progbits
	.align	1
	.type	cli_main_input, @function
cli_main_input:
.LVL382:
.LFB15:
.LM992:
	.cfi_startproc
.LM993:
	addi	sp,sp,-112
	.cfi_def_cfa_offset 112
	sw	s1,100(sp)
	.cfi_offset 9, -12
.LM994:
	lui	s1,%hi(cli)
.LM995:
	sw	s8,72(sp)
	.cfi_offset 24, -40
.LM996:
	lw	s8,%lo(cli)(s1)
.LBB46:
.LBB47:
.LM997:
	lui	a4,%hi(.LC7)
.LBE47:
.LBE46:
.LM998:
	sw	s2,96(sp)
.LBB78:
.LBB71:
.LM999:
	addi	a5,a4,%lo(.LC7)
	.cfi_offset 18, -16
	lui	s2,%hi(esc_tag)
.LBE71:
.LBE78:
.LM1000:
	sw	s0,104(sp)
	sw	s5,84(sp)
	sw	ra,108(sp)
	sw	s3,92(sp)
	sw	s4,88(sp)
	sw	s6,80(sp)
	sw	s7,76(sp)
	sw	s9,68(sp)
	sw	s10,64(sp)
	sw	s11,60(sp)
	.cfi_offset 8, -8
	.cfi_offset 21, -28
	.cfi_offset 1, -4
	.cfi_offset 19, -20
	.cfi_offset 20, -24
	.cfi_offset 22, -32
	.cfi_offset 23, -36
	.cfi_offset 25, -44
	.cfi_offset 26, -48
	.cfi_offset 27, -52
.LM1001:
	sw	a0,0(sp)
.LM1002:
.LM1003:
.LVL383:
.LM1004:
.LM1005:
	sw	a1,8(sp)
.LM1006:
	addi	s0,s8,56
.LVL384:
.LBB79:
.LBI46:
.LM1007:
.LBB72:
.LM1008:
.LM1009:
.LM1010:
.LM1011:
.LM1012:
	li	s5,0
.LM1013:
	sw	a5,4(sp)
	addi	s2,s2,%lo(esc_tag)
.LVL385:
.L256:
.LM1014:
	lw	a5,0(sp)
	beq	a5,zero,.L306
.LM1015:
	lw	a5,8(sp)
	ble	a5,s5,.L255
.LM1016:
	lw	a5,0(sp)
	add	a4,a5,s5
.LM1017:
	lbu	a4,0(a4)
.LM1018:
	addi	s5,s5,1
.LVL386:
.LM1019:
	sb	a4,32(sp)
.L308:
.LM1020:
.LM1021:
	lbu	a4,32(sp)
.LM1022:
	addi	a3,a4,-10
.LM1023:
	beq	a3,zero,.L339
	addi	a3,a4,-13
	bne	a3,zero,.L257
.L339:
.LM1024:
.LM1025:
	lw	a4,52(s8)
.LBE72:
.LBE79:
.LBB80:
.LBB81:
.LM1026:
	lw	s2,%lo(cli)(s1)
.LBE81:
.LBE80:
.LBB101:
.LBB73:
.LM1027:
	add	a4,s0,a4
	sb	zero,0(a4)
.LM1028:
.LBE73:
.LBE101:
.LBB102:
.LBB94:
.LM1029:
	addi	s2,s2,56
.LBE94:
.LBE102:
.LBB103:
.LBB74:
.LM1030:
	sw	zero,52(s8)
.LM1031:
.LVL387:
.LM1032:
.LBE74:
.LBE103:
.LBB104:
.LBI80:
.LM1033:
.LBB95:
.LM1034:
.LM1035:
.LM1036:
	mv	a0,s2
	call	strlen
.LVL388:
.LM1037:
	bne	a0,zero,.L259
.L313:
.LM1038:
.LVL389:
.LBB82:
.LBI82:
.LM1039:
.LBB83:
.LM1040:
.LM1041:
.LM1042:
.LM1043:
	lui	s1,%hi(argvall.0)
	li	a2,256
	li	a1,0
	addi	a0,s1,%lo(argvall.0)
.LM1044:
	addi	s3,sp,32
.LM1045:
	sw	zero,32(sp)
	sw	zero,36(sp)
	sw	zero,40(sp)
	sw	zero,44(sp)
.LM1046:
.LVL390:
.LM1047:
.LM1048:
.LM1049:
.LM1050:
	call	memset
.LVL391:
.LM1051:
	li	a2,16
	li	a1,0
	mv	a0,s3
	call	memset
.LVL392:
.LM1052:
	li	a2,4
	li	a1,0
	addi	a0,sp,28
	call	memset
.LVL393:
.LM1053:
	li	a5,0
.LM1054:
	mv	s11,s3
.LM1055:
	li	s6,0
.LM1056:
	li	s4,34
	li	s7,59
.LM1057:
	li	s5,1
.LM1058:
	li	s8,32
.LM1059:
	li	s9,256
.LM1060:
	li	s10,4
.LVL394:
.L260:
.LM1061:
.LM1062:
.LM1063:
	add	s0,s2,a5
	lbu	a3,0(s0)
.LM1064:
	beq	a3,s4,.L315
.LM1065:
	bgtu	a3,s4,.L316
	beq	a3,zero,.L317
	beq	a3,s8,.L318
.L319:
.LM1066:
.LM1067:
	lbu	a3,28(sp)
.LM1068:
	andi	a2,a3,1
	bne	a2,zero,.L322
.LM1069:
.LM1070:
	lw	a1,0(s11)
.LM1071:
	ori	a3,a3,1
	sb	a3,28(sp)
.LM1072:
.LM1073:
	addi	a3,a1,1
	sw	a3,0(s11)
.LM1074:
.LM1075:
	slli	a3,s6,4
	add	a3,a3,a1
	addi	a2,s1,%lo(argvall.0)
	slli	a3,a3,2
	add	a3,a2,a3
	sw	s0,0(a3)
	j	.L322
.LVL395:
.L257:
.LM1076:
.LBE83:
.LBE82:
.LBE95:
.LBE104:
.LBB105:
.LBB75:
.LM1077:
.LM1078:
	li	a0,27
	lui	s3,%hi(esc.3)
	bne	a4,a0,.L261
.LM1079:
.LM1080:
	li	a4,1
.LM1081:
	lui	a3,%hi(key1.2)
.LM1082:
	sb	a4,%lo(esc.3)(s3)
.LM1083:
.LM1084:
	li	a4,-1
	sb	a4,%lo(key1.2)(a3)
.LM1085:
.LM1086:
	lui	a3,%hi(key2.1)
	sb	a4,%lo(key2.1)(a3)
.LM1087:
	j	.L256
.L261:
.LM1088:
.LM1089:
	lb	a3,%lo(esc.3)(s3)
	beq	a3,zero,.L263
.LM1090:
.LM1091:
	lui	a3,%hi(key1.2)
	lb	a1,%lo(key1.2)(a3)
.LM1092:
	bge	a1,zero,.L264
.LM1093:
.LM1094:
	slli	a1,a4,24
	srai	a1,a1,24
	sb	a1,%lo(key1.2)(a3)
.LM1095:
.LM1096:
	li	a3,91
	beq	a1,a3,.L256
.LM1097:
.LM1098:
	lw	a3,52(s8)
	add	a3,s0,a3
	sb	a0,0(a3)
.LM1099:
.LM1100:
	lw	a3,52(s8)
	addi	a3,a3,1
	sw	a3,52(s8)
.LM1101:
.LM1102:
	add	a3,s0,a3
	sb	a4,0(a3)
.LM1103:
.LM1104:
	lw	a4,52(s8)
	addi	a4,a4,1
	sw	a4,52(s8)
.LM1105:
.LM1106:
	lw	a4,%lo(cli)(s1)
.LM1107:
	lw	a4,4(a4)
	bne	a4,zero,.L375
.LM1108:
	lui	a0,%hi(.LC55)
	addi	a0,a0,%lo(.LC55)
.L374:
.LM1109:
	call	printf
.LVL396:
.LM1110:
.LM1111:
.LM1112:
.LM1113:
.L375:
.LM1114:
.LM1115:
	sb	zero,%lo(esc.3)(s3)
.LM1116:
	j	.L256
.L264:
.LM1117:
.LM1118:
	lui	a3,%hi(key2.1)
	lb	a2,%lo(key2.1)(a3)
.LM1119:
	bge	a2,zero,.L268
.LM1120:
.LM1121:
	slli	a2,a4,24
	srai	a2,a2,24
	sb	a2,%lo(key2.1)(a3)
.LM1122:
.LM1123:
	li	a3,116
	bne	a2,a3,.L268
.LM1124:
.LM1125:
	lui	a3,%hi(esc_tag)
	addi	a3,a3,%lo(esc_tag)
	sb	a0,0(a3)
.LM1126:
.LM1127:
	sb	a1,1(a3)
.LM1128:
.LM1129:
	li	a0,2
	lui	a3,%hi(esc_tag_len)
	sb	a0,%lo(esc_tag_len)(a3)
.LM1130:
.LM1131:
	mv	a3,a2
.L269:
.LM1132:
	li	a0,116
	lui	s4,%hi(esc_tag_len)
	beq	a2,a0,.L271
.LM1133:
.LM1134:
	lw	a4,52(s8)
	li	a0,27
	add	a4,s0,a4
	sb	a0,0(a4)
.LM1135:
.LM1136:
	lw	a4,52(s8)
	addi	a4,a4,1
	sw	a4,52(s8)
.LM1137:
.LM1138:
	add	a4,s0,a4
	sb	a1,0(a4)
.LM1139:
.LM1140:
	lw	a4,52(s8)
	addi	a4,a4,1
	sw	a4,52(s8)
.LM1141:
.LM1142:
	add	a4,s0,a4
	sb	a3,0(a4)
.LM1143:
.LM1144:
	lw	a4,52(s8)
	addi	a4,a4,1
	sw	a4,52(s8)
.LM1145:
.LM1146:
	lw	a4,%lo(cli)(s1)
.LM1147:
	lw	a4,4(a4)
	bne	a4,zero,.L272
.LM1148:
	lui	a0,%hi(.LC56)
	addi	a0,a0,%lo(.LC56)
	call	printf
.LVL397:
.L272:
.LM1149:
.LM1150:
.LM1151:
.LM1152:
.LM1153:
	sb	zero,0(s2)
.LM1154:
.LM1155:
	sb	zero,%lo(esc_tag_len)(s4)
	j	.L375
.L268:
.LM1156:
.LM1157:
	addi	a0,a2,-65
.LM1158:
	andi	a0,a0,0xff
	li	a6,1
.LM1159:
	mv	a3,a2
.LM1160:
	bgtu	a0,a6,.L269
.LM1161:
.LBE75:
.LBE105:
.LBB106:
.LBB96:
.LM1162:
	lw	a1,%lo(cli)(s1)
.LBE96:
.LBE106:
.LBB107:
.LBB76:
.LM1163:
	li	a0,65
.LBB48:
.LBB49:
.LM1164:
	lw	a3,316(a1)
.LBE49:
.LBE48:
.LBB52:
.LBB53:
.LM1165:
	mv	a4,a3
.LBE53:
.LBE52:
.LM1166:
	bne	a2,a0,.L273
.LM1167:
.LVL398:
.LBB57:
.LBI48:
.LM1168:
.LBB50:
.LM1169:
.LM1170:
.LM1171:
.LM1172:
.LM1173:
	addi	a4,a3,255
.LM1174:
	li	a2,256
	rem	a4,a4,a2
.LVL399:
.LM1175:
.L274:
.LM1176:
.LM1177:
	add	a2,a1,a4
.LM1178:
	lbu	a2,324(a2)
.LM1179:
	bne	a2,zero,.L340
	bne	a4,a3,.L275
.LVL400:
.L278:
.LM1180:
.LM1181:
	sw	a4,316(a1)
.LVL401:
.LM1182:
.LM1183:
	li	a0,256
.LM1184:
	mv	a4,s0
.LVL402:
.L280:
.LM1185:
.LM1186:
	add	a2,a1,a3
	lbu	a2,324(a2)
.LM1187:
	bne	a2,zero,.L281
.LVL403:
.L379:
.LM1188:
.LBE50:
.LBE57:
.LBB58:
.LBB54:
.LM1189:
.LBE54:
.LBE58:
.LM1190:
	lui	a0,%hi(.LC57)
.LBB59:
.LBB55:
.LM1191:
	sb	zero,0(a4)
.LM1192:
.LBE55:
.LBE59:
.LM1193:
	mv	a1,s0
	addi	a0,a0,%lo(.LC57)
	call	printf
.LVL404:
.LM1194:
.LM1195:
	mv	a0,s0
	call	strlen
.LVL405:
.LM1196:
	lui	a4,%hi(esc_tag)
	sb	zero,%lo(esc_tag)(a4)
.LM1197:
	lui	a4,%hi(esc_tag_len)
.LM1198:
	sw	a0,52(s8)
.LM1199:
.LM1200:
.LM1201:
	sb	zero,%lo(esc_tag_len)(a4)
.LM1202:
	j	.L375
.LVL406:
.L275:
.LBB60:
.LBB51:
.LM1203:
.LM1204:
	addi	a4,a4,255
.LVL407:
.LM1205:
	andi	a4,a4,255
.LVL408:
.LM1206:
	j	.L274
.LVL409:
.L340:
.LM1207:
.LM1208:
	beq	a4,a3,.L278
.LVL410:
.L277:
.LM1209:
.LM1210:
	add	a2,a1,a4
.LM1211:
	lbu	a2,324(a2)
	bne	a2,zero,.L279
.LM1212:
.LM1213:
	addi	a4,a4,1
.LVL411:
.LM1214:
	li	a2,256
	rem	a4,a4,a2
.LVL412:
.LM1215:
	j	.L278
.LVL413:
.L279:
.LM1216:
.LM1217:
	addi	a4,a4,255
.LVL414:
.LM1218:
	andi	a4,a4,255
.LVL415:
.LM1219:
	j	.L277
.LVL416:
.L281:
.LM1220:
.LM1221:
	addi	a3,a3,1
.LVL417:
.LM1222:
	addi	a4,a4,1
.LVL418:
.LM1223:
	rem	a3,a3,a0
.LVL419:
.LM1224:
	sb	a2,-1(a4)
.LM1225:
	j	.L280
.LVL420:
.L282:
.LM1226:
.LBE51:
.LBE60:
.LBB61:
.LBB56:
.LM1227:
.LM1228:
	addi	a4,a4,1
.LVL421:
.LM1229:
	li	a5,256
	rem	a4,a4,a5
.LVL422:
.L273:
.LM1230:
.LM1231:
	add	a2,a1,a4
.LM1232:
	lbu	a2,324(a2)
	bne	a2,zero,.L282
.LM1233:
.LM1234:
	li	a0,256
.LM1235:
	bne	a4,a3,.L283
.L284:
.LM1236:
.LM1237:
	sw	a4,316(a1)
.LM1238:
.LM1239:
	li	a0,256
.LM1240:
	mv	a4,s0
.LVL423:
.L286:
.LM1241:
.LM1242:
	add	a2,a1,a3
	lbu	a2,324(a2)
.LM1243:
	beq	a2,zero,.L379
.LM1244:
.LM1245:
	addi	a3,a3,1
.LVL424:
.LM1246:
	addi	a4,a4,1
.LVL425:
.LM1247:
	sb	a2,-1(a4)
.LM1248:
.LM1249:
	rem	a3,a3,a0
.LVL426:
.LM1250:
	j	.L286
.LVL427:
.L285:
.LM1251:
.LM1252:
	addi	a4,a4,1
.LVL428:
.LM1253:
	rem	a4,a4,a0
.LVL429:
.L283:
.LM1254:
.LM1255:
	add	a2,a1,a4
.LM1256:
	lbu	a2,324(a2)
	beq	a2,zero,.L285
	j	.L284
.LVL430:
.L271:
.LM1257:
.LBE56:
.LBE61:
.LM1258:
.LM1259:
	lbu	a2,%lo(esc_tag_len)(s4)
.LM1260:
	li	a3,63
	bleu	a2,a3,.L288
.LM1261:
.LM1262:
	lui	a0,%hi(.LC58)
	addi	a0,a0,%lo(.LC58)
.LM1263:
	sb	zero,0(s2)
.LM1264:
.LM1265:
	sb	zero,%lo(esc_tag_len)(s4)
.LM1266:
.LM1267:
	sb	zero,%lo(esc.3)(s3)
.LM1268:
	call	printf
.LVL431:
.LM1269:
.LM1270:
.LM1271:
.LM1272:
	j	.L256
.L288:
.LM1273:
.LM1274:
	addi	a3,a2,1
.LM1275:
	add	a1,s2,a2
.LM1276:
	andi	a3,a3,0xff
.LM1277:
	sb	a4,0(a1)
.LM1278:
.LM1279:
	sb	a3,%lo(esc_tag_len)(s4)
.LM1280:
	li	a1,109
	bne	a4,a1,.L256
.LM1281:
.LM1282:
	lw	a4,%lo(cli)(s1)
.LM1283:
	add	a3,s2,a3
	sb	zero,0(a3)
.LM1284:
.LM1285:
	lw	a4,4(a4)
.LM1286:
	addi	a2,a2,2
	sb	a2,%lo(esc_tag_len)(s4)
.LM1287:
	bne	a4,zero,.L375
.LM1288:
	lui	a0,%hi(.LC14)
	mv	a1,s2
	addi	a0,a0,%lo(.LC14)
	j	.L374
.L263:
.LM1289:
.LM1290:
	lw	a3,52(s8)
	add	a3,s0,a3
	sb	a4,0(a3)
.LM1291:
.LM1292:
	addi	a3,a4,-8
.LM1293:
	beq	a3,zero,.L341
	addi	a3,a4,-127
	bne	a3,zero,.L290
.L341:
.LM1294:
.LM1295:
	lw	a4,52(s8)
.LM1296:
	beq	a4,zero,.L256
.LM1297:
.LM1298:
	addi	a4,a4,-1
	sw	a4,52(s8)
.LM1299:
.LM1300:
	lw	a4,%lo(cli)(s1)
.LM1301:
	lw	a4,4(a4)
	bne	a4,zero,.L256
.LM1302:
	li	a2,8
	lui	a0,%hi(.LC59)
	mv	a1,a2
	addi	a0,a0,%lo(.LC59)
	call	printf
.LVL432:
	j	.L256
.L290:
.LM1303:
.LM1304:
	li	a3,9
	bne	a4,a3,.L292
.LM1305:
.LM1306:
	lw	a4,52(s8)
.LBB62:
.LBB63:
.LM1307:
	lui	s9,%hi(.LC8)
	addi	a0,s9,%lo(.LC8)
.LBE63:
.LBE62:
.LM1308:
	add	a4,s0,a4
	sb	zero,0(a4)
.LM1309:
.LVL433:
.LBB69:
.LBI62:
.LM1310:
.LBB67:
.LM1311:
.LM1312:
.LM1313:
	call	aos_cli_printf
.LVL434:
.LM1314:
.LM1315:
	li	s4,0
.LM1316:
	li	s3,0
.LM1317:
	li	s7,0
.LM1318:
	li	s6,0
.LBB64:
.LM1319:
	li	s11,1
.LM1320:
	li	s10,2
.LVL435:
.L293:
.LM1321:
.LBE64:
.LM1322:
.LM1323:
	lw	a3,%lo(cli)(s1)
.LM1324:
	lw	a4,44(a3)
	addi	a4,a4,8
.LM1325:
	bgeu	s6,a4,.L298
.LM1326:
	lw	a4,48(a3)
	bgtu	a4,s7,.L299
.L298:
.LM1327:
.LM1328:
	li	a4,1
	bne	s3,a4,.L300
.LM1329:
	beq	s4,zero,.L302
.LM1330:
.LM1331:
	mv	a0,s4
	call	strlen
.LVL436:
.LM1332:
.LM1333:
	li	a4,255
	bgtu	a0,a4,.L302
.LM1334:
	lw	a4,52(s8)
.LM1335:
	sub	s3,a0,a4
.LVL437:
.LM1336:
	mv	a2,s3
	add	a1,s4,a4
	add	a0,s0,a4
.LVL438:
.LM1337:
	call	memcpy
.LVL439:
.LM1338:
.LM1339:
	lw	a4,52(s8)
	add	s3,s3,a4
.LM1340:
.LM1341:
	addi	a4,s3,1
	sw	a4,52(s8)
.LM1342:
	add	s3,s0,s3
	li	a4,32
	sb	a4,0(s3)
.LM1343:
.LM1344:
	lw	a4,52(s8)
	add	a4,s0,a4
	sb	zero,0(a4)
.LM1345:
.LVL440:
.L302:
.LM1346:
	lui	a1,%hi(.LC62)
	lui	a0,%hi(.LC63)
	mv	a2,s0
	addi	a1,a1,%lo(.LC62)
	addi	a0,a0,%lo(.LC63)
	call	aos_cli_printf
.LVL441:
.LM1347:
.LBE67:
.LBE69:
.LM1348:
	j	.L256
.LVL442:
.L299:
.LBB70:
.LBB68:
.LBB65:
.LM1349:
.LM1350:
	li	a1,0
	mv	a0,s6
	call	cli_command_get
.LVL443:
.LM1351:
.LM1352:
	lw	a1,0(a0)
.LM1353:
	beq	a1,zero,.L294
.LM1354:
.LM1355:
	lw	a2,52(s8)
	sw	a0,12(sp)
	mv	a0,s0
.LVL444:
.LM1356:
	call	strncmp
.LVL445:
.LM1357:
	bne	a0,zero,.L295
.LM1358:
	lw	a4,12(sp)
.LM1359:
	addi	s3,s3,1
.LVL446:
.LM1360:
	lw	a2,0(a4)
.LM1361:
	bne	s3,s11,.L296
.LM1362:
.LM1363:
	mv	s4,a2
.LVL447:
.L295:
.LM1364:
.LM1365:
	addi	s7,s7,1
.LVL448:
.L294:
.LM1366:
.LBE65:
.LM1367:
	addi	s6,s6,1
.LVL449:
.LM1368:
	j	.L293
.LVL450:
.L296:
.LBB66:
.LM1369:
.LM1370:
	bne	s3,s10,.L297
.LM1371:
	lui	a0,%hi(.LC60)
	mv	a1,s4
	addi	a0,a0,%lo(.LC60)
	call	aos_cli_printf
.LVL451:
	j	.L295
.L297:
.LM1372:
	lui	a0,%hi(.LC61)
	mv	a1,a2
	addi	a0,a0,%lo(.LC61)
	call	aos_cli_printf
.LVL452:
	j	.L295
.LVL453:
.L300:
.LM1373:
.LBE66:
.LM1374:
.LM1375:
	ble	s3,a4,.L302
.LM1376:
	addi	a0,s9,%lo(.LC8)
	call	aos_cli_printf
.LVL454:
	j	.L302
.LVL455:
.L292:
.LM1377:
.LBE68:
.LBE70:
.LM1378:
.LM1379:
	lw	a3,%lo(cli)(s1)
.LM1380:
	lw	a3,4(a3)
	bne	a3,zero,.L304
.LM1381:
	lw	a0,4(sp)
	mv	a1,a4
	call	printf
.LVL456:
.L304:
.LM1382:
.LM1383:
.LM1384:
.LM1385:
.LM1386:
	lw	a4,52(s8)
.LM1387:
	li	a3,255
.LM1388:
	addi	a4,a4,1
	sw	a4,52(s8)
.LM1389:
.LM1390:
	bleu	a4,a3,.L256
.LM1391:
	lui	a0,%hi(.LC64)
	addi	a0,a0,%lo(.LC64)
	call	aos_cli_printf
.LVL457:
.LM1392:
	lui	a0,%hi(.LC62)
	addi	a0,a0,%lo(.LC62)
	call	aos_cli_printf
.LVL458:
.LM1393:
.LM1394:
	sw	zero,52(s8)
.LM1395:
.LVL459:
.L255:
.LM1396:
.LBE76:
.LBE107:
.LM1397:
	lw	ra,108(sp)
	.cfi_remember_state
	.cfi_restore 1
	lw	s0,104(sp)
	.cfi_restore 8
	lw	s1,100(sp)
	.cfi_restore 9
	lw	s2,96(sp)
	.cfi_restore 18
	lw	s3,92(sp)
	.cfi_restore 19
	lw	s4,88(sp)
	.cfi_restore 20
	lw	s5,84(sp)
	.cfi_restore 21
.LVL460:
.LM1398:
	lw	s6,80(sp)
	.cfi_restore 22
	lw	s7,76(sp)
	.cfi_restore 23
	lw	s8,72(sp)
	.cfi_restore 24
	lw	s9,68(sp)
	.cfi_restore 25
	lw	s10,64(sp)
	.cfi_restore 26
	lw	s11,60(sp)
	.cfi_restore 27
	addi	sp,sp,112
	.cfi_def_cfa_offset 0
	jr	ra
.LVL461:
.L306:
	.cfi_restore_state
.LBB108:
.LBB77:
.LM1399:
	addi	a0,sp,32
	call	cli_getchar
.LVL462:
.LM1400:
	bne	a0,zero,.L308
	j	.L255
.LVL463:
.L259:
.LM1401:
.LBE77:
.LBE108:
.LBB109:
.LBB97:
.LM1402:
.LBB87:
.LBI87:
.LM1403:
.LBB88:
.LM1404:
.LM1405:
	lw	s3,%lo(cli)(s1)
	addi	s3,s3,56
.LVL464:
.LM1406:
.LM1407:
	mv	a0,s3
	call	strlen
.LVL465:
.LM1408:
.LM1409:
	lw	a4,%lo(cli)(s1)
.LM1410:
	li	a3,256
.LM1411:
	addi	s5,a0,1
.LVL466:
.LM1412:
	lw	a5,320(a4)
.LVL467:
.LM1413:
.LM1414:
	add	s0,a5,a0
.LM1415:
	sub	s4,a3,a5
.LVL468:
.LM1416:
.LM1417:
.LM1418:
.LM1419:
	addi	a0,a5,324
.LM1420:
	sw	a5,316(a4)
.LM1421:
.LM1422:
	add	a0,a4,a0
.LM1423:
	bgt	s5,s4,.L310
.LM1424:
.LVL469:
.LM1425:
.LM1426:
	add	a4,a4,s0
	lbu	s6,324(a4)
.LVL470:
.LM1427:
	mv	a2,s5
	mv	a1,s3
.LVL471:
.L376:
.LM1428:
	call	strncpy
.LVL472:
.LM1429:
.LM1430:
	addi	s0,s0,1
.LVL473:
.LM1431:
	li	a3,256
	rem	s0,s0,a3
.LVL474:
.LM1432:
.LM1433:
	lw	a4,%lo(cli)(s1)
.LM1434:
	sw	s0,320(a4)
.LM1435:
.LM1436:
	beq	s6,zero,.L313
.LVL475:
.L312:
.LM1437:
.LM1438:
	add	a5,a4,s0
.LM1439:
	lbu	a2,324(a5)
	beq	a2,zero,.L313
.LM1440:
.LM1441:
	addi	s0,s0,1
.LVL476:
.LM1442:
	rem	s0,s0,a3
.LVL477:
.LM1443:
	sb	zero,324(a5)
.LM1444:
	j	.L312
.LVL478:
.L310:
.LM1445:
.LM1446:
	rem	s0,s0,a3
.LVL479:
.LM1447:
.LM1448:
	mv	a2,s4
	mv	a1,s3
.LM1449:
	add	a4,a4,s0
	lbu	s6,324(a4)
.LVL480:
.LM1450:
	call	strncpy
.LVL481:
.LM1451:
.LM1452:
	lw	a0,%lo(cli)(s1)
.LM1453:
	sub	a2,s5,s4
	add	a1,s3,s4
	addi	a0,a0,324
	j	.L376
.LVL482:
.L316:
.LM1454:
.LBE88:
.LBE87:
.LBB89:
.LBB84:
.LM1455:
	bne	a3,s7,.L319
.LM1456:
	lbu	a3,28(sp)
.LM1457:
	ble	a5,zero,.L331
.LM1458:
	addi	a6,a5,-1
	add	a7,s2,a6
.LM1459:
	lbu	a1,0(a7)
	li	a2,92
	bne	a1,a2,.L331
.LM1460:
	andi	a2,a3,1
	bne	a2,zero,.L377
.L331:
.LM1461:
.LM1462:
	andi	a2,a3,2
	bne	a2,zero,.L327
.LM1463:
.LM1464:
	lw	a2,28(sp)
	andi	a2,a2,3
.LM1465:
	bne	a2,s5,.L322
.LM1466:
.LM1467:
	andi	a3,a3,-2
	sb	a3,28(sp)
.LM1468:
.LM1469:
	sb	zero,0(s0)
.LM1470:
.LM1471:
	lw	a3,0(s11)
	beq	a3,zero,.L322
.LM1472:
.LM1473:
	addi	s6,s6,1
.LVL483:
.LM1474:
	li	a3,4
	beq	s6,a3,.L322
.LM1475:
.LM1476:
	slli	s11,s6,2
.LVL484:
.LM1477:
	add	s11,s3,s11
.LVL485:
.LM1478:
	j	.L322
.L317:
.LM1479:
.LM1480:
	lbu	a3,28(sp)
.LM1481:
	andi	a2,a3,2
	bne	a2,zero,.L327
.LM1482:
.LM1483:
	ori	a3,a3,4
	sb	a3,28(sp)
.LM1484:
.LVL486:
.L322:
.LM1485:
.LM1486:
	lbu	a3,28(sp)
.LM1487:
	andi	a2,a3,4
	bne	a2,zero,.L332
.LM1488:
	addi	a5,a5,1
.LVL487:
.LM1489:
	beq	a5,s9,.L332
.LM1490:
	beq	s6,s10,.L332
.LM1491:
	lw	a2,0(s11)
	li	a4,15
	ble	a2,a4,.L260
.L332:
.LM1492:
.LM1493:
	andi	a3,a3,2
	bne	a3,zero,.L327
	addi	s1,s1,%lo(argvall.0)
.LM1494:
	li	s0,0
.LM1495:
	li	s4,0
.LVL488:
.L334:
.LM1496:
.LM1497:
	lw	a0,0(s3)
	mv	a1,s1
.LM1498:
	addi	s4,s4,1
.LVL489:
.LM1499:
	call	proc_onecmd
.LVL490:
.LM1500:
	or	s0,s0,a0
.LVL491:
.LM1501:
.LM1502:
.LM1503:
	addi	s3,s3,4
	addi	s1,s1,64
	bgt	s4,s6,.L342
	addi	a5,s4,-4
	bne	a5,zero,.L334
.L342:
.LVL492:
.LM1504:
.LBE84:
.LBE89:
.LM1505:
.LM1506:
	li	a5,1
	bne	s0,a5,.L336
.LM1507:
.LVL493:
.LBB90:
.LBI90:
.LM1508:
.LBB91:
.LM1509:
.LM1510:
	lui	a0,%hi(.LC65)
	mv	a1,s2
	addi	a0,a0,%lo(.LC65)
	call	aos_cli_printf
.LVL494:
.L337:
.LM1511:
.LBE91:
.LBE90:
.LM1512:
	lui	a0,%hi(.LC8)
	addi	a0,a0,%lo(.LC8)
	call	aos_cli_printf
.LVL495:
.LM1513:
.LM1514:
	lui	a5,%hi(esc_tag)
.LBE97:
.LBE109:
.LM1515:
	lw	s0,104(sp)
	.cfi_remember_state
	.cfi_restore 8
	lw	ra,108(sp)
	.cfi_restore 1
	lw	s1,100(sp)
	.cfi_restore 9
	lw	s2,96(sp)
	.cfi_restore 18
.LVL496:
.LM1516:
	lw	s3,92(sp)
	.cfi_restore 19
	lw	s4,88(sp)
	.cfi_restore 20
	lw	s5,84(sp)
	.cfi_restore 21
	lw	s6,80(sp)
	.cfi_restore 22
	lw	s7,76(sp)
	.cfi_restore 23
	lw	s8,72(sp)
	.cfi_restore 24
	lw	s9,68(sp)
	.cfi_restore 25
	lw	s10,64(sp)
	.cfi_restore 26
	lw	s11,60(sp)
	.cfi_restore 27
.LBB110:
.LBB98:
.LM1517:
	sb	zero,%lo(esc_tag)(a5)
.LM1518:
.LM1519:
	lui	a5,%hi(esc_tag_len)
	sb	zero,%lo(esc_tag_len)(a5)
.LM1520:
	lui	a0,%hi(.LC62)
.LBE98:
.LBE110:
.LM1521:
.LBB111:
.LBB99:
.LM1522:
	addi	a0,a0,%lo(.LC62)
.LBE99:
.LBE111:
.LM1523:
	addi	sp,sp,112
	.cfi_def_cfa_offset 0
.LBB112:
.LBB100:
.LM1524:
	tail	aos_cli_printf
.LVL497:
.L315:
	.cfi_restore_state
.LBB92:
.LBB85:
.LM1525:
.LM1526:
	lbu	a3,28(sp)
.LM1527:
	andi	a2,a3,1
.LM1528:
	ble	a5,zero,.L323
.LM1529:
	addi	a6,a5,-1
	add	a7,s2,a6
.LM1530:
	lbu	a0,0(a7)
	li	a1,92
	bne	a0,a1,.L323
.LM1531:
	beq	a2,zero,.L323
.L377:
.LM1532:
	mv	a0,s0
	sw	a6,4(sp)
	sw	a7,0(sp)
.LM1533:
.LM1534:
	call	strlen
.LVL498:
.LM1535:
	addi	a2,a0,1
	lw	a0,0(sp)
	mv	a1,s0
	call	memcpy
.LVL499:
.LM1536:
	lw	a5,4(sp)
.LM1537:
	j	.L322
.LVL500:
.L323:
.LM1538:
.LM1539:
	andi	a3,a3,2
	bne	a3,zero,.L324
.LM1540:
	bne	a2,zero,.L322
.LM1541:
.LM1542:
.LM1543:
.LM1544:
.LM1545:
	lbu	a3,28(sp)
.LM1546:
	lw	a1,0(s11)
.LM1547:
	addi	a2,s1,%lo(argvall.0)
.LM1548:
	ori	a3,a3,3
	sb	a3,28(sp)
.LM1549:
.LM1550:
	addi	a3,a1,1
	sw	a3,0(s11)
.LM1551:
.LM1552:
	slli	a3,s6,4
	add	a3,a3,a1
	slli	a3,a3,2
	add	a3,a2,a3
.LM1553:
	addi	a2,a5,1
.LM1554:
	add	a2,s2,a2
.LM1555:
	sw	a2,0(a3)
	j	.L322
.L324:
.LM1556:
.LM1557:
	bne	a2,zero,.L326
.LVL501:
.L327:
.LM1558:
.LBE85:
.LBE92:
.LM1559:
	lui	a0,%hi(.LC66)
	addi	a0,a0,%lo(.LC66)
	call	aos_cli_printf
.LVL502:
	j	.L337
.LVL503:
.L326:
.LBB93:
.LBB86:
.LM1560:
.LM1561:
.LM1562:
.LM1563:
.LM1564:
	lbu	a3,28(sp)
	andi	a3,a3,-4
.L378:
.LM1565:
	sb	a3,28(sp)
.LM1566:
.LM1567:
	sb	zero,0(s0)
	j	.L322
.L318:
.LM1568:
.LM1569:
	ble	a5,zero,.L330
.LM1570:
	addi	a6,a5,-1
	add	a7,s2,a6
.LM1571:
	lbu	a2,0(a7)
	li	a3,92
	bne	a2,a3,.L330
.LM1572:
	lbu	a3,28(sp)
	andi	a3,a3,1
	bne	a3,zero,.L377
.L330:
.LM1573:
.LM1574:
	lw	a3,28(sp)
	andi	a3,a3,3
.LM1575:
	bne	a3,s5,.L322
.LM1576:
.LM1577:
	lbu	a3,28(sp)
	andi	a3,a3,-2
	j	.L378
.LVL504:
.L336:
.LM1578:
.LBE86:
.LBE93:
.LM1579:
.LM1580:
	li	a5,2
	bne	s0,a5,.L337
	j	.L327
.LBE100:
.LBE112:
	.cfi_endproc
.LFE15:
	.size	cli_main_input, .-cli_main_input
	.section	.rodata.console_cb_read.str1.4,"aMS",@progbits,1
	.align	2
.LC67:
	.string	"-------------BUG from aos_read for ret\r\n"
	.section	.text.console_cb_read,"ax",@progbits
	.align	1
	.type	console_cb_read, @function
console_cb_read:
.LVL505:
.LFB41:
.LM1581:
	.cfi_startproc
.LM1582:
.LM1583:
.LM1584:
.LM1585:
	addi	sp,sp,-32
	.cfi_def_cfa_offset 32
.LM1586:
	li	a2,16
	mv	a1,sp
.LVL506:
.LM1587:
	sw	s0,24(sp)
	sw	ra,28(sp)
	.cfi_offset 8, -8
	.cfi_offset 1, -4
.LM1588:
	mv	s0,a0
.LM1589:
	call	aos_read
.LVL507:
.LM1590:
.LM1591:
	ble	a0,zero,.L380
.LM1592:
	li	a5,16
	mv	a1,a0
.LM1593:
.LM1594:
	bgtu	a0,a5,.L382
.LM1595:
.LM1596:
	lui	a5,%hi(fd_console)
.LM1597:
	mv	a0,sp
.LVL508:
.LM1598:
	sw	s0,%lo(fd_console)(a5)
.LM1599:
	call	cli_main_input
.LVL509:
.L380:
.LM1600:
	lw	ra,28(sp)
	.cfi_remember_state
	.cfi_restore 1
	lw	s0,24(sp)
	.cfi_restore 8
.LVL510:
.LM1601:
	addi	sp,sp,32
	.cfi_def_cfa_offset 0
	jr	ra
.LVL511:
.L382:
	.cfi_restore_state
.LBB115:
.LBI115:
.LM1602:
.LBB116:
.LM1603:
	lui	a0,%hi(.LC67)
.LVL512:
.LM1604:
	addi	a0,a0,%lo(.LC67)
	call	printf
.LVL513:
.LM1605:
.LBE116:
.LBE115:
.LM1606:
	j	.L380
	.cfi_endproc
.LFE41:
	.size	console_cb_read, .-console_cb_read
	.section	.text.aos_cli_input_direct,"ax",@progbits
	.align	1
	.globl	aos_cli_input_direct
	.type	aos_cli_input_direct, @function
aos_cli_input_direct:
.LVL514:
.LFB46:
.LM1607:
	.cfi_startproc
.LM1608:
	tail	cli_main_input
.LVL515:
.LM1609:
	.cfi_endproc
.LFE46:
	.size	aos_cli_input_direct, .-aos_cli_input_direct
	.section	.rodata.str1.4,"aMS",@progbits,1
	.align	2
.LC68:
	.string	"Char Device"
	.align	2
.LC69:
	.string	"Block Device"
	.align	2
.LC70:
	.string	"File System"
	.section	.rodata.CSWTCH.205,"a"
	.align	2
	.type	CSWTCH.205, @object
	.size	CSWTCH.205, 12
CSWTCH.205:
	.word	.LC68
	.word	.LC69
	.word	.LC70
	.section	.bss.argvall.0,"aw",@nobits
	.align	2
	.type	argvall.0, @object
	.size	argvall.0, 256
argvall.0:
	.zero	256
	.section	.sdata.key2.1,"aw"
	.type	key2.1, @object
	.size	key2.1, 1
key2.1:
	.byte	-1
	.section	.sdata.key1.2,"aw"
	.type	key1.2, @object
	.size	key1.2, 1
key1.2:
	.byte	-1
	.section	.sbss.esc.3,"aw",@nobits
	.type	esc.3, @object
	.size	esc.3, 1
esc.3:
	.zero	1
	.globl	built_ins
	.section	.rodata.str1.4
	.align	2
.LC71:
	.string	"help"
	.align	2
.LC72:
	.string	"print this"
	.align	2
.LC73:
	.string	"p"
	.align	2
.LC74:
	.string	"print memory"
	.align	2
.LC75:
	.string	"m"
	.align	2
.LC76:
	.string	"modify memory"
	.align	2
.LC77:
	.string	"echo"
	.align	2
.LC78:
	.string	"echo for command"
	.align	2
.LC79:
	.string	"exit"
	.align	2
.LC80:
	.string	"close CLI"
	.align	2
.LC81:
	.string	"devname"
	.align	2
.LC82:
	.string	"print device name"
	.align	2
.LC83:
	.string	"sysver"
	.align	2
.LC84:
	.string	"system version"
	.align	2
.LC85:
	.string	"reboot"
	.align	2
.LC86:
	.string	"reboot system"
	.align	2
.LC87:
	.string	"poweroff"
	.align	2
.LC88:
	.string	"poweroff system"
	.align	2
.LC89:
	.string	"reset"
	.align	2
.LC90:
	.string	"system reset"
	.align	2
.LC91:
	.string	"time"
	.align	2
.LC92:
	.string	"system time"
	.align	2
.LC93:
	.string	"ota"
	.align	2
.LC94:
	.string	"system ota"
	.align	2
.LC95:
	.string	"ps"
	.align	2
.LC96:
	.string	"thread dump"
	.align	2
.LC97:
	.string	"ls"
	.align	2
.LC98:
	.string	"file list"
	.align	2
.LC99:
	.string	"hexdump"
	.align	2
.LC100:
	.string	"dump file"
	.align	2
.LC101:
	.string	"cat"
	.align	2
.LC102:
	.string	"cat file"
	.section	.static_cli_cmds,"a"
	.align	2
	.type	built_ins, @object
	.size	built_ins, 192
built_ins:
	.word	.LC71
	.word	.LC72
	.word	help_cmd
	.word	.LC73
	.word	.LC74
	.word	pmem_cmd
	.word	.LC75
	.word	.LC76
	.word	mmem_cmd
	.word	.LC77
	.word	.LC78
	.word	echo_cmd
	.word	.LC79
	.word	.LC80
	.word	exit_cmd
	.word	.LC81
	.word	.LC82
	.word	devname_cmd
	.word	.LC83
	.word	.LC84
	.word	version_cmd
	.word	.LC85
	.word	.LC86
	.word	reboot_cmd
	.word	.LC87
	.word	.LC88
	.word	poweroff_cmd
	.word	.LC89
	.word	.LC90
	.word	reset_cmd
	.word	.LC91
	.word	.LC92
	.word	uptime_cmd
	.word	.LC93
	.word	.LC94
	.word	ota_cmd
	.word	.LC95
	.word	.LC96
	.word	ps_cmd
	.word	.LC97
	.word	.LC98
	.word	ls_cmd
	.word	.LC99
	.word	.LC100
	.word	hexdump_cmd
	.word	.LC101
	.word	.LC102
	.word	cat_cmd
	.section	.sbss.fd_console,"aw",@nobits
	.align	2
	.type	fd_console, @object
	.size	fd_console, 4
fd_console:
	.zero	4
	.section	.sbss.esc_tag_len,"aw",@nobits
	.type	esc_tag_len, @object
	.size	esc_tag_len, 1
esc_tag_len:
	.zero	1
	.globl	esc_tag
	.section	.bss.esc_tag,"aw",@nobits
	.align	2
	.type	esc_tag, @object
	.size	esc_tag, 64
esc_tag:
	.zero	64
	.section	.sbss.cliexit,"aw",@nobits
	.align	2
	.type	cliexit, @object
	.size	cliexit, 4
cliexit:
	.zero	4
	.section	.sbss.cli,"aw",@nobits
	.align	2
	.type	cli, @object
	.size	cli, 4
cli:
	.zero	4
	.text
.Letext0:
	.section	.note.GNU-stack,"",@progbits
