	.file	"xz_decompress.c"
	.option nopic
	.attribute arch, "rv32i2p1_m2p0_f2p2_c2p0_zicsr2p0_zmmul1p0_zca1p0_zcf1p0"
	.attribute unaligned_access, 0
	.attribute stack_align, 16
	.text
.Ltext0:
	.cfi_sections	.debug_frame
	.section	.text.xz_uncompress_init,"ax",@progbits
	.align	1
	.globl	xz_uncompress_init
	.type	xz_uncompress_init, @function
xz_uncompress_init:
.LVL0:
.LFB1:
.LM1:
	.cfi_startproc
.LM2:
.LM3:
	addi	sp,sp,-32
	.cfi_def_cfa_offset 32
	sw	ra,28(sp)
	sw	s0,24(sp)
	sw	s1,20(sp)
	.cfi_offset 1, -4
	.cfi_offset 8, -8
	.cfi_offset 9, -12
.LM4:
	mv	s0,a0
	mv	s1,a1
	sw	a2,12(sp)
.LM5:
	call	xz_crc32_init
.LVL1:
.LM6:
.LM7:
	li	a1,32768
	li	a0,2
	call	xz_dec_init
.LVL2:
.LM8:
	lui	a5,%hi(s)
	sw	a0,%lo(s)(a5)
.LM9:
.LM10:
	beq	a0,zero,.L3
.LM11:
.LM12:
	lw	a2,12(sp)
.LM13:
	sw	s1,0(s0)
.LM14:
.LM15:
	sw	zero,4(s0)
.LM16:
.LM17:
	sw	zero,8(s0)
.LM18:
.LM19:
	sw	a2,12(s0)
.LM20:
.LM21:
	sw	zero,16(s0)
.LM22:
.LM23:
	sw	zero,20(s0)
.LM24:
.LM25:
	li	a0,0
.L1:
.LM26:
	lw	ra,28(sp)
	.cfi_remember_state
	.cfi_restore 1
	lw	s0,24(sp)
	.cfi_restore 8
.LVL3:
.LM27:
	lw	s1,20(sp)
	.cfi_restore 9
.LVL4:
.LM28:
	addi	sp,sp,32
	.cfi_def_cfa_offset 0
.LVL5:
.LM29:
	jr	ra
.LVL6:
.L3:
	.cfi_restore_state
.LM30:
	li	a0,1
	j	.L1
	.cfi_endproc
.LFE1:
	.size	xz_uncompress_init, .-xz_uncompress_init
	.section	.text.xz_uncompress_stream,"ax",@progbits
	.align	1
	.globl	xz_uncompress_stream
	.type	xz_uncompress_stream, @function
xz_uncompress_stream:
.LVL7:
.LFB2:
.LM31:
	.cfi_startproc
.LM32:
.LM33:
.LM34:
	addi	sp,sp,-32
	.cfi_def_cfa_offset 32
	sw	ra,28(sp)
	.cfi_offset 1, -4
.LM35:
	mv	a1,a0
.LVL8:
.LM36:
	sw	zero,0(a5)
.LM37:
.LM38:
	lw	a0,4(a0)
.LVL9:
.LM39:
	lw	a3,8(a1)
.LVL10:
.LM40:
	bne	a0,a3,.L6
.LM41:
.LM42:
	sw	a2,8(a1)
.LM43:
.LM44:
	sw	zero,4(a1)
.L6:
.LM45:
.LM46:
	lw	a2,16(a1)
.LVL11:
.LM47:
	lw	a3,20(a1)
	bne	a2,a3,.L7
.LM48:
.LM49:
	sw	a4,20(a1)
.LM50:
.LM51:
	sw	zero,16(a1)
.L7:
.LM52:
	lui	a4,%hi(s)
.LVL12:
.LM53:
	lw	a0,%lo(s)(a4)
	sw	a5,12(sp)
.LM54:
.LM55:
	sw	a1,8(sp)
	call	xz_dec_run
.LVL13:
.LM56:
.LM57:
	lw	a1,8(sp)
.LM58:
	li	a3,1
	lw	a5,12(sp)
.LM59:
	lw	a4,16(a1)
.LM60:
	beq	a0,a3,.L8
.LM61:
	lw	a3,20(a1)
	bne	a3,a4,.L5
.L8:
.LM62:
.LM63:
	sw	a4,0(a5)
.LM64:
.L5:
.LM65:
	lw	ra,28(sp)
	.cfi_restore 1
	addi	sp,sp,32
	.cfi_def_cfa_offset 0
.LVL14:
.LM66:
	jr	ra
	.cfi_endproc
.LFE2:
	.size	xz_uncompress_stream, .-xz_uncompress_stream
	.section	.text.xz_uncompress_end,"ax",@progbits
	.align	1
	.globl	xz_uncompress_end
	.type	xz_uncompress_end, @function
xz_uncompress_end:
.LFB3:
.LM67:
	.cfi_startproc
.LM68:
	lui	a5,%hi(s)
	lw	a0,%lo(s)(a5)
	tail	xz_dec_end
.LVL15:
	.cfi_endproc
.LFE3:
	.size	xz_uncompress_end, .-xz_uncompress_end
	.section	.sbss.s,"aw",@nobits
	.align	2
	.type	s, @object
	.size	s, 4
s:
	.zero	4
	.text
.Letext0:
	.section	.note.GNU-stack,"",@progbits
