	.file	"xz_dec_lzma2.c"
	.option nopic
	.attribute arch, "rv32i2p1_m2p0_f2p2_c2p0_zicsr2p0_zmmul1p0_zca1p0_zcf1p0"
	.attribute unaligned_access, 0
	.attribute stack_align, 16
	.text
.Ltext0:
	.cfi_sections	.debug_frame
	.section	.text.lzma_len,"ax",@progbits
	.align	1
	.type	lzma_len, @function
lzma_len:
.LVL0:
.LFB30:
.LM1:
	.cfi_startproc
.LM2:
.LM3:
.LM4:
.LBB136:
.LBI136:
.LM5:
.LBB137:
.LM6:
.LM7:
.LM8:
.LBB138:
.LBI138:
.LM9:
.LBB139:
.LM10:
.LM11:
	lw	a4,0(a0)
.LM12:
	li	a5,16777216
	bgeu	a4,a5,.L2
.LM13:
	lw	a6,16(a0)
.LM14:
	lw	a5,12(a0)
.LM15:
	slli	a4,a4,8
.LM16:
	addi	a7,a6,1
.LM17:
	lw	a3,4(a0)
.LM18:
.LM19:
	sw	a4,0(a0)
.LM20:
.LM21:
	sw	a7,16(a0)
.LM22:
	add	a5,a5,a6
	lbu	a5,0(a5)
.LM23:
	slli	a3,a3,8
.LM24:
	add	a5,a5,a3
.LM25:
	sw	a5,4(a0)
.L2:
.LVL1:
.LM26:
.LBE139:
.LBE138:
.LM27:
.LM28:
	lhu	a3,0(a1)
.LM29:
	srli	a5,a4,11
.LM30:
	mul	a5,a5,a3
.LVL2:
.LM31:
.LM32:
	lw	a3,4(a0)
.LM33:
	bleu	a5,a3,.L3
.LM34:
.LM35:
	sw	a5,0(a0)
.LM36:
	lhu	a4,0(a1)
.LM37:
	li	a5,4096
.LVL3:
.LM38:
	addi	a5,a5,-2048
	sub	a5,a5,a4
.LM39:
	srai	a5,a5,5
.LBE137:
.LBE136:
.LM40:
	slli	a2,a2,4
.LVL4:
.LBB143:
.LBB140:
.LM41:
	add	a4,a4,a5
.LBE140:
.LBE143:
.LM42:
	addi	a2,a2,4
.LBB144:
.LBB141:
.LM43:
	sh	a4,0(a1)
.LVL5:
.LM44:
.LM45:
.LM46:
.LBE141:
.LBE144:
.LM47:
	li	a5,2
.LM48:
	add	a1,a1,a2
.LVL6:
.LM49:
.LM50:
.L12:
.LM51:
	li	t1,8
.LVL7:
.L4:
.LBB145:
.LBB146:
.LBB147:
.LBB148:
.LM52:
	li	a6,4096
.LBE148:
.LBE147:
.LBE146:
.LBE145:
.LM53:
	sw	a5,100(a0)
.LVL8:
.LM54:
.LBB169:
.LBI145:
.LM55:
.LBB167:
.LM56:
.LM57:
	li	a7,1
.LBB161:
.LBB155:
.LBB149:
.LBB150:
.LM58:
	li	t4,16777216
.LBE150:
.LBE149:
.LM59:
	addi	a6,a6,-2048
.LVL9:
.L10:
.LM60:
.LBE155:
.LBE161:
.LM61:
.LM62:
.LBB162:
.LBB156:
.LBB153:
.LBB151:
.LM63:
	lw	a4,0(a0)
.LBE151:
.LBE153:
.LBE156:
.LBE162:
.LM64:
	slli	a7,a7,1
.LVL10:
.LM65:
	add	a3,a1,a7
.LVL11:
.LBB163:
.LBI147:
.LM66:
.LBB157:
.LM67:
.LM68:
.LM69:
.LBB154:
.LBI149:
.LM70:
.LBB152:
.LM71:
.LM72:
	bgeu	a4,t4,.L7
.LM73:
	lw	t3,16(a0)
.LM74:
	lw	a5,12(a0)
.LM75:
	slli	a4,a4,8
.LM76:
	addi	t5,t3,1
.LM77:
	lw	a2,4(a0)
.LM78:
.LM79:
	sw	a4,0(a0)
.LM80:
.LM81:
	sw	t5,16(a0)
.LM82:
	add	a5,a5,t3
	lbu	a5,0(a5)
.LM83:
	slli	a2,a2,8
.LM84:
	add	a5,a5,a2
.LM85:
	sw	a5,4(a0)
.L7:
.LVL12:
.LM86:
.LBE152:
.LBE154:
.LM87:
.LM88:
	lhu	a2,0(a3)
.LM89:
	srli	a5,a4,11
.LM90:
	mul	a5,a5,a2
.LVL13:
.LM91:
.LM92:
	lw	a2,4(a0)
.LM93:
	bleu	a5,a2,.L8
.LM94:
.LM95:
	sw	a5,0(a0)
.LM96:
	lhu	a5,0(a3)
.LVL14:
.LM97:
	sub	a4,a6,a5
.LM98:
	srai	a4,a4,5
.LM99:
	add	a5,a5,a4
.LM100:
.LM101:
.LVL15:
.LM102:
.LBE157:
.LBE163:
.LM103:
.L9:
.LBB164:
.LBB158:
.LM104:
	sh	a5,0(a3)
.LM105:
.LBE158:
.LBE164:
.LM106:
	bgtu	t1,a7,.L10
.LM107:
.LVL16:
.LM108:
.LBE167:
.LBE169:
.LM109:
	lw	a5,100(a0)
	sub	a5,a5,t1
	add	a5,a5,a7
	sw	a5,100(a0)
.LM110:
	ret
.LVL17:
.L3:
.LBB170:
.LBB142:
.LM111:
.LM112:
	sub	a4,a4,a5
.LM113:
	sub	a3,a3,a5
.LM114:
	sw	a4,0(a0)
.LM115:
.LM116:
	sw	a3,4(a0)
.LM117:
	lhu	a5,0(a1)
.LVL18:
.LM118:
	srli	a4,a5,5
	sub	a5,a5,a4
	sh	a5,0(a1)
.LM119:
.LM120:
.LVL19:
.LM121:
.LBE142:
.LBE170:
.LM122:
.LBB171:
.LBI171:
.LM123:
.LBB172:
.LM124:
.LM125:
.LM126:
.LBB173:
.LBI173:
.LM127:
.LBB174:
.LM128:
.LM129:
	lw	a4,0(a0)
.LM130:
	li	a5,16777216
	bgeu	a4,a5,.L5
.LM131:
	lw	a6,16(a0)
.LM132:
	lw	a5,12(a0)
.LM133:
	slli	a4,a4,8
.LM134:
	addi	a7,a6,1
.LM135:
	lw	a3,4(a0)
.LM136:
.LM137:
	sw	a4,0(a0)
.LM138:
.LM139:
	sw	a7,16(a0)
.LM140:
	add	a5,a5,a6
	lbu	a5,0(a5)
.LM141:
	slli	a3,a3,8
.LM142:
	add	a5,a5,a3
.LM143:
	sw	a5,4(a0)
.L5:
.LVL20:
.LM144:
.LBE174:
.LBE173:
.LM145:
.LM146:
	lhu	a3,2(a1)
.LM147:
	srli	a5,a4,11
.LM148:
	mul	a5,a5,a3
.LVL21:
.LM149:
.LM150:
	lw	a3,4(a0)
.LM151:
	bleu	a5,a3,.L6
.LM152:
.LM153:
	sw	a5,0(a0)
.LM154:
	lhu	a4,2(a1)
.LM155:
	li	a5,4096
.LVL22:
.LM156:
	addi	a5,a5,-2048
	sub	a5,a5,a4
.LM157:
	srai	a5,a5,5
.LBE172:
.LBE171:
.LM158:
	slli	a2,a2,4
.LVL23:
.LBB179:
.LBB175:
.LM159:
	add	a4,a4,a5
.LBE175:
.LBE179:
.LM160:
	addi	a2,a2,260
.LBB180:
.LBB176:
.LM161:
	sh	a4,2(a1)
.LVL24:
.LM162:
.LM163:
.LM164:
.LBE176:
.LBE180:
.LM165:
	li	a5,10
.LM166:
	add	a1,a1,a2
.LVL25:
.LM167:
.LM168:
	j	.L12
.LVL26:
.L6:
.LBB181:
.LBB177:
.LM169:
.LM170:
	sub	a4,a4,a5
.LM171:
	sub	a3,a3,a5
.LM172:
	sw	a4,0(a0)
.LM173:
.LM174:
	sw	a3,4(a0)
.LM175:
	lhu	a5,2(a1)
.LVL27:
.LM176:
.LBE177:
.LBE181:
.LM177:
	li	t1,256
.LM178:
	addi	a1,a1,516
.LVL28:
.LBB182:
.LBB178:
.LM179:
	srli	a4,a5,5
	sub	a5,a5,a4
	sh	a5,-514(a1)
.LM180:
.LM181:
.LVL29:
.LM182:
.LBE178:
.LBE182:
.LM183:
.LM184:
.LM185:
.LM186:
	li	a5,18
	j	.L4
.LVL30:
.L8:
.LBB183:
.LBB168:
.LBB165:
.LBB159:
.LM187:
.LM188:
	sub	a4,a4,a5
.LM189:
	sub	a2,a2,a5
.LM190:
	sw	a4,0(a0)
.LM191:
.LM192:
	sw	a2,4(a0)
.LM193:
	lhu	a5,0(a3)
.LVL31:
.LM194:
.LBE159:
.LBE165:
.LM195:
	addi	a7,a7,1
.LBB166:
.LBB160:
.LM196:
	srli	a4,a5,5
	sub	a5,a5,a4
.LM197:
.LM198:
.LVL32:
.LM199:
.LBE160:
.LBE166:
.LM200:
.LM201:
	j	.L9
.LBE168:
.LBE183:
	.cfi_endproc
.LFE30:
	.size	lzma_len, .-lzma_len
	.section	.text.dict_repeat,"ax",@progbits
	.align	1
	.type	dict_repeat, @function
dict_repeat:
.LVL33:
.LFB16:
.LM202:
	.cfi_startproc
.LM203:
.LM204:
.LM205:
.LM206:
	lw	a5,12(a0)
.LM207:
	mv	a4,a0
.LM208:
	bleu	a5,a2,.L21
.LM209:
	lw	a5,24(a0)
.LM210:
	li	a0,0
.LVL34:
.LM211:
	bleu	a5,a2,.L14
.LVL35:
.LBB186:
.LBI186:
.LM212:
.LBB187:
.LM213:
.LM214:
	lw	a3,16(a4)
	lw	a0,8(a4)
.LM215:
	lw	a5,0(a1)
.LM216:
	sub	a3,a3,a0
.LM217:
	bleu	a3,a5,.L15
	mv	a3,a5
.L15:
.LVL36:
.LM218:
.LM219:
	sub	a5,a5,a3
	sw	a5,0(a1)
.LM220:
.LM221:
	lw	a1,8(a4)
.LVL37:
.LM222:
	sub	a5,a1,a2
	addi	a5,a5,-1
.LVL38:
.LM223:
.LM224:
	bltu	a2,a1,.L18
.LM225:
.LM226:
	lw	a2,20(a4)
.LVL39:
.LM227:
	add	a5,a5,a2
.LVL40:
.L18:
.LM228:
.LM229:
.LM230:
	lw	a0,8(a4)
.LM231:
	lw	a2,0(a4)
.LM232:
	addi	a1,a5,1
.LVL41:
.LM233:
	addi	a6,a0,1
	sw	a6,8(a4)
.LM234:
	add	a5,a2,a5
	lbu	a5,0(a5)
.LM235:
	add	a2,a2,a0
.LM236:
	addi	a3,a3,-1
.LVL42:
.LM237:
	sb	a5,0(a2)
.LM238:
.LM239:
	lw	a5,20(a4)
.LM240:
	sub	a5,a1,a5
	snez	a5,a5
	neg	a5,a5
	and	a5,a1,a5
.LVL43:
.LM241:
.LM242:
	bne	a3,zero,.L18
.LM243:
.LM244:
	lw	a5,8(a4)
.LVL44:
.LM245:
	lw	a3,12(a4)
.LVL45:
.LM246:
	bltu	a3,a5,.L19
.L20:
.LM247:
	li	a0,1
	ret
.L19:
.LM248:
.LM249:
	sw	a5,12(a4)
	j	.L20
.LVL46:
.L21:
.LM250:
.LBE187:
.LBE186:
.LM251:
	li	a0,0
.LVL47:
.L14:
.LM252:
	ret
	.cfi_endproc
.LFE16:
	.size	dict_repeat, .-dict_repeat
	.section	.text.lzma_main,"ax",@progbits
	.align	1
	.type	lzma_main, @function
lzma_main:
.LVL48:
.LFB33:
.LM253:
	.cfi_startproc
.LM254:
.LM255:
.LBB276:
.LBI276:
.LM256:
.LBB277:
.LM257:
.LM258:
.LBE277:
.LBE276:
.LM259:
	addi	sp,sp,-32
	.cfi_def_cfa_offset 32
	sw	s0,24(sp)
	sw	ra,28(sp)
	sw	s1,20(sp)
	sw	s2,16(sp)
	sw	s3,12(sp)
	sw	s4,8(sp)
	sw	s5,4(sp)
	.cfi_offset 8, -8
	.cfi_offset 1, -4
	.cfi_offset 9, -12
	.cfi_offset 18, -16
	.cfi_offset 19, -20
	.cfi_offset 20, -24
	.cfi_offset 21, -28
.LM260:
	lw	a4,32(a0)
	lw	a5,40(a0)
.LM261:
	mv	s0,a0
.LM262:
	bgeu	a4,a5,.L26
.LM263:
	lw	a5,100(a0)
	beq	a5,zero,.L26
.LM264:
	lw	a2,80(a0)
	addi	a1,a0,100
	addi	a0,a0,24
.LVL49:
.LM265:
	call	dict_repeat
.LVL50:
.L26:
.LBB278:
.LBB279:
.LBB280:
.LBB281:
.LM266:
	li	s3,4096
.LBE281:
.LBE280:
.LBE279:
.LBE278:
.LBB336:
.LBB337:
.LBB338:
.LBB339:
.LM267:
	li	s2,16777216
.LBE339:
.LBE338:
.LBE337:
.LBE336:
.LBB348:
.LBB332:
.LBB287:
.LBB288:
.LM268:
	li	s1,6
.LBE288:
.LBE287:
.LBB291:
.LBB284:
.LM269:
	addi	s3,s3,-2048
.L27:
.LBE284:
.LBE291:
.LBE332:
.LBE348:
.LM270:
.LVL51:
.LBB349:
.LBI349:
.LM271:
.LBB350:
.LM272:
.LM273:
	lw	a7,32(s0)
.LVL52:
.LM274:
.LBE350:
.LBE349:
.LM275:
	lw	a5,40(s0)
.LBB351:
.LBB344:
.LBB342:
.LBB340:
.LM276:
	lw	a4,0(s0)
.LBE340:
.LBE342:
.LBE344:
.LBE351:
.LM277:
	bgeu	a7,a5,.L86
.LVL53:
.LBB352:
.LBI352:
.LM278:
.LBB353:
.LM279:
.LM280:
	lw	a5,16(s0)
.LVL54:
.LM281:
.LBE353:
.LBE352:
.LM282:
	lw	a3,20(s0)
	bleu	a5,a3,.L87
.L86:
.LM283:
.LVL55:
.LBB354:
.LBI354:
.LM284:
.LBB355:
.LM285:
.LM286:
	li	a5,16777216
	bltu	a4,a5,.L88
.L89:
.LM287:
.LBE355:
.LBE354:
.LM288:
	li	a0,1
	j	.L85
.LVL56:
.L87:
.LM289:
.LM290:
	lw	a2,112(s0)
.LM291:
	lbu	a3,96(s0)
.LM292:
	and	a2,a7,a2
.LVL57:
.LM293:
.LBB357:
.LBI336:
.LM294:
.LBB345:
.LM295:
.LM296:
.LM297:
.LBB343:
.LBI338:
.LM298:
.LBB341:
.LM299:
.LM300:
	bgeu	a4,s2,.L28
.LM301:
	lw	a0,12(s0)
.LM302:
	addi	a6,a5,1
.LM303:
	slli	a4,a4,8
.LM304:
	lw	a1,4(s0)
.LM305:
.LM306:
	sw	a4,0(s0)
.LM307:
.LM308:
	sw	a6,16(s0)
.LM309:
	add	a5,a0,a5
	lbu	a5,0(a5)
.LM310:
	slli	a1,a1,8
.LM311:
	add	a5,a5,a1
.LM312:
	sw	a5,4(s0)
.L28:
.LVL58:
.LM313:
.LBE341:
.LBE343:
.LM314:
	slli	a6,a3,4
	add	a6,a6,a2
	slli	a6,a6,1
	add	a6,s0,a6
.LM315:
	lhu	a1,116(a6)
.LM316:
	srli	a0,a4,11
.LM317:
	lw	a5,4(s0)
.LM318:
	mul	a0,a0,a1
.LVL59:
.LM319:
.LM320:
	bleu	a0,a5,.L29
.LM321:
.LM322:
	sub	a5,s3,a1
.LM323:
	srai	a5,a5,5
.LM324:
	add	a1,a1,a5
.LM325:
	sw	a0,0(s0)
.LM326:
.LBE345:
.LBE357:
.LBB358:
.LBB359:
.LBB360:
.LBB361:
.LBB362:
.LBB363:
.LM327:
	addi	a4,a7,-1
.LBE363:
.LBE362:
.LBE361:
.LBE360:
.LBE359:
.LBE358:
.LBB415:
.LBB346:
.LM328:
	sh	a1,116(a6)
.LM329:
.LM330:
.LVL60:
.LM331:
.LBE346:
.LBE415:
.LM332:
.LBB416:
.LBI358:
.LM333:
.LBB414:
.LM334:
.LM335:
.LM336:
.LM337:
.LM338:
.LM339:
.LM340:
.LBB367:
.LBI360:
.LM341:
.LBB366:
.LM342:
.LBB365:
.LBI362:
.LM343:
.LBB364:
.LM344:
.LM345:
.LM346:
	mv	a5,a4
.LM347:
	bne	a7,zero,.L30
.LM348:
.LM349:
	lw	a5,44(s0)
	addi	a5,a5,-1
.L30:
.LVL61:
.LM350:
.LM351:
	lw	a2,36(s0)
.LVL62:
.LM352:
	li	a1,0
.LM353:
	beq	a2,zero,.L31
.LM354:
	lw	a1,24(s0)
	add	a5,a1,a5
.LVL63:
.LM355:
	lbu	a1,0(a5)
.L31:
.LVL64:
.LM356:
.LBE364:
.LBE365:
.LM357:
.LM358:
	lw	a6,104(s0)
.LVL65:
.LM359:
.LM360:
.LM361:
	lw	a5,108(s0)
.LM362:
	li	a0,8
	sub	a0,a0,a6
.LM363:
	and	a5,a7,a5
.LM364:
	srl	a1,a1,a0
.LVL66:
.LM365:
	sll	a5,a5,a6
.LM366:
	add	a5,a5,a1
.LM367:
	li	a1,1536
	mul	a5,a5,a1
	addi	a5,a5,2047
	addi	a5,a5,1761
	add	a5,s0,a5
.LVL67:
.LM368:
.LBE366:
.LBE367:
.LM369:
.LM370:
	bgtu	a3,s1,.L32
.LBB368:
.LBB369:
.LM371:
	li	a2,1
.LM372:
	li	a6,255
.L36:
.LVL68:
.LM373:
.LM374:
.LBB370:
.LBB371:
.LBB372:
.LBB373:
.LM375:
	lw	a3,0(s0)
.LBE373:
.LBE372:
.LBE371:
.LBE370:
.LM376:
	slli	a2,a2,1
.LVL69:
.LM377:
	add	a1,a5,a2
.LVL70:
.LBB380:
.LBI370:
.LM378:
.LBB376:
.LM379:
.LM380:
.LM381:
.LBB375:
.LBI372:
.LM382:
.LBB374:
.LM383:
.LM384:
	bgeu	a3,s2,.L33
.LM385:
	lw	a7,16(s0)
.LM386:
	lw	a4,12(s0)
.LM387:
	slli	a3,a3,8
.LM388:
	addi	t1,a7,1
.LM389:
	lw	a0,4(s0)
.LM390:
.LM391:
	sw	a3,0(s0)
.LM392:
.LM393:
	sw	t1,16(s0)
.LM394:
	add	a4,a4,a7
	lbu	a4,0(a4)
.LM395:
	slli	a0,a0,8
.LM396:
	add	a4,a4,a0
.LM397:
	sw	a4,4(s0)
.L33:
.LVL71:
.LM398:
.LBE374:
.LBE375:
.LM399:
.LM400:
	lhu	a0,0(a1)
.LM401:
	srli	a4,a3,11
.LM402:
	mul	a4,a4,a0
.LVL72:
.LM403:
.LM404:
	lw	a0,4(s0)
.LM405:
	bleu	a4,a0,.L34
.LM406:
.LM407:
	sw	a4,0(s0)
.LM408:
	lhu	a4,0(a1)
.LVL73:
.LM409:
	sub	a3,s3,a4
.LM410:
	srai	a3,a3,5
.LM411:
	add	a4,a4,a3
.LM412:
.LM413:
.LVL74:
.LM414:
.LBE376:
.LBE380:
.LM415:
.L35:
.LBB381:
.LBB377:
.LM416:
	sh	a4,0(a1)
.LM417:
.LBE377:
.LBE381:
.LM418:
	bleu	a2,a6,.L36
.LVL75:
.L37:
.LM419:
.LBE369:
.LBE368:
.LM420:
.LBB385:
.LBI385:
.LM421:
.LBB386:
.LM422:
.LM423:
	lw	a4,32(s0)
.LM424:
	lw	a5,24(s0)
.LVL76:
.LM425:
	addi	a3,a4,1
.LM426:
	add	a5,a5,a4
.LM427:
	sw	a3,32(s0)
.LBE386:
.LBE385:
.LM428:
	sb	a2,0(a5)
.LBB388:
.LBB387:
.LM429:
.LM430:
	lw	a5,32(s0)
.LM431:
	lw	a4,36(s0)
	bgeu	a4,a5,.L44
.LM432:
.LM433:
	sw	a5,36(s0)
.L44:
.LVL77:
.LM434:
.LBE387:
.LBE388:
.LM435:
.LBB389:
.LBI389:
.LM436:
.LBB390:
.LM437:
.LM438:
	lbu	a5,96(s0)
.LM439:
	li	a4,3
	bgtu	a5,a4,.L45
.LM440:
.LM441:
	sb	zero,96(s0)
	j	.L27
.LVL78:
.L34:
.LM442:
.LBE390:
.LBE389:
.LBB392:
.LBB384:
.LBB382:
.LBB378:
.LM443:
.LM444:
	sub	a3,a3,a4
.LM445:
	sub	a0,a0,a4
.LM446:
	sw	a3,0(s0)
.LM447:
.LM448:
	sw	a0,4(s0)
.LM449:
	lhu	a4,0(a1)
.LVL79:
.LM450:
.LBE378:
.LBE382:
.LM451:
	addi	a2,a2,1
.LBB383:
.LBB379:
.LM452:
	srli	a3,a4,5
	sub	a4,a4,a3
.LM453:
.LM454:
.LVL80:
.LM455:
.LBE379:
.LBE383:
.LM456:
.LM457:
	j	.L35
.LVL81:
.L32:
.LM458:
.LBE384:
.LBE392:
.LM459:
.LM460:
.LM461:
	lw	a3,80(s0)
.LVL82:
.LBB393:
.LBI393:
.LM462:
.LBB394:
.LM463:
.LM464:
	sub	a4,a4,a3
.LVL83:
.LM465:
.LM466:
	bgtu	a7,a3,.L38
.LM467:
.LM468:
	lw	a3,44(s0)
.LVL84:
.LM469:
	add	a4,a4,a3
.LVL85:
.L38:
.LM470:
.LM471:
	beq	a2,zero,.L39
.LM472:
	lw	a3,24(s0)
	add	a4,a3,a4
.LVL86:
.LM473:
	lbu	a2,0(a4)
.L39:
.LVL87:
.LM474:
.LBE394:
.LBE393:
.LM475:
	slli	a7,a2,1
.LVL88:
.LM476:
.LM477:
	li	a0,256
.LM478:
	li	a2,1
.LM479:
	li	t3,255
.LVL89:
.L43:
.LM480:
.LM481:
.LM482:
	and	t1,a7,a0
.LVL90:
.LM483:
.LM484:
	add	a1,a0,a2
.LBB395:
.LBB396:
.LBB397:
.LBB398:
.LM485:
	lw	a3,0(s0)
.LBE398:
.LBE397:
.LBE396:
.LBE395:
.LM486:
	add	a1,a1,t1
.LM487:
	slli	a1,a1,1
.LM488:
	slli	a7,a7,1
.LVL91:
.LM489:
.LM490:
.LM491:
	add	a1,a5,a1
.LVL92:
.LBB407:
.LBI395:
.LM492:
.LBB401:
.LM493:
.LM494:
.LM495:
.LBB400:
.LBI397:
.LM496:
.LBB399:
.LM497:
.LM498:
	bgeu	a3,s2,.L40
.LM499:
	lw	t4,16(s0)
.LM500:
	lw	a4,12(s0)
.LM501:
	slli	a3,a3,8
.LM502:
	addi	t5,t4,1
.LM503:
	lw	a6,4(s0)
.LM504:
.LM505:
	sw	a3,0(s0)
.LM506:
.LM507:
	sw	t5,16(s0)
.LM508:
	add	a4,a4,t4
	lbu	a4,0(a4)
.LM509:
	slli	a6,a6,8
.LM510:
	add	a4,a4,a6
.LM511:
	sw	a4,4(s0)
.L40:
.LVL93:
.LM512:
.LBE399:
.LBE400:
.LM513:
.LM514:
	lhu	a6,0(a1)
.LM515:
	srli	a4,a3,11
.LBE401:
.LBE407:
.LM516:
	slli	a2,a2,1
.LVL94:
.LBB408:
.LBB402:
.LM517:
	mul	a4,a4,a6
.LVL95:
.LM518:
.LM519:
	lw	a6,4(s0)
.LM520:
	bleu	a4,a6,.L41
.LM521:
.LM522:
	sw	a4,0(s0)
.LM523:
	lhu	a4,0(a1)
.LVL96:
.LM524:
.LBE402:
.LBE408:
.LM525:
	not	t1,t1
.LVL97:
.LM526:
	and	a0,a0,t1
.LVL98:
.LBB409:
.LBB403:
.LM527:
	sub	a3,s3,a4
.LM528:
	srai	a3,a3,5
.LM529:
	add	a4,a4,a3
.LM530:
.LM531:
.LVL99:
.LM532:
.LBE403:
.LBE409:
.LM533:
.LM534:
.L42:
.LBB410:
.LBB404:
.LM535:
	sh	a4,0(a1)
.LVL100:
.LM536:
.LBE404:
.LBE410:
.LM537:
	bleu	a2,t3,.L43
.LM538:
	j	.L37
.LVL101:
.L41:
.LBB411:
.LBB405:
.LM539:
.LM540:
	sub	a3,a3,a4
.LM541:
	sub	a6,a6,a4
.LM542:
	sw	a3,0(s0)
.LM543:
.LM544:
	sw	a6,4(s0)
.LM545:
	lhu	a4,0(a1)
.LVL102:
.LM546:
.LBE405:
.LBE411:
.LM547:
	addi	a2,a2,1
.LM548:
	mv	a0,t1
.LVL103:
.LBB412:
.LBB406:
.LM549:
	srli	a3,a4,5
	sub	a4,a4,a3
.LM550:
.LM551:
.LVL104:
.LM552:
.LBE406:
.LBE412:
.LM553:
.LM554:
.LM555:
	j	.L42
.LVL105:
.L45:
.LBB413:
.LBB391:
.LM556:
.LM557:
	li	a4,9
	bgtu	a5,a4,.L47
.LM558:
.LM559:
	addi	a5,a5,-3
.L112:
.LM560:
	sb	a5,96(s0)
	j	.L27
.L47:
.LM561:
.LM562:
	addi	a5,a5,-6
	j	.L112
.LVL106:
.L29:
.LM563:
.LBE391:
.LBE413:
.LBE414:
.LBE416:
.LBB417:
.LBB347:
.LM564:
.LM565:
	sub	a5,a5,a0
.LM566:
	sub	a4,a4,a0
.LM567:
.LM568:
	srli	a0,a1,5
.LVL107:
.LM569:
	sw	a5,4(s0)
.LM570:
.LM571:
	sub	a1,a1,a0
	sh	a1,116(a6)
.LM572:
.LM573:
.LVL108:
.LM574:
.LBE347:
.LBE417:
.LM575:
.LBB418:
.LBI418:
.LM576:
.LBB419:
.LM577:
.LM578:
.LM579:
.LBB420:
.LBI420:
.LM580:
.LBB421:
.LM581:
.LM582:
	bgeu	a4,s2,.L48
.LM583:
.LM584:
	lw	a0,16(s0)
.LM585:
	lw	a1,12(s0)
.LM586:
	slli	a4,a4,8
.LM587:
	addi	a7,a0,1
.LM588:
	sw	a4,0(s0)
.LM589:
.LM590:
	sw	a7,16(s0)
.LM591:
	add	a1,a1,a0
	lbu	a1,0(a1)
.LM592:
	slli	a5,a5,8
.LM593:
	add	a5,a1,a5
.LM594:
	sw	a5,4(s0)
.L48:
.LVL109:
.LM595:
.LBE421:
.LBE420:
.LM596:
	slli	a0,a3,1
	add	a0,s0,a0
.LM597:
	lhu	a1,500(a0)
.LM598:
	srli	a7,a4,11
.LM599:
	mul	a7,a7,a1
.LVL110:
.LM600:
.LM601:
	bleu	a7,a5,.L49
.LM602:
.LM603:
	sub	a5,s3,a1
.LM604:
	srai	a5,a5,5
.LM605:
	add	a1,a1,a5
.LM606:
	sw	a7,0(s0)
.LM607:
.LM608:
	sh	a1,500(a0)
.LM609:
.LM610:
.LVL111:
.LM611:
.LBE419:
.LBE418:
.LM612:
.LBB423:
.LBI423:
.LM613:
.LBB424:
.LM614:
.LM615:
.LM616:
.LM617:
.LBB425:
.LBI425:
.LM618:
.LBB426:
.LM619:
.LBE426:
.LBE425:
.LM620:
	lw	a5,88(s0)
.LBB430:
.LBB427:
.LM621:
	sgtu	a3,a3,s1
	neg	a3,a3
.LBE427:
.LBE430:
.LM622:
	sw	a5,92(s0)
.LM623:
	lw	a5,84(s0)
.LBB431:
.LBB428:
.LM624:
	andi	a3,a3,3
	addi	a3,a3,7
.LBE428:
.LBE431:
.LM625:
	sw	a5,88(s0)
.LM626:
	lw	a5,80(s0)
.LBB432:
.LBB429:
.LM627:
	sb	a3,96(s0)
.LVL112:
.LM628:
.LBE429:
.LBE432:
.LM629:
.LM630:
.LM631:
.LM632:
	addi	a1,s0,1752
.LM633:
	sw	a5,84(s0)
.LM634:
	mv	a0,s0
	call	lzma_len
.LVL113:
.LM635:
.LBB433:
.LBI433:
.LM636:
.LBB434:
.LM637:
.LM638:
	lw	a5,100(s0)
	li	a4,5
	bleu	a5,a4,.L51
	mv	a5,a4
.L51:
.LM639:
	slli	a5,a5,7
	addi	a1,a5,724
.LVL114:
.LM640:
.LBE434:
.LBE433:
.LM641:
.LBB435:
.LBI435:
.LM642:
.LBB436:
.LM643:
.LM644:
	li	a4,1
.LM645:
	li	a6,63
.LVL115:
.L55:
.LM646:
.LM647:
.LBB437:
.LBB438:
.LBB439:
.LBB440:
.LM648:
	lw	a3,0(s0)
.LBE440:
.LBE439:
.LBE438:
.LBE437:
.LM649:
	slli	a4,a4,1
.LVL116:
.LM650:
	add	a0,a1,a4
	add	a0,s0,a0
.LVL117:
.LBB447:
.LBI437:
.LM651:
.LBB443:
.LM652:
.LM653:
.LM654:
.LBB442:
.LBI439:
.LM655:
.LBB441:
.LM656:
.LM657:
	bgeu	a3,s2,.L52
.LM658:
	lw	a7,16(s0)
.LM659:
	lw	a5,12(s0)
.LM660:
	slli	a3,a3,8
.LM661:
	addi	t1,a7,1
.LM662:
	lw	a2,4(s0)
.LM663:
.LM664:
	sw	a3,0(s0)
.LM665:
.LM666:
	sw	t1,16(s0)
.LM667:
	add	a5,a5,a7
	lbu	a5,0(a5)
.LM668:
	slli	a2,a2,8
.LM669:
	add	a5,a5,a2
.LM670:
	sw	a5,4(s0)
.L52:
.LVL118:
.LM671:
.LBE441:
.LBE442:
.LM672:
.LM673:
	lhu	a2,0(a0)
.LM674:
	srli	a5,a3,11
.LM675:
	mul	a5,a5,a2
.LVL119:
.LM676:
.LM677:
	lw	a2,4(s0)
.LM678:
	bleu	a5,a2,.L53
.LM679:
.LM680:
	sw	a5,0(s0)
.LM681:
	lhu	a5,0(a0)
.LVL120:
.LM682:
	sub	a3,s3,a5
.LM683:
	srai	a3,a3,5
.LM684:
	add	a5,a5,a3
.LM685:
.LM686:
.LVL121:
.LM687:
.LBE443:
.LBE447:
.LM688:
.L54:
.LBB448:
.LBB444:
.LM689:
	sh	a5,0(a0)
.LM690:
.LBE444:
.LBE448:
.LM691:
	bleu	a4,a6,.L55
.LM692:
.LVL122:
.LM693:
.LBE436:
.LBE435:
.LM694:
	addi	a4,a4,-64
.LVL123:
.LM695:
.LM696:
	li	a5,3
	bgtu	a4,a5,.L56
.LM697:
.LM698:
	sw	a4,80(s0)
.LVL124:
.L57:
.LM699:
.LBE424:
.LBE423:
.LM700:
.LM701:
	lw	a2,80(s0)
	addi	a1,s0,100
	addi	a0,s0,24
	call	dict_repeat
.LVL125:
.LM702:
	bne	a0,zero,.L27
.LVL126:
.L85:
.LM703:
	lw	ra,28(sp)
	.cfi_remember_state
	.cfi_restore 1
	lw	s0,24(sp)
	.cfi_restore 8
.LVL127:
.LM704:
	lw	s1,20(sp)
	.cfi_restore 9
	lw	s2,16(sp)
	.cfi_restore 18
	lw	s3,12(sp)
	.cfi_restore 19
	lw	s4,8(sp)
	.cfi_restore 20
	lw	s5,4(sp)
	.cfi_restore 21
	addi	sp,sp,32
	.cfi_def_cfa_offset 0
	jr	ra
.LVL128:
.L53:
	.cfi_restore_state
.LBB510:
.LBB507:
.LBB452:
.LBB451:
.LBB449:
.LBB445:
.LM705:
.LM706:
	sub	a3,a3,a5
.LM707:
	sub	a2,a2,a5
.LM708:
	sw	a3,0(s0)
.LM709:
.LM710:
	sw	a2,4(s0)
.LM711:
	lhu	a5,0(a0)
.LVL129:
.LM712:
.LBE445:
.LBE449:
.LM713:
	addi	a4,a4,1
.LBB450:
.LBB446:
.LM714:
	srli	a3,a5,5
	sub	a5,a5,a3
.LM715:
.LM716:
.LVL130:
.LM717:
.LBE446:
.LBE450:
.LM718:
.LM719:
	j	.L54
.LVL131:
.L56:
.LM720:
.LBE451:
.LBE452:
.LM721:
.LM722:
	andi	a5,a4,1
.LM723:
	li	a2,13
.LM724:
	srli	a3,a4,1
.LVL132:
.LM725:
.LM726:
	addi	a5,a5,2
.LM727:
.LM728:
	bgtu	a4,a2,.L58
.LM729:
	addi	a6,a3,-1
.LVL133:
.LM730:
.LM731:
	sll	a5,a5,a6
	sw	a5,80(s0)
.LM732:
.LM733:
	sub	a5,a5,a4
	addi	a5,a5,-1
.LBB453:
.LBB454:
.LM734:
	li	a0,1
.LBB455:
.LBB456:
.LM735:
	li	t1,4096
.LBE456:
.LBE455:
.LBE454:
.LBE453:
.LM736:
	addi	t3,s0,1492
.LM737:
	slli	a5,a5,1
.LVL134:
.LM738:
.LBB476:
.LBI453:
.LM739:
.LBB475:
.LM740:
.LM741:
.LM742:
	li	a7,0
.LBB469:
.LBB463:
.LBB457:
.LBB458:
.LM743:
	li	t4,16777216
.LBE458:
.LBE457:
.LBE463:
.LBE469:
.LM744:
	mv	t5,a0
.LBB470:
.LBB464:
.LM745:
	addi	t1,t1,-2048
.LVL135:
.L62:
.LM746:
.LBE464:
.LBE470:
.LM747:
.LM748:
.LBB471:
.LBB465:
.LBB461:
.LBB459:
.LM749:
	lw	a3,0(s0)
.LBE459:
.LBE461:
.LBE465:
.LBE471:
.LM750:
	slli	a0,a0,1
.LVL136:
.LM751:
	add	a1,a5,a0
	add	a1,t3,a1
.LVL137:
.LBB472:
.LBI455:
.LM752:
.LBB466:
.LM753:
.LM754:
.LM755:
.LBB462:
.LBI457:
.LM756:
.LBB460:
.LM757:
.LM758:
	bgeu	a3,t4,.L59
.LM759:
	lw	t6,16(s0)
.LM760:
	lw	a4,12(s0)
.LM761:
	slli	a3,a3,8
.LM762:
	addi	t0,t6,1
.LM763:
	lw	a2,4(s0)
.LM764:
.LM765:
	sw	a3,0(s0)
.LM766:
.LM767:
	sw	t0,16(s0)
.LM768:
	add	a4,a4,t6
	lbu	a4,0(a4)
.LM769:
	slli	a2,a2,8
.LM770:
	add	a4,a4,a2
.LM771:
	sw	a4,4(s0)
.L59:
.LVL138:
.LM772:
.LBE460:
.LBE462:
.LM773:
.LM774:
	lhu	a2,0(a1)
.LM775:
	srli	a4,a3,11
.LM776:
	mul	a4,a4,a2
.LVL139:
.LM777:
.LM778:
	lw	a2,4(s0)
.LM779:
	bleu	a4,a2,.L60
.LM780:
.LM781:
	sw	a4,0(s0)
.LM782:
	lhu	a4,0(a1)
.LVL140:
.LM783:
	sub	a3,t1,a4
.LM784:
	srai	a3,a3,5
.LM785:
	add	a4,a4,a3
	sh	a4,0(a1)
.LVL141:
.LM786:
.LM787:
.LM788:
.LBE466:
.LBE472:
.LM789:
.L61:
.LM790:
	addi	a7,a7,1
.LVL142:
.LM791:
	bgtu	a6,a7,.L62
.LM792:
	j	.L57
.LVL143:
.L60:
.LBB473:
.LBB467:
.LM793:
.LM794:
	sub	a3,a3,a4
.LM795:
	sub	a2,a2,a4
.LM796:
	sw	a3,0(s0)
.LM797:
.LM798:
	sw	a2,4(s0)
.LM799:
	lhu	a4,0(a1)
.LVL144:
.LM800:
.LBE467:
.LBE473:
.LM801:
	addi	a0,a0,1
.LBB474:
.LBB468:
.LM802:
	srli	a3,a4,5
	sub	a4,a4,a3
	sh	a4,0(a1)
.LM803:
.LM804:
.LVL145:
.LM805:
.LBE468:
.LBE474:
.LM806:
.LM807:
.LM808:
	lw	a4,80(s0)
.LM809:
	sll	a3,t5,a7
.LM810:
	add	a4,a4,a3
	sw	a4,80(s0)
	j	.L61
.LVL146:
.L58:
.LM811:
.LBE475:
.LBE476:
.LM812:
	sw	a5,80(s0)
.LM813:
.LM814:
	addi	a3,a3,-5
.LVL147:
.LBB477:
.LBI477:
.LM815:
.LBB478:
.LBB479:
.LBB480:
.LM816:
	li	a6,16777216
.LVL148:
.L64:
.LM817:
.LBE480:
.LBE479:
.LM818:
.LM819:
.LM820:
.LBB482:
.LBI479:
.LM821:
.LBB481:
.LM822:
.LM823:
	lw	a4,0(s0)
.LM824:
	bgeu	a4,a6,.L63
.LM825:
	lw	a0,16(s0)
.LM826:
	lw	a2,12(s0)
.LM827:
	slli	a4,a4,8
.LM828:
	addi	a7,a0,1
.LM829:
	lw	a1,4(s0)
.LM830:
.LM831:
	sw	a4,0(s0)
.LM832:
.LM833:
	sw	a7,16(s0)
.LM834:
	add	a2,a2,a0
	lbu	a2,0(a2)
.LM835:
	slli	a1,a1,8
.LM836:
	add	a2,a2,a1
.LM837:
	sw	a2,4(s0)
.L63:
.LVL149:
.LM838:
.LBE481:
.LBE482:
.LM839:
.LM840:
	lw	a1,4(s0)
.LM841:
	srli	a4,a4,1
	sw	a4,0(s0)
.LM842:
.LM843:
	sub	a1,a1,a4
.LM844:
.LM845:
	srai	a2,a1,31
.LVL150:
.LM846:
.LM847:
	and	a4,a4,a2
.LM848:
	slli	a5,a5,1
.LM849:
	addi	a2,a2,1
.LVL151:
.LM850:
	add	a4,a4,a1
.LM851:
	add	a5,a5,a2
.LM852:
	sw	a4,4(s0)
.LM853:
.LM854:
	sw	a5,80(s0)
.LM855:
	addi	a3,a3,-1
.LVL152:
.LM856:
	bne	a3,zero,.L64
.LVL153:
.LM857:
.LBE478:
.LBE477:
.LM858:
.LM859:
	slli	a5,a5,4
.LBB483:
.LBB484:
.LM860:
	li	a1,1
.LBB485:
.LBB486:
.LM861:
	li	a6,4096
.LBE486:
.LBE485:
.LBE484:
.LBE483:
.LM862:
	sw	a5,80(s0)
.LM863:
.LM864:
	addi	t1,s0,1720
.LVL154:
.LBB506:
.LBI483:
.LM865:
.LBB505:
.LM866:
.LM867:
.LBB499:
.LBB493:
.LBB487:
.LBB488:
.LM868:
	li	t3,16777216
.LBE488:
.LBE487:
.LBE493:
.LBE499:
.LM869:
	mv	t4,a1
.LBB500:
.LBB494:
.LM870:
	addi	a6,a6,-2048
.LBE494:
.LBE500:
.LM871:
	li	a7,4
.LVL155:
.L68:
.LM872:
.LM873:
.LBB501:
.LBB495:
.LBB491:
.LBB489:
.LM874:
	lw	a4,0(s0)
.LBE489:
.LBE491:
.LBE495:
.LBE501:
.LM875:
	slli	a1,a1,1
.LVL156:
.LM876:
	add	a0,t1,a1
.LVL157:
.LBB502:
.LBI485:
.LM877:
.LBB496:
.LM878:
.LM879:
.LM880:
.LBB492:
.LBI487:
.LM881:
.LBB490:
.LM882:
.LM883:
	bgeu	a4,t3,.L65
.LM884:
	lw	t5,16(s0)
.LM885:
	lw	a5,12(s0)
.LM886:
	slli	a4,a4,8
.LM887:
	addi	t6,t5,1
.LM888:
	lw	a2,4(s0)
.LM889:
.LM890:
	sw	a4,0(s0)
.LM891:
.LM892:
	sw	t6,16(s0)
.LM893:
	add	a5,a5,t5
	lbu	a5,0(a5)
.LM894:
	slli	a2,a2,8
.LM895:
	add	a5,a5,a2
.LM896:
	sw	a5,4(s0)
.L65:
.LVL158:
.LM897:
.LBE490:
.LBE492:
.LM898:
.LM899:
	lhu	a2,0(a0)
.LM900:
	srli	a5,a4,11
.LM901:
	mul	a5,a5,a2
.LVL159:
.LM902:
.LM903:
	lw	a2,4(s0)
.LM904:
	bleu	a5,a2,.L66
.LM905:
.LM906:
	sw	a5,0(s0)
.LM907:
	lhu	a5,0(a0)
.LVL160:
.LM908:
	sub	a4,a6,a5
.LM909:
	srai	a4,a4,5
.LM910:
	add	a5,a5,a4
	sh	a5,0(a0)
.LVL161:
.LM911:
.LM912:
.LM913:
.LBE496:
.LBE502:
.LM914:
.L67:
.LM915:
	addi	a3,a3,1
.LVL162:
.LM916:
	bne	a3,a7,.L68
.LM917:
	j	.L57
.LVL163:
.L66:
.LBB503:
.LBB497:
.LM918:
.LM919:
	sub	a4,a4,a5
.LM920:
	sub	a2,a2,a5
.LM921:
	sw	a4,0(s0)
.LM922:
.LM923:
	sw	a2,4(s0)
.LM924:
	lhu	a5,0(a0)
.LVL164:
.LM925:
.LBE497:
.LBE503:
.LM926:
	addi	a1,a1,1
.LBB504:
.LBB498:
.LM927:
	srli	a4,a5,5
	sub	a5,a5,a4
	sh	a5,0(a0)
.LM928:
.LM929:
.LVL165:
.LM930:
.LBE498:
.LBE504:
.LM931:
.LM932:
.LM933:
	lw	a5,80(s0)
.LM934:
	sll	a4,t4,a3
.LM935:
	add	a5,a5,a4
	sw	a5,80(s0)
	j	.L67
.LVL166:
.L49:
.LM936:
.LBE505:
.LBE506:
.LBE507:
.LBE510:
.LBB511:
.LBB422:
.LM937:
.LM938:
	sub	a5,a5,a7
.LM939:
	sub	a4,a4,a7
.LM940:
.LM941:
	srli	a7,a1,5
.LVL167:
.LM942:
	sw	a5,4(s0)
.LM943:
.LM944:
	sub	a1,a1,a7
	sh	a1,500(a0)
.LM945:
.LM946:
.LVL168:
.LM947:
.LBE422:
.LBE511:
.LM948:
.LBB512:
.LBI278:
.LM949:
.LBB333:
.LM950:
.LM951:
.LBB292:
.LBI280:
.LM952:
.LBB285:
.LM953:
.LM954:
.LM955:
.LBB282:
.LBI282:
.LM956:
.LBB283:
.LM957:
.LM958:
	bgeu	a4,s2,.L70
.LM959:
.LM960:
	lw	a7,16(s0)
.LM961:
	lw	a1,12(s0)
.LM962:
	slli	a4,a4,8
.LM963:
	addi	t1,a7,1
.LM964:
	sw	a4,0(s0)
.LM965:
.LM966:
	sw	t1,16(s0)
.LM967:
	add	a1,a1,a7
	lbu	a1,0(a1)
.LM968:
	slli	a5,a5,8
.LM969:
	add	a5,a1,a5
.LM970:
	sw	a5,4(s0)
.L70:
.LVL169:
.LM971:
.LBE283:
.LBE282:
.LM972:
.LM973:
	lhu	a7,524(a0)
.LM974:
	srli	a1,a4,11
.LM975:
	mul	a1,a1,a7
.LVL170:
.LM976:
.LM977:
	bleu	a1,a5,.L71
.LM978:
.LM979:
.LM980:
	sub	a4,s3,a7
.LM981:
	srai	a4,a4,5
.LM982:
	add	a7,a7,a4
	sh	a7,524(a0)
.LM983:
.LM984:
.LVL171:
.LM985:
.LBE285:
.LBE292:
.LM986:
.LBB293:
.LBI293:
.LM987:
.LBB294:
.LM988:
.LM989:
.LM990:
.LBB295:
.LBI295:
.LM991:
.LBB296:
.LM992:
.LM993:
	bltu	a1,s2,.L72
.L73:
.LVL172:
.LM994:
.LBE296:
.LBE295:
.LM995:
.LM996:
	lhu	a4,596(a6)
.LM997:
	srli	a0,a1,11
.LM998:
	mul	a0,a0,a4
.LVL173:
.LM999:
.LM1000:
	bleu	a0,a5,.L76
.LM1001:
.LM1002:
	li	a5,4096
	addi	a5,a5,-2048
	sub	a5,a5,a4
.LM1003:
	srai	a5,a5,5
.LM1004:
	add	a4,a4,a5
.LBE294:
.LBE293:
.LBB302:
.LBB303:
.LM1005:
	li	a5,6
.LM1006:
	sgtu	a5,a3,a5
.LBE303:
.LBE302:
.LBB306:
.LBB299:
.LM1007:
	sw	a0,0(s0)
.LM1008:
.LBE299:
.LBE306:
.LBB307:
.LBB304:
.LM1009:
	slli	a5,a5,1
.LBE304:
.LBE307:
.LBB308:
.LBB300:
.LM1010:
	sh	a4,596(a6)
.LM1011:
.LM1012:
.LVL174:
.LM1013:
.LBE300:
.LBE308:
.LM1014:
.LBB309:
.LBI302:
.LM1015:
.LBB305:
.LM1016:
.LM1017:
	addi	a5,a5,9
.LM1018:
	sb	a5,96(s0)
.LVL175:
.LM1019:
.LBE305:
.LBE309:
.LM1020:
.LM1021:
	li	a5,1
	sw	a5,100(s0)
.LM1022:
	j	.L57
.LVL176:
.L71:
.LBB310:
.LBB286:
.LM1023:
.LM1024:
	sub	a5,a5,a1
.LM1025:
	sub	a4,a4,a1
.LM1026:
.LM1027:
	srli	a1,a7,5
.LVL177:
.LM1028:
	sw	a5,4(s0)
.LM1029:
.LM1030:
	sub	a7,a7,a1
	sh	a7,524(a0)
.LM1031:
.LM1032:
.LVL178:
.LM1033:
.LBE286:
.LBE310:
.LM1034:
.LBB311:
.LBI311:
.LM1035:
.LBB312:
.LM1036:
.LM1037:
.LM1038:
.LBB313:
.LBI313:
.LM1039:
.LBB314:
.LM1040:
.LM1041:
	bltu	a4,s2,.L74
.L75:
.LVL179:
.LM1042:
.LBE314:
.LBE313:
.LM1043:
.LM1044:
	lhu	a1,548(a0)
.LM1045:
	srli	a7,a4,11
.LBE312:
.LBE311:
.LBE333:
.LBE512:
.LBB513:
.LBB508:
.LM1046:
	lw	a6,84(s0)
.LBE508:
.LBE513:
.LBB514:
.LBB334:
.LBB319:
.LBB317:
.LM1047:
	mul	a7,a7,a1
.LVL180:
.LM1048:
.LM1049:
	bleu	a7,a5,.L79
.LM1050:
.LM1051:
	li	a5,4096
	addi	a5,a5,-2048
	sub	a5,a5,a1
.LM1052:
	srai	a5,a5,5
.LM1053:
	sw	a7,0(s0)
.LM1054:
.LM1055:
	add	a1,a1,a5
	sh	a1,548(a0)
.LM1056:
.LM1057:
.LVL181:
.LM1058:
.LBE317:
.LBE319:
.LM1059:
.L80:
.LM1060:
.LM1061:
	lw	a5,80(s0)
.LM1062:
	sw	a6,80(s0)
.LM1063:
	sw	a5,84(s0)
.LM1064:
	j	.L78
.LVL182:
.L72:
.LBB320:
.LBB301:
.LBB298:
.LBB297:
.LM1065:
.LM1066:
	lw	a0,16(s0)
.LM1067:
	lw	a4,12(s0)
.LM1068:
	slli	a1,a1,8
.LM1069:
	addi	a7,a0,1
.LM1070:
	sw	a1,0(s0)
.LM1071:
.LM1072:
	sw	a7,16(s0)
.LM1073:
	add	a4,a4,a0
	lbu	a4,0(a4)
.LM1074:
	slli	a5,a5,8
.LM1075:
	add	a5,a4,a5
.LM1076:
	sw	a5,4(s0)
	j	.L73
.LVL183:
.L76:
.LM1077:
.LBE297:
.LBE298:
.LM1078:
.LM1079:
	sub	a5,a5,a0
	sw	a5,4(s0)
.LM1080:
	sub	a1,a1,a0
.LM1081:
	srli	a5,a4,5
.LM1082:
	sw	a1,0(s0)
.LM1083:
.LM1084:
.LM1085:
	sub	a4,a4,a5
	sh	a4,596(a6)
.LM1086:
.LM1087:
.LVL184:
.L78:
.LM1088:
.LBE301:
.LBE320:
.LM1089:
.LBB321:
.LBI287:
.LM1090:
.LBB289:
.LM1091:
.LM1092:
	sgtu	a3,a3,s1
	neg	a3,a3
	andi	a3,a3,3
	addi	a3,a3,8
.LBE289:
.LBE321:
.LM1093:
	addi	a1,s0,2047
.LBB322:
.LBB290:
.LM1094:
	sb	a3,96(s0)
.LVL185:
.LM1095:
.LBE290:
.LBE322:
.LM1096:
	addi	a1,a1,733
	mv	a0,s0
	call	lzma_len
.LVL186:
.LM1097:
	j	.L57
.LVL187:
.L74:
.LBB323:
.LBB318:
.LBB316:
.LBB315:
.LM1098:
.LM1099:
	lw	a6,16(s0)
.LM1100:
	lw	a1,12(s0)
.LM1101:
	slli	a4,a4,8
.LM1102:
	addi	a7,a6,1
.LM1103:
	sw	a4,0(s0)
.LM1104:
.LM1105:
	sw	a7,16(s0)
.LM1106:
	add	a1,a1,a6
	lbu	a1,0(a1)
.LM1107:
	slli	a5,a5,8
.LM1108:
	add	a5,a1,a5
.LM1109:
	sw	a5,4(s0)
	j	.L75
.LVL188:
.L79:
.LM1110:
.LBE315:
.LBE316:
.LM1111:
.LM1112:
	sub	a5,a5,a7
.LM1113:
	sub	a4,a4,a7
.LM1114:
.LM1115:
	srli	a7,a1,5
.LVL189:
.LM1116:
	sub	a1,a1,a7
.LM1117:
	sw	a5,4(s0)
.LM1118:
.LM1119:
	sh	a1,548(a0)
.LM1120:
.LM1121:
.LVL190:
.LM1122:
.LBE318:
.LBE323:
.LM1123:
.LBB324:
.LBI324:
.LM1124:
.LBB325:
.LM1125:
.LM1126:
.LM1127:
.LBB326:
.LBI326:
.LM1128:
.LBB327:
.LM1129:
.LM1130:
	li	a1,16777216
	bgeu	a4,a1,.L81
.LM1131:
.LM1132:
	lw	a7,16(s0)
.LM1133:
	lw	a1,12(s0)
.LM1134:
	slli	a4,a4,8
.LM1135:
	addi	t1,a7,1
.LM1136:
	sw	a4,0(s0)
.LM1137:
.LM1138:
	sw	t1,16(s0)
.LM1139:
	add	a1,a1,a7
	lbu	a1,0(a1)
.LM1140:
	slli	a5,a5,8
.LM1141:
	add	a5,a1,a5
.LM1142:
	sw	a5,4(s0)
.L81:
.LVL191:
.LM1143:
.LBE327:
.LBE326:
.LM1144:
.LM1145:
	lhu	a1,572(a0)
.LM1146:
	srli	a7,a4,11
.LBE325:
.LBE324:
.LBE334:
.LBE514:
.LBB515:
.LBB509:
.LM1147:
	lw	t1,88(s0)
.LBE509:
.LBE515:
.LBB516:
.LBB335:
.LBB330:
.LBB328:
.LM1148:
	mul	a7,a7,a1
.LVL192:
.LM1149:
.LM1150:
	bleu	a7,a5,.L82
.LM1151:
.LM1152:
	li	a5,4096
	addi	a5,a5,-2048
	sub	a5,a5,a1
.LM1153:
	srai	a5,a5,5
.LM1154:
	sw	a7,0(s0)
.LM1155:
.LM1156:
	add	a1,a1,a5
	sh	a1,572(a0)
.LM1157:
.LM1158:
.LVL193:
.LM1159:
.LBE328:
.LBE330:
.LM1160:
.L83:
.LM1161:
.LM1162:
	sw	a6,88(s0)
	mv	a6,t1
	j	.L80
.LVL194:
.L82:
.LBB331:
.LBB329:
.LM1163:
.LM1164:
	sub	a5,a5,a7
	sw	a5,4(s0)
.LM1165:
	sub	a4,a4,a7
.LM1166:
	srli	a5,a1,5
	sub	a1,a1,a5
.LM1167:
	sw	a4,0(s0)
.LM1168:
.LM1169:
.LM1170:
	sh	a1,572(a0)
.LM1171:
.LM1172:
.LVL195:
.LM1173:
.LBE329:
.LBE331:
.LM1174:
.LM1175:
	lw	a5,92(s0)
.LVL196:
.LM1176:
.LM1177:
	sw	t1,92(s0)
.LM1178:
	mv	t1,a5
	j	.L83
.LVL197:
.L88:
.LM1179:
.LBE335:
.LBE516:
.LBB517:
.LBB356:
.LM1180:
.LM1181:
	lw	a3,16(s0)
.LM1182:
	lw	a5,12(s0)
.LM1183:
	slli	a4,a4,8
.LM1184:
	addi	a2,a3,1
.LM1185:
	sw	a4,0(s0)
.LM1186:
.LM1187:
	sw	a2,16(s0)
.LM1188:
	lw	a4,4(s0)
.LM1189:
	add	a5,a5,a3
	lbu	a5,0(a5)
.LM1190:
	slli	a4,a4,8
.LM1191:
	add	a5,a5,a4
.LM1192:
	sw	a5,4(s0)
	j	.L89
.LBE356:
.LBE517:
	.cfi_endproc
.LFE33:
	.size	lzma_main, .-lzma_main
	.section	.text.xz_dec_lzma2_run,"ax",@progbits
	.align	1
	.globl	xz_dec_lzma2_run
	.type	xz_dec_lzma2_run, @function
xz_dec_lzma2_run:
.LVL198:
.LFB37:
.LM1193:
	.cfi_startproc
.LM1194:
.LM1195:
.LM1196:
	addi	sp,sp,-64
	.cfi_def_cfa_offset 64
	sw	s4,40(sp)
	.cfi_offset 20, -24
.LBB544:
.LBB545:
.LM1197:
	li	s4,28672
.LBE545:
.LBE544:
.LM1198:
	sw	s3,44(sp)
	sw	s5,36(sp)
	.cfi_offset 19, -20
	.cfi_offset 21, -28
.LBB550:
.LBB546:
.LM1199:
	li	s3,28672
.LM1200:
	addi	s4,s4,-284
.LBE546:
.LBE550:
.LM1201:
	lui	s5,%hi(.L117)
.LM1202:
	sw	s0,56(sp)
	sw	s1,52(sp)
	sw	s6,32(sp)
	sw	ra,60(sp)
	sw	s2,48(sp)
	sw	s7,28(sp)
	.cfi_offset 8, -8
	.cfi_offset 9, -12
	.cfi_offset 22, -32
	.cfi_offset 1, -4
	.cfi_offset 18, -16
	.cfi_offset 23, -36
.LM1203:
	mv	s0,a0
	mv	s1,a1
.LM1204:
	li	s6,7
.LBB551:
.LBB547:
.LM1205:
	add	s3,a0,s3
.LM1206:
	add	s4,a0,s4
.LBE547:
.LBE551:
.LM1207:
	addi	s5,s5,%lo(.L117)
.LVL199:
.L114:
.LM1208:
	lw	a5,4(s1)
.LM1209:
	lw	a3,8(s1)
.LM1210:
	lbu	a4,64(s0)
.L115:
.LM1211:
	bltu	a5,a3,.L173
.LM1212:
	beq	a4,s6,.L118
	j	.L163
.L173:
.LM1213:
	li	a2,8
	bgtu	a4,a2,.L115
	slli	a4,a4,2
	add	a4,a4,s5
	lw	a4,0(a4)
	jr	a4
	.section	.rodata.xz_dec_lzma2_run,"a",@progbits
	.align	2
	.align	2
.L117:
	.word	.L125
	.word	.L124
	.word	.L123
	.word	.L122
	.word	.L121
	.word	.L120
	.word	.L119
	.word	.L118
	.word	.L116
	.section	.text.xz_dec_lzma2_run
.L125:
.LM1214:
.LM1215:
	lw	a4,0(s1)
.LM1216:
	addi	a3,a5,1
	sw	a3,4(s1)
.LM1217:
	add	a5,a4,a5
.LM1218:
	lbu	a5,0(a5)
.LVL200:
.LM1219:
.LM1220:
	beq	a5,zero,.L174
.LM1221:
.LM1222:
	sltiu	a4,a5,224
.LM1223:
	beq	a4,zero,.L175
	addi	a4,a5,-1
	bne	a4,zero,.L127
.L175:
.LM1224:
.LM1225:
.LM1226:
	li	a4,256
	sh	a4,76(s0)
.LM1227:
.LVL201:
.LBB552:
.LBI552:
.LM1228:
.LBB553:
.LM1229:
.LM1230:
	lbu	a4,60(s0)
	bne	a4,zero,.L129
.LM1231:
.LM1232:
	lw	a3,16(s1)
	lw	a4,12(s1)
	add	a4,a4,a3
.LM1233:
	sw	a4,24(s0)
.LM1234:
.LM1235:
	lw	a4,20(s1)
	lw	a3,16(s1)
	sub	a4,a4,a3
.LM1236:
	sw	a4,44(s0)
.L129:
.LM1237:
.LM1238:
	sw	zero,28(s0)
.LM1239:
.LM1240:
	sw	zero,32(s0)
.LM1241:
.LM1242:
	sw	zero,40(s0)
.LM1243:
.LM1244:
	sw	zero,36(s0)
.LVL202:
.L130:
.LM1245:
.LBE553:
.LBE552:
.LM1246:
.LM1247:
	li	a4,127
	bleu	a5,a4,.L131
.LM1248:
.LM1249:
	andi	a4,a5,31
	slli	a4,a4,16
.LM1250:
	sw	a4,68(s0)
.LM1251:
.LM1252:
	li	a4,1
	sb	a4,64(s0)
.LM1253:
.LM1254:
	li	a4,191
	bleu	a5,a4,.L132
.LM1255:
.LM1256:
	li	a5,5
.LVL203:
.LM1257:
	sb	zero,77(s0)
.LM1258:
.LM1259:
	sb	a5,65(s0)
	j	.L114
.LVL204:
.L127:
.LM1260:
.LM1261:
	lbu	a4,76(s0)
	beq	a4,zero,.L130
.LVL205:
.L134:
.LM1262:
	li	a0,7
.L126:
.LM1263:
	lw	ra,60(sp)
	.cfi_remember_state
	.cfi_restore 1
	lw	s0,56(sp)
	.cfi_restore 8
.LVL206:
.LM1264:
	lw	s1,52(sp)
	.cfi_restore 9
.LVL207:
.LM1265:
	lw	s2,48(sp)
	.cfi_restore 18
	lw	s3,44(sp)
	.cfi_restore 19
	lw	s4,40(sp)
	.cfi_restore 20
.LVL208:
.LM1266:
	lw	s5,36(sp)
	.cfi_restore 21
	lw	s6,32(sp)
	.cfi_restore 22
	lw	s7,28(sp)
	.cfi_restore 23
	addi	sp,sp,64
	.cfi_def_cfa_offset 0
	jr	ra
.LVL209:
.L132:
	.cfi_restore_state
.LM1267:
.LM1268:
	lbu	a4,77(s0)
	bne	a4,zero,.L134
.LM1269:
.LM1270:
	li	a4,6
	sb	a4,65(s0)
.LM1271:
.LM1272:
	li	a4,159
	bleu	a5,a4,.L114
.LM1273:
.LVL210:
.LBB554:
.LBI554:
.LM1274:
.LBB555:
.LM1275:
.LM1276:
.LM1277:
	li	a5,28672
.LVL211:
.LM1278:
	addi	a5,a5,-288
.LM1279:
	sb	zero,96(s0)
.LM1280:
.LM1281:
	sw	zero,80(s0)
.LM1282:
.LM1283:
	sw	zero,84(s0)
.LM1284:
.LM1285:
	sw	zero,88(s0)
.LM1286:
.LM1287:
	sw	zero,92(s0)
.LM1288:
.LVL212:
.LM1289:
.LM1290:
	addi	a4,s0,116
.LVL213:
.LM1291:
	add	a5,s0,a5
.LM1292:
	li	a3,1024
.LVL214:
.L136:
.LM1293:
.LM1294:
	sh	a3,0(a4)
.LM1295:
.LM1296:
	addi	a4,a4,2
	bne	a5,a4,.L136
.LM1297:
.LVL215:
.LBB556:
.LBI556:
.LM1298:
.LBB557:
.LM1299:
.LM1300:
	li	a5,-1
	sw	a5,0(s0)
.LM1301:
.LM1302:
	li	a5,5
.LM1303:
	sw	zero,4(s0)
.LM1304:
.LM1305:
	sw	a5,8(s0)
.LVL216:
.LM1306:
.LBE557:
.LBE556:
.LM1307:
	j	.L114
.LVL217:
.L131:
.LM1308:
.LBE555:
.LBE554:
.LM1309:
.LM1310:
	li	a4,2
	bgtu	a5,a4,.L134
.LM1311:
.LM1312:
.LM1313:
	li	a5,4096
.LVL218:
.LM1314:
	addi	a5,a5,-2045
	sh	a5,64(s0)
	j	.L114
.LVL219:
.L124:
.LM1315:
.LM1316:
	lw	a4,0(s1)
.LM1317:
	addi	a3,a5,1
	sw	a3,4(s1)
.LM1318:
	add	a5,a4,a5
.LM1319:
	lbu	a4,0(a5)
.LM1320:
	lw	a5,68(s0)
.LM1321:
	slli	a4,a4,8
.LM1322:
	add	a5,a5,a4
	sw	a5,68(s0)
.LM1323:
.LM1324:
	li	a5,2
.L197:
.LM1325:
	sb	a5,64(s0)
.LM1326:
	j	.L114
.L123:
.LM1327:
.LM1328:
	lw	a4,0(s1)
.LM1329:
	addi	a3,a5,1
	sw	a3,4(s1)
.LM1330:
	add	a5,a4,a5
.LM1331:
	lw	a4,68(s0)
.LM1332:
	lbu	a5,0(a5)
.LM1333:
	addi	a4,a4,1
	add	a5,a5,a4
	sw	a5,68(s0)
.LM1334:
.LM1335:
	li	a5,3
	j	.L197
.L122:
.LM1336:
.LM1337:
	lw	a4,0(s1)
.LM1338:
	addi	a3,a5,1
	sw	a3,4(s1)
.LM1339:
	add	a5,a4,a5
.LM1340:
	lbu	a5,0(a5)
	slli	a5,a5,8
.LM1341:
	sw	a5,72(s0)
.LM1342:
.LM1343:
	li	a5,4
	j	.L197
.L121:
.LM1344:
.LM1345:
	lw	a4,0(s1)
.LM1346:
	addi	a3,a5,1
	sw	a3,4(s1)
.LM1347:
	add	a5,a4,a5
.LM1348:
	lw	a4,72(s0)
.LM1349:
	lbu	a5,0(a5)
.LM1350:
	addi	a4,a4,1
	add	a5,a5,a4
	sw	a5,72(s0)
.LM1351:
.LM1352:
	lbu	a5,65(s0)
	j	.L197
.L120:
.LM1353:
.LM1354:
	lw	a4,0(s1)
.LM1355:
	addi	a3,a5,1
	sw	a3,4(s1)
.LM1356:
	add	a5,a4,a5
	lbu	a5,0(a5)
.LVL220:
.LBB558:
.LBI558:
.LM1357:
.LBB559:
.LM1358:
.LM1359:
	li	a4,224
	bgtu	a5,a4,.L134
	li	a3,0
.LM1360:
	li	a4,44
.L137:
.LM1361:
	bgtu	a5,a4,.L138
.LM1362:
.LM1363:
	li	a4,1
	sll	a4,a4,a3
.LM1364:
	addi	a4,a4,-1
.LM1365:
	sw	a4,112(s0)
.LM1366:
.LM1367:
.LM1368:
	li	a3,8
.LM1369:
	li	a4,0
.L139:
.LM1370:
	bgtu	a5,a3,.L140
.LM1371:
	sw	a5,104(s0)
	sw	a4,108(s0)
.LM1372:
.LM1373:
.LM1374:
	add	a5,a5,a4
.LVL221:
.LM1375:
	li	a3,4
	bgtu	a5,a3,.L134
.LM1376:
.LM1377:
	li	a5,1
	sll	a5,a5,a4
.LM1378:
	addi	a5,a5,-1
.LM1379:
	sw	a5,108(s0)
.LM1380:
.LVL222:
.LBB560:
.LBI560:
.LM1381:
.LBB561:
.LM1382:
.LM1383:
.LM1384:
	li	a5,28672
	addi	a5,a5,-288
.LM1385:
	sb	zero,96(s0)
.LM1386:
.LM1387:
	sw	zero,80(s0)
.LM1388:
.LM1389:
	sw	zero,84(s0)
.LM1390:
.LM1391:
	sw	zero,88(s0)
.LM1392:
.LM1393:
	sw	zero,92(s0)
.LM1394:
.LVL223:
.LM1395:
.LM1396:
	addi	a4,s0,116
.LVL224:
.LM1397:
	add	a5,s0,a5
.LM1398:
	li	a3,1024
.LVL225:
.L141:
.LM1399:
.LM1400:
	sh	a3,0(a4)
.LM1401:
.LM1402:
	addi	a4,a4,2
	bne	a5,a4,.L141
.LM1403:
.LVL226:
.LBB562:
.LBI562:
.LM1404:
.LBB563:
.LM1405:
.LM1406:
	li	a5,-1
	sw	a5,0(s0)
.LM1407:
.LM1408:
	li	a5,5
	sw	a5,8(s0)
.LBE563:
.LBE562:
.LBE561:
.LBE560:
.LBE559:
.LBE558:
.LM1409:
	li	a5,6
.LBB570:
.LBB568:
.LBB567:
.LBB566:
.LBB565:
.LBB564:
.LM1410:
	sw	zero,4(s0)
.LM1411:
.LVL227:
.LM1412:
.LBE564:
.LBE565:
.LBE566:
.LBE567:
.LM1413:
.LM1414:
.LBE568:
.LBE570:
.LM1415:
.LM1416:
	sb	a5,64(s0)
.L119:
.LM1417:
.LM1418:
.LM1419:
	lw	a4,72(s0)
	li	a5,4
	bleu	a4,a5,.L134
.L142:
.LBB571:
.LBB572:
.LM1420:
	lw	a5,8(s0)
	bne	a5,zero,.L144
.LBE572:
.LBE571:
.LM1421:
.LM1422:
	lw	a5,72(s0)
.LM1423:
	sb	s6,64(s0)
.LM1424:
	addi	a5,a5,-5
	sw	a5,72(s0)
.LM1425:
.L118:
.LM1426:
.LM1427:
.LM1428:
	lw	a5,20(s1)
	lw	a3,16(s1)
.LM1429:
	lw	a4,68(s0)
	sub	a5,a5,a3
	bleu	a5,a4,.L145
	mv	a5,a4
.L145:
.LVL228:
.LBB575:
.LBI575:
.LM1430:
.LBB576:
.LM1431:
.LM1432:
	lw	a4,44(s0)
.LM1433:
	lw	a3,32(s0)
.LM1434:
	sub	a2,a4,a3
.LM1435:
	bgeu	a5,a2,.L146
.LM1436:
.LM1437:
	add	a4,a5,a3
.L146:
	sw	a4,40(s0)
.LVL229:
.LM1438:
.LBE576:
.LBE575:
.LM1439:
.LBB577:
.LBI544:
.LM1440:
.LBB548:
.LM1441:
.LM1442:
.LM1443:
.LM1444:
.LM1445:
	lw	a0,-288(s3)
.LM1446:
	lw	a5,72(s0)
.LM1447:
	bne	a0,zero,.L147
.LM1448:
	bne	a5,zero,.L148
.L147:
.LM1449:
	li	s2,42
.LM1450:
	sub	a5,a5,a0
.LM1451:
	sub	s2,s2,a0
.LM1452:
	lw	a4,4(s1)
.LM1453:
.LVL230:
.LM1454:
.LM1455:
.LM1456:
	bleu	s2,a5,.L149
	mv	s2,a5
.L149:
.LM1457:
	lw	a5,8(s1)
	sub	a5,a5,a4
.LM1458:
	bleu	s2,a5,.L150
	mv	s2,a5
.L150:
.LVL231:
.LM1459:
.LM1460:
	lw	a1,0(s1)
.LM1461:
	mv	a2,s2
	add	a0,s4,a0
	add	a1,a1,a4
	call	memcpy
.LVL232:
.LM1462:
.LM1463:
	lw	a0,-288(s3)
.LM1464:
	lw	a5,72(s0)
.LM1465:
	add	a0,s2,a0
.LM1466:
	bne	a0,a5,.L151
.LM1467:
	li	a2,63
	sub	a2,a2,a0
	li	a1,0
	add	a0,s4,a0
	call	memset
.LVL233:
.LM1468:
.LM1469:
	lw	a5,-288(s3)
	add	a5,s2,a5
.L152:
.LM1470:
	sw	a5,20(s0)
.LM1471:
.LM1472:
	sw	s4,12(s0)
.LM1473:
.LM1474:
	sw	zero,16(s0)
.LM1475:
.LM1476:
	mv	a0,s0
	call	lzma_main
.LVL234:
.LM1477:
	beq	a0,zero,.L134
.LM1478:
	lw	a2,-288(s3)
.LM1479:
	lw	a1,16(s0)
.LM1480:
	add	s2,s2,a2
.LVL235:
.LM1481:
	bgtu	a1,s2,.L134
.LM1482:
.LM1483:
	lw	a5,72(s0)
	sub	a5,a5,a1
	sw	a5,72(s0)
.LM1484:
.LM1485:
	bgeu	a1,a2,.L155
.LM1486:
.LM1487:
	sub	a2,a2,a1
	sw	a2,-288(s3)
.LM1488:
	add	a1,s4,a1
	mv	a0,s4
	call	memmove
.LVL236:
.LM1489:
.L154:
.LM1490:
.LBE548:
.LBE577:
.LM1491:
.LBB578:
.LBI578:
.LM1492:
.LBB579:
.LM1493:
.LM1494:
	lw	s7,32(s0)
.LM1495:
	lw	s2,28(s0)
.LM1496:
	lbu	a5,60(s0)
.LM1497:
	sub	a2,s7,s2
.LVL237:
.LM1498:
.LM1499:
	beq	a5,zero,.L160
.LM1500:
.LM1501:
	lw	a5,44(s0)
	bne	s7,a5,.L161
.LM1502:
.LM1503:
	sw	zero,32(s0)
.L161:
.LM1504:
.LM1505:
	lw	a1,24(s0)
.LM1506:
	lw	a0,12(s1)
	lw	a5,16(s1)
.LM1507:
	add	a1,a1,s2
	sw	a2,12(sp)
	add	a0,a0,a5
	call	memcpy
.LVL238:
.LM1508:
	lw	a2,12(sp)
.LVL239:
.L160:
.LM1509:
.LM1510:
	lw	a5,32(s0)
	sw	a5,28(s0)
.LM1511:
.LM1512:
	lw	a5,16(s1)
	add	a5,a5,a2
	sw	a5,16(s1)
.LM1513:
.LVL240:
.LM1514:
.LBE579:
.LBE578:
.LM1515:
	lw	a5,68(s0)
	add	s2,s2,a5
	sub	s2,s2,s7
	sw	s2,68(s0)
.LM1516:
.LM1517:
	bne	s2,zero,.L162
.LM1518:
.LM1519:
	lw	a5,72(s0)
	bne	a5,zero,.L134
.LM1520:
	lw	a5,100(s0)
	bne	a5,zero,.L134
.LVL241:
.LBB580:
.LBI580:
.LM1521:
.LBB581:
.LM1522:
.LM1523:
.LBE581:
.LBE580:
.LM1524:
	lw	a5,4(s0)
	bne	a5,zero,.L134
.LM1525:
.LVL242:
.LBB582:
.LBI582:
.LM1526:
.LBB583:
.LM1527:
.LM1528:
	li	a5,-1
	sw	a5,0(s0)
.LM1529:
.LM1530:
.LM1531:
	li	a5,5
	sw	a5,8(s0)
.LVL243:
.LM1532:
.LBE583:
.LBE582:
.LM1533:
.L171:
.LM1534:
.LM1535:
.LM1536:
	sb	zero,64(s0)
.LM1537:
	j	.L114
.LVL244:
.L138:
.LBB584:
.LBB569:
.LM1538:
.LM1539:
	addi	a5,a5,-45
.LVL245:
.LM1540:
	andi	a5,a5,0xff
.LVL246:
.LM1541:
	addi	a3,a3,1
	j	.L137
.L140:
.LM1542:
.LM1543:
	addi	a5,a5,-9
.LVL247:
.LM1544:
	andi	a5,a5,0xff
.LVL248:
.LM1545:
	addi	a4,a4,1
	j	.L139
.LVL249:
.L144:
.LM1546:
.LBE569:
.LBE584:
.LBB585:
.LBB573:
.LM1547:
.LM1548:
	lw	a3,4(s1)
.LM1549:
	lw	a5,8(s1)
	bne	a3,a5,.L143
.L163:
.LM1550:
.LBE573:
.LBE585:
.LM1551:
	li	a0,0
	j	.L126
.L143:
.LBB586:
.LBB574:
.LM1552:
.LM1553:
	lw	a5,0(s1)
.LM1554:
	addi	a2,a3,1
.LM1555:
	lw	a4,4(s0)
.LM1556:
	add	a5,a5,a3
.LM1557:
	sw	a2,4(s1)
.LM1558:
	lbu	a5,0(a5)
.LM1559:
	slli	a4,a4,8
.LM1560:
	add	a5,a5,a4
.LM1561:
	sw	a5,4(s0)
.LM1562:
	lw	a5,8(s0)
	addi	a5,a5,-1
	sw	a5,8(s0)
	j	.L142
.LVL250:
.L151:
.LM1563:
.LBE574:
.LBE586:
.LBB587:
.LBB549:
.LM1564:
.LM1565:
	li	a4,20
.LM1566:
	addi	a5,a0,-21
.LM1567:
	bgtu	a0,a4,.L152
.LM1568:
.LM1569:
	sw	a0,-288(s3)
.LM1570:
.LVL251:
.L196:
.LM1571:
.LM1572:
	lw	a5,4(s1)
	add	a5,a5,s2
	sw	a5,4(s1)
	j	.L154
.LVL252:
.L155:
.LM1573:
.LM1574:
	lw	a5,4(s1)
	sub	a5,a5,a2
	add	a5,a5,a1
	sw	a5,4(s1)
.LM1575:
.LM1576:
	sw	zero,-288(s3)
.LVL253:
.L148:
.LM1577:
.LM1578:
	lw	a5,4(s1)
.LM1579:
	lw	a4,8(s1)
.LM1580:
	li	a3,20
.LM1581:
	sub	a4,a4,a5
.LVL254:
.LM1582:
.LM1583:
	bleu	a4,a3,.L156
.LM1584:
.LM1585:
	lw	a5,0(s1)
.LM1586:
	lw	a3,72(s0)
.LM1587:
	sw	a5,12(s0)
.LM1588:
.LM1589:
	lw	a5,4(s1)
.LM1590:
	addi	a2,a3,21
.LM1591:
	sw	a5,16(s0)
.LM1592:
.LM1593:
	add	a5,a5,a3
.LM1594:
	bgeu	a4,a2,.L158
.LM1595:
.LM1596:
	lw	a5,8(s1)
	addi	a5,a5,-21
.L158:
	sw	a5,20(s0)
.LM1597:
.LM1598:
	mv	a0,s0
	call	lzma_main
.LVL255:
.LM1599:
	beq	a0,zero,.L134
.LM1600:
.LM1601:
	lw	a5,16(s0)
.LM1602:
	lw	a4,4(s1)
.LVL256:
.LM1603:
.LM1604:
	lw	a3,72(s0)
.LM1605:
	sub	a2,a5,a4
.LVL257:
.LM1606:
	bgtu	a2,a3,.L134
.LM1607:
.LM1608:
	sub	a4,a4,a5
	add	a4,a4,a3
	sw	a4,72(s0)
.LM1609:
.LM1610:
	sw	a5,4(s1)
.LVL258:
.L156:
.LM1611:
.LM1612:
	lw	a4,8(s1)
.LM1613:
	li	a3,20
.LM1614:
	sub	a4,a4,a5
.LVL259:
.LM1615:
.LM1616:
	bgtu	a4,a3,.L154
.LM1617:
.LM1618:
	lw	s2,72(s0)
	bleu	s2,a4,.L159
	mv	s2,a4
.L159:
.LVL260:
.LM1619:
.LM1620:
	lw	a1,0(s1)
.LM1621:
	li	a0,28672
	addi	a0,a0,-284
	add	a1,a1,a5
	mv	a2,s2
	add	a0,s0,a0
	call	memcpy
.LVL261:
.LM1622:
.LM1623:
	li	a5,28672
	add	a5,s0,a5
	sw	s2,-288(a5)
	j	.L196
.LVL262:
.L162:
.LM1624:
.LBE549:
.LBE587:
.LM1625:
.LM1626:
	lw	a4,16(s1)
	lw	a5,20(s1)
	beq	a4,a5,.L163
.LM1627:
	lw	a4,4(s1)
	lw	a5,8(s1)
	bne	a4,a5,.L114
.LM1628:
	lw	a4,-288(s3)
	lw	a5,72(s0)
	bgeu	a4,a5,.L114
	j	.L163
.L172:
.LBB588:
.LBB589:
.LM1629:
.LVL263:
.LM1630:
.LM1631:
	lw	a0,32(s0)
.LVL264:
.LM1632:
.LM1633:
	lw	s2,44(s0)
	sub	s2,s2,a0
.LVL265:
.LM1634:
	bleu	s2,a5,.L165
.LM1635:
	mv	s2,a5
.LVL266:
.L165:
.LM1636:
	sub	a4,a4,a2
.LVL267:
.LM1637:
	bleu	s2,a4,.L166
	mv	s2,a4
.L166:
.LM1638:
	sub	a4,a3,a1
.LM1639:
	bleu	s2,a4,.L167
	mv	s2,a4
.L167:
.LVL268:
.LM1640:
.LM1641:
	sub	a5,a5,s2
	sw	a5,72(s0)
.LM1642:
.LM1643:
	lw	a4,4(s1)
.LM1644:
	lw	a5,24(s0)
.LM1645:
	lw	a1,0(s1)
.LM1646:
	mv	a2,s2
	add	a0,a5,a0
	add	a1,a1,a4
	call	memcpy
.LVL269:
.LM1647:
.LM1648:
	lw	a5,32(s0)
.LM1649:
	lw	a4,36(s0)
.LM1650:
	add	a5,s2,a5
	sw	a5,32(s0)
.LM1651:
.LM1652:
	bleu	a5,a4,.L168
.LM1653:
.LM1654:
	sw	a5,36(s0)
.L168:
.LM1655:
.LM1656:
	lbu	a4,60(s0)
	beq	a4,zero,.L169
.LM1657:
.LM1658:
	lw	a4,44(s0)
	bne	a5,a4,.L170
.LM1659:
	li	a5,0
.L170:
	sw	a5,32(s0)
.LM1660:
.LM1661:
	lw	a1,0(s1)
	lw	a4,4(s1)
.LM1662:
	lw	a0,12(s1)
	lw	a5,16(s1)
.LM1663:
	mv	a2,s2
	add	a1,a1,a4
	add	a0,a0,a5
	call	memcpy
.LVL270:
.L169:
.LM1664:
.LM1665:
	lw	a5,32(s0)
	sw	a5,28(s0)
.LM1666:
.LM1667:
	lw	a5,16(s1)
	add	a5,a5,s2
	sw	a5,16(s1)
.LM1668:
.LM1669:
	lw	a5,4(s1)
	add	a5,a5,s2
	sw	a5,4(s1)
.LVL271:
.L116:
.LM1670:
.LM1671:
	lw	a5,72(s0)
.LM1672:
	beq	a5,zero,.L171
.LM1673:
	lw	a1,4(s1)
.LM1674:
	lw	a3,8(s1)
.LM1675:
	bleu	a3,a1,.L163
.LM1676:
	lw	a2,16(s1)
.LM1677:
	lw	a4,20(s1)
.LM1678:
	bgtu	a4,a2,.L172
	j	.L163
.LVL272:
.L174:
.LM1679:
.LBE589:
.LBE588:
.LM1680:
	li	a0,1
	j	.L126
	.cfi_endproc
.LFE37:
	.size	xz_dec_lzma2_run, .-xz_dec_lzma2_run
	.section	.text.xz_dec_lzma2_create,"ax",@progbits
	.align	1
	.globl	xz_dec_lzma2_create
	.type	xz_dec_lzma2_create, @function
xz_dec_lzma2_create:
.LVL273:
.LFB38:
.LM1681:
	.cfi_startproc
.LM1682:
.LM1683:
	addi	sp,sp,-32
	.cfi_def_cfa_offset 32
	sw	s1,20(sp)
	.cfi_offset 9, -12
	mv	s1,a0
.LM1684:
	li	a0,28672
.LVL274:
.LM1685:
	addi	a0,a0,-220
.LM1686:
	sw	ra,28(sp)
	sw	s0,24(sp)
	.cfi_offset 1, -4
	.cfi_offset 8, -8
.LM1687:
	sw	a1,12(sp)
.LM1688:
	call	simple_malloc
.LVL275:
.LM1689:
.LM1690:
	beq	a0,zero,.L199
.LM1691:
	lw	a1,12(sp)
.LM1692:
	sb	s1,60(a0)
.LM1693:
	li	a5,1
.LM1694:
	sw	a1,52(a0)
	mv	s0,a0
.LM1695:
.LM1696:
.LM1697:
.LM1698:
	bne	s1,a5,.L200
.LM1699:
.LM1700:
	mv	a0,a1
.LVL276:
.LM1701:
	call	simple_malloc
.LVL277:
.LM1702:
	sw	a0,24(s0)
.LM1703:
.LM1704:
	bne	a0,zero,.L198
.LM1705:
	mv	a0,s0
	call	simple_free
.LVL278:
.LM1706:
.L199:
.LM1707:
	li	s0,0
.L198:
.LM1708:
	lw	ra,28(sp)
	.cfi_remember_state
	.cfi_restore 1
	mv	a0,s0
	lw	s0,24(sp)
	.cfi_restore 8
	lw	s1,20(sp)
	.cfi_restore 9
.LVL279:
.LM1709:
	addi	sp,sp,32
	.cfi_def_cfa_offset 0
.LVL280:
.LM1710:
	jr	ra
.LVL281:
.L200:
	.cfi_restore_state
.LM1711:
.LM1712:
	li	a5,2
	bne	s1,a5,.L198
.LM1713:
.LM1714:
	sw	zero,24(a0)
.LM1715:
.LM1716:
	sw	zero,56(a0)
	j	.L198
	.cfi_endproc
.LFE38:
	.size	xz_dec_lzma2_create, .-xz_dec_lzma2_create
	.section	.text.xz_dec_lzma2_reset,"ax",@progbits
	.align	1
	.globl	xz_dec_lzma2_reset
	.type	xz_dec_lzma2_reset, @function
xz_dec_lzma2_reset:
.LVL282:
.LFB39:
.LM1717:
	.cfi_startproc
.LM1718:
.LM1719:
	li	a5,39
	bgtu	a1,a5,.L211
.LM1720:
	addi	sp,sp,-16
	.cfi_def_cfa_offset 16
	sw	s0,8(sp)
	sw	ra,12(sp)
	.cfi_offset 8, -8
	.cfi_offset 1, -4
.LM1721:
	andi	a5,a1,1
.LM1722:
	srli	a1,a1,1
.LVL283:
.LM1723:
	addi	a5,a5,2
.LM1724:
	addi	a1,a1,11
.LM1725:
	lbu	a4,60(a0)
.LM1726:
	sll	a5,a5,a1
	sw	a5,48(a0)
	mv	s0,a0
.LM1727:
.LM1728:
.LM1729:
.LM1730:
	beq	a4,zero,.L210
.LM1731:
.LM1732:
	lw	a3,52(a0)
.LM1733:
	li	a0,4
.LVL284:
.LM1734:
	bgtu	a5,a3,.L209
.LM1735:
.LM1736:
	sw	a5,44(s0)
.LM1737:
.LM1738:
	li	a3,2
	bne	a4,a3,.L210
.LM1739:
.LM1740:
	lw	a4,56(s0)
	bleu	a5,a4,.L210
.LM1741:
	lw	a0,24(s0)
	call	simple_free
.LVL285:
.LM1742:
.LM1743:
	lw	a0,48(s0)
	call	simple_malloc
.LVL286:
.LM1744:
	sw	a0,24(s0)
.LM1745:
.LM1746:
	bne	a0,zero,.L210
.LM1747:
.LM1748:
	sw	zero,56(s0)
.LM1749:
.LM1750:
	li	a0,3
.LVL287:
.L209:
.LM1751:
	lw	ra,12(sp)
	.cfi_remember_state
	.cfi_restore 1
	lw	s0,8(sp)
	.cfi_restore 8
	addi	sp,sp,16
	.cfi_def_cfa_offset 0
	jr	ra
.LVL288:
.L210:
	.cfi_restore_state
.LM1752:
.LM1753:
	li	a5,1
	sb	a5,76(s0)
.LM1754:
	li	a5,28672
.LM1755:
	sw	zero,100(s0)
.LM1756:
.LM1757:
	sb	zero,64(s0)
.LM1758:
.LM1759:
.LM1760:
	add	s0,s0,a5
.LVL289:
.LM1761:
	sw	zero,-288(s0)
.LM1762:
.LM1763:
	li	a0,0
	j	.L209
.LVL290:
.L211:
	.cfi_def_cfa_offset 0
	.cfi_restore 1
	.cfi_restore 8
.LM1764:
	li	a0,6
.LVL291:
.LM1765:
	ret
	.cfi_endproc
.LFE39:
	.size	xz_dec_lzma2_reset, .-xz_dec_lzma2_reset
	.section	.text.xz_dec_lzma2_end,"ax",@progbits
	.align	1
	.globl	xz_dec_lzma2_end
	.type	xz_dec_lzma2_end, @function
xz_dec_lzma2_end:
.LVL292:
.LFB40:
.LM1766:
	.cfi_startproc
.LM1767:
.LM1768:
	addi	sp,sp,-16
	.cfi_def_cfa_offset 16
	sw	s0,8(sp)
	sw	ra,12(sp)
	.cfi_offset 8, -8
	.cfi_offset 1, -4
.LM1769:
	lbu	a5,60(a0)
.LM1770:
	mv	s0,a0
.LM1771:
	beq	a5,zero,.L221
.LM1772:
	lw	a0,24(a0)
.LVL293:
.LM1773:
	call	simple_free
.LVL294:
.L221:
.LM1774:
	mv	a0,s0
.LM1775:
	lw	s0,8(sp)
	.cfi_restore 8
.LVL295:
.LM1776:
	lw	ra,12(sp)
	.cfi_restore 1
	addi	sp,sp,16
	.cfi_def_cfa_offset 0
.LM1777:
	tail	simple_free
.LVL296:
.LM1778:
	.cfi_endproc
.LFE40:
	.size	xz_dec_lzma2_end, .-xz_dec_lzma2_end
	.text
.Letext0:
	.section	.note.GNU-stack,"",@progbits
