	.file	"xz_port.c"
	.option nopic
	.attribute arch, "rv32i2p1_m2p0_f2p2_c2p0_zicsr2p0_zmmul1p0_zca1p0_zcf1p0"
	.attribute unaligned_access, 0
	.attribute stack_align, 16
	.text
.Ltext0:
	.cfi_sections	.debug_frame
	.section	.text.simple_malloc_init,"ax",@progbits
	.align	1
	.globl	simple_malloc_init
	.type	simple_malloc_init, @function
simple_malloc_init:
.LFB4:
.LM1:
	.cfi_startproc
.LM2:
.LM3:
	lui	a5,%hi(malloced)
	sw	zero,%lo(malloced)(a5)
.LM4:
	ret
	.cfi_endproc
.LFE4:
	.size	simple_malloc_init, .-simple_malloc_init
	.section	.rodata.simple_malloc.str1.4,"aMS",@progbits,1
	.align	2
.LC0:
	.string	"Simple Malloc %d\r\n"
	.section	.text.simple_malloc,"ax",@progbits
	.align	1
	.globl	simple_malloc
	.type	simple_malloc, @function
simple_malloc:
.LVL0:
.LFB5:
.LM5:
	.cfi_startproc
.LM6:
.LM7:
.LM8:
	addi	sp,sp,-32
	.cfi_def_cfa_offset 32
	mv	a1,a0
.LM9:
	sw	a0,12(sp)
	lui	a0,%hi(.LC0)
.LVL1:
.LM10:
	addi	a0,a0,%lo(.LC0)
.LM11:
	sw	ra,28(sp)
	.cfi_offset 1, -4
.LM12:
	call	bflb_platform_printf
.LVL2:
.LM13:
.LM14:
	lui	a4,%hi(malloced)
	lw	a0,%lo(malloced)(a4)
	lw	a1,12(sp)
.LM15:
	li	a5,65536
.LM16:
	add	a1,a0,a1
.LM17:
	bgeu	a1,a5,.L4
.LM18:
.LM19:
	lui	a5,%hi(mallocBuf)
	addi	a5,a5,%lo(mallocBuf)
	add	a0,a0,a5
.LVL3:
.LM20:
.LM21:
	sw	a1,%lo(malloced)(a4)
.LM22:
.LVL4:
.L2:
.LM23:
	lw	ra,28(sp)
	.cfi_remember_state
	.cfi_restore 1
	addi	sp,sp,32
	.cfi_def_cfa_offset 0
.LVL5:
.LM24:
	jr	ra
.LVL6:
.L4:
	.cfi_restore_state
.LM25:
	li	a0,0
	j	.L2
	.cfi_endproc
.LFE5:
	.size	simple_malloc, .-simple_malloc
	.section	.rodata.simple_free.str1.4,"aMS",@progbits,1
	.align	2
.LC1:
	.string	"Simple Free %08x\r\n"
	.section	.text.simple_free,"ax",@progbits
	.align	1
	.globl	simple_free
	.type	simple_free, @function
simple_free:
.LVL7:
.LFB6:
.LM26:
	.cfi_startproc
.LM27:
.LM28:
	mv	a1,a0
.LM29:
	lui	a0,%hi(.LC1)
.LVL8:
.LM30:
	addi	a0,a0,%lo(.LC1)
	tail	bflb_platform_printf
.LVL9:
.LM31:
	.cfi_endproc
.LFE6:
	.size	simple_free, .-simple_free
	.section	.sbss.malloced,"aw",@nobits
	.align	2
	.type	malloced, @object
	.size	malloced, 4
malloced:
	.zero	4
	.section	.noinit_data,"aw"
	.align	2
	.type	mallocBuf, @object
	.size	mallocBuf, 65536
mallocBuf:
	.zero	65536
	.text
.Letext0:
	.section	.note.GNU-stack,"",@progbits
