	.file	"fdt_wip.c"
	.option nopic
	.attribute arch, "rv32i2p1_m2p0_f2p2_c2p0_zicsr2p0_zmmul1p0_zca1p0_zcf1p0"
	.attribute unaligned_access, 0
	.attribute stack_align, 16
	.text
.Ltext0:
	.cfi_sections	.debug_frame
	.section	.text.fdt_setprop_inplace_namelen_partial,"ax",@progbits
	.align	1
	.globl	fdt_setprop_inplace_namelen_partial
	.type	fdt_setprop_inplace_namelen_partial, @function
fdt_setprop_inplace_namelen_partial:
.LVL0:
.LFB40:
.LM1:
	.cfi_startproc
.LM2:
.LM3:
.LM4:
.LM5:
	addi	sp,sp,-48
	.cfi_def_cfa_offset 48
.LVL1:
.LBB10:
.LBI10:
.LM6:
.LBB11:
.LM7:
.LBE11:
.LBE10:
.LM8:
	sw	s0,40(sp)
	.cfi_offset 8, -8
	mv	s0,a4
.LBB14:
.LBB12:
.LM9:
	addi	a4,sp,28
.LVL2:
.LM10:
.LBE12:
.LBE14:
.LM11:
	sw	ra,44(sp)
	.cfi_offset 1, -4
.LM12:
	sw	a5,12(sp)
	sw	a6,8(sp)
.LBB15:
.LBB13:
.LM13:
	call	fdt_getprop_namelen
.LVL3:
.LM14:
.LBE13:
.LBE15:
.LM15:
.LM16:
	lw	a4,28(sp)
.LM17:
	beq	a0,zero,.L1
.LM18:
.LM19:
	lw	a6,8(sp)
	add	a3,a6,s0
.LM20:
	bgtu	a3,a4,.L3
.LM21:
	lw	a1,12(sp)
	mv	a2,a6
	add	a0,a0,s0
.LVL4:
.LM22:
	call	memcpy
.LVL5:
.LM23:
.LM24:
	li	a4,0
.L1:
.LM25:
	lw	ra,44(sp)
	.cfi_remember_state
	.cfi_restore 1
	lw	s0,40(sp)
	.cfi_restore 8
.LVL6:
.LM26:
	mv	a0,a4
	addi	sp,sp,48
	.cfi_def_cfa_offset 0
.LVL7:
.LM27:
	jr	ra
.LVL8:
.L3:
	.cfi_restore_state
.LM28:
	li	a4,-3
	j	.L1
	.cfi_endproc
.LFE40:
	.size	fdt_setprop_inplace_namelen_partial, .-fdt_setprop_inplace_namelen_partial
	.section	.text.fdt_setprop_inplace,"ax",@progbits
	.align	1
	.globl	fdt_setprop_inplace
	.type	fdt_setprop_inplace, @function
fdt_setprop_inplace:
.LVL9:
.LFB41:
.LM29:
	.cfi_startproc
.LM30:
.LM31:
.LM32:
.LM33:
	addi	sp,sp,-64
	.cfi_def_cfa_offset 64
	sw	s3,44(sp)
	.cfi_offset 19, -20
	mv	s3,a3
.LM34:
	addi	a3,sp,28
.LVL10:
.LM35:
	sw	s0,56(sp)
	sw	s1,52(sp)
	sw	s2,48(sp)
	sw	ra,60(sp)
	.cfi_offset 8, -8
	.cfi_offset 9, -12
	.cfi_offset 18, -16
	.cfi_offset 1, -4
.LM36:
	mv	s1,a0
	mv	s2,a1
	mv	s0,a2
	sw	a4,12(sp)
.LM37:
	call	fdt_getprop
.LVL11:
.LM38:
.LM39:
	lw	a6,28(sp)
.LM40:
	beq	a0,zero,.L8
.LM41:
.LM42:
	lw	a4,12(sp)
	bne	a4,a6,.L10
.LM43:
.LM44:
	mv	a0,s0
.LVL12:
.LM45:
	sw	a6,12(sp)
.LVL13:
.LM46:
	call	strlen
.LVL14:
.LM47:
	lw	a6,12(sp)
.LM48:
	mv	a3,a0
.LM49:
	mv	a5,s3
	li	a4,0
	mv	a2,s0
	mv	a1,s2
	mv	a0,s1
	call	fdt_setprop_inplace_namelen_partial
.LVL15:
	mv	a6,a0
.L8:
.LM50:
	lw	ra,60(sp)
	.cfi_remember_state
	.cfi_restore 1
	lw	s0,56(sp)
	.cfi_restore 8
.LVL16:
.LM51:
	lw	s1,52(sp)
	.cfi_restore 9
.LVL17:
.LM52:
	lw	s2,48(sp)
	.cfi_restore 18
.LVL18:
.LM53:
	lw	s3,44(sp)
	.cfi_restore 19
.LVL19:
.LM54:
	mv	a0,a6
	addi	sp,sp,64
	.cfi_def_cfa_offset 0
	jr	ra
.LVL20:
.L10:
	.cfi_restore_state
.LM55:
	li	a6,-3
	j	.L8
	.cfi_endproc
.LFE41:
	.size	fdt_setprop_inplace, .-fdt_setprop_inplace
	.section	.text.fdt_nop_property,"ax",@progbits
	.align	1
	.globl	fdt_nop_property
	.type	fdt_nop_property, @function
fdt_nop_property:
.LVL21:
.LFB43:
.LM56:
	.cfi_startproc
.LM57:
.LM58:
.LM59:
.LM60:
	addi	sp,sp,-32
	.cfi_def_cfa_offset 32
.LVL22:
.LBB20:
.LBI20:
.LM61:
.LBB21:
.LM62:
.LM63:
	addi	a3,sp,12
.LVL23:
.LM64:
.LBE21:
.LBE20:
.LM65:
	sw	ra,28(sp)
	.cfi_offset 1, -4
.LBB23:
.LBB22:
.LM66:
	call	fdt_get_property
.LVL24:
.LM67:
.LBE22:
.LBE23:
.LM68:
.LM69:
	lw	a5,12(sp)
.LM70:
	beq	a0,zero,.L15
.LM71:
.LM72:
	addi	a5,a5,12
.LVL25:
.LBB24:
.LBI24:
.LM73:
.LBB25:
.LM74:
.LM75:
.LM76:
	add	a5,a0,a5
.LVL26:
.LM77:
	li	a4,67108864
.LVL27:
.L17:
.LM78:
	bltu	a0,a5,.L18
.LBE25:
.LBE24:
.LM79:
	li	a5,0
.LVL28:
.L15:
.LM80:
	lw	ra,28(sp)
	.cfi_remember_state
	.cfi_restore 1
	mv	a0,a5
	addi	sp,sp,32
	.cfi_def_cfa_offset 0
	jr	ra
.LVL29:
.L18:
	.cfi_restore_state
.LBB27:
.LBB26:
.LM81:
.LM82:
	sw	a4,0(a0)
.LM83:
	addi	a0,a0,4
.LVL30:
.LM84:
	j	.L17
.LBE26:
.LBE27:
	.cfi_endproc
.LFE43:
	.size	fdt_nop_property, .-fdt_nop_property
	.section	.text.fdt_node_end_offset_,"ax",@progbits
	.align	1
	.globl	fdt_node_end_offset_
	.type	fdt_node_end_offset_, @function
fdt_node_end_offset_:
.LVL31:
.LFB44:
.LM85:
	.cfi_startproc
.LM86:
.LM87:
	addi	sp,sp,-32
	.cfi_def_cfa_offset 32
	sw	s0,24(sp)
	sw	ra,28(sp)
	.cfi_offset 8, -8
	.cfi_offset 1, -4
.LM88:
	mv	s0,a0
.LM89:
	sw	zero,12(sp)
.LM90:
.LVL32:
.L24:
.LM91:
.LM92:
	lw	a5,12(sp)
	or	a5,a1,a5
	bge	a5,zero,.L25
.LM93:
.LM94:
	lw	ra,28(sp)
	.cfi_remember_state
	.cfi_restore 1
	lw	s0,24(sp)
	.cfi_restore 8
.LVL33:
.LM95:
	mv	a0,a1
	addi	sp,sp,32
	.cfi_def_cfa_offset 0
	jr	ra
.LVL34:
.L25:
	.cfi_restore_state
.LM96:
.LM97:
	addi	a2,sp,12
	mv	a0,s0
	call	fdt_next_node
.LVL35:
.LM98:
	mv	a1,a0
	j	.L24
	.cfi_endproc
.LFE44:
	.size	fdt_node_end_offset_, .-fdt_node_end_offset_
	.section	.text.fdt_nop_node,"ax",@progbits
	.align	1
	.globl	fdt_nop_node
	.type	fdt_nop_node, @function
fdt_nop_node:
.LVL36:
.LFB45:
.LM99:
	.cfi_startproc
.LM100:
.LM101:
.LM102:
	addi	sp,sp,-16
	.cfi_def_cfa_offset 16
	sw	s0,8(sp)
	sw	s1,4(sp)
	sw	s2,0(sp)
	sw	ra,12(sp)
	.cfi_offset 8, -8
	.cfi_offset 9, -12
	.cfi_offset 18, -16
	.cfi_offset 1, -4
.LM103:
	mv	s2,a0
	mv	s1,a1
.LM104:
	call	fdt_node_end_offset_
.LVL37:
.LM105:
	mv	s0,a0
.LVL38:
.LM106:
.LM107:
	blt	a0,zero,.L27
.LM108:
.LVL39:
.LBB32:
.LBI32:
.LM109:
.LBB33:
.LM110:
.LM111:
	li	a2,0
	mv	a1,s1
	mv	a0,s2
	call	fdt_offset_ptr
.LVL40:
.LM112:
.LBE33:
.LBE32:
.LM113:
	sub	s0,s0,s1
.LVL41:
.LBB34:
.LBI34:
.LM114:
.LBB35:
.LM115:
.LM116:
.LM117:
	add	s0,a0,s0
.LVL42:
.LM118:
	li	a5,67108864
.LVL43:
.L29:
.LM119:
	bltu	a0,s0,.L30
.LBE35:
.LBE34:
.LM120:
	li	s0,0
.LVL44:
.L27:
.LM121:
	lw	ra,12(sp)
	.cfi_remember_state
	.cfi_restore 1
	mv	a0,s0
	lw	s0,8(sp)
	.cfi_restore 8
	lw	s1,4(sp)
	.cfi_restore 9
.LVL45:
.LM122:
	lw	s2,0(sp)
	.cfi_restore 18
.LVL46:
.LM123:
	addi	sp,sp,16
	.cfi_def_cfa_offset 0
	jr	ra
.LVL47:
.L30:
	.cfi_restore_state
.LBB37:
.LBB36:
.LM124:
.LM125:
	sw	a5,0(a0)
.LM126:
	addi	a0,a0,4
.LVL48:
.LM127:
	j	.L29
.LBE36:
.LBE37:
	.cfi_endproc
.LFE45:
	.size	fdt_nop_node, .-fdt_nop_node
	.text
.Letext0:
	.section	.note.GNU-stack,"",@progbits
