	.file	"fdt_sw.c"
	.option nopic
	.attribute arch, "rv32i2p1_m2p0_f2p2_c2p0_zicsr2p0_zmmul1p0_zca1p0_zcf1p0"
	.attribute unaligned_access, 0
	.attribute stack_align, 16
	.text
.Ltext0:
	.cfi_sections	.debug_frame
	.section	.text.fdt32_to_cpu,"ax",@progbits
	.align	1
	.type	fdt32_to_cpu, @function
fdt32_to_cpu:
.LVL0:
.LFB3:
.LM1:
	.cfi_startproc
.LM2:
.LM3:
	srli	a4,a0,8
	andi	a4,a4,0xff
.LM4:
	slli	a5,a0,24
.LM5:
	slli	a4,a4,16
.LM6:
	or	a5,a5,a4
.LM7:
	srli	a4,a0,24
.LM8:
	srli	a0,a0,16
.LVL1:
.LM9:
	andi	a0,a0,0xff
.LM10:
	or	a5,a5,a4
.LM11:
	slli	a0,a0,8
.LM12:
	or	a0,a5,a0
	ret
	.cfi_endproc
.LFE3:
	.size	fdt32_to_cpu, .-fdt32_to_cpu
	.set	cpu_to_fdt32,fdt32_to_cpu
	.section	.text.cpu_to_fdt64,"ax",@progbits
	.align	1
	.type	cpu_to_fdt64, @function
cpu_to_fdt64:
.LVL2:
.LFB6:
.LM13:
	.cfi_startproc
.LM14:
.LM15:
	srli	a5,a0,8
.LM16:
	srli	a4,a0,16
.LM17:
	andi	a5,a5,0xff
.LM18:
	slli	a3,a0,24
.LM19:
	slli	a5,a5,16
.LM20:
	andi	a4,a4,0xff
.LM21:
	slli	a2,a1,24
.LM22:
	or	a3,a3,a5
.LM23:
	slli	a4,a4,8
.LM24:
	srli	a5,a1,24
.LM25:
	or	a3,a3,a4
.LM26:
	srli	a4,a0,24
.LM27:
	or	a0,a5,a2
.LVL3:
.LM28:
	srli	a5,a1,8
.LM29:
	andi	a5,a5,0xff
.LM30:
	slli	a5,a5,16
.LM31:
	or	a0,a0,a5
.LM32:
	srli	a5,a1,16
.LM33:
	andi	a5,a5,0xff
.LM34:
	slli	a5,a5,8
.LM35:
	or	a0,a0,a5
	or	a1,a3,a4
	ret
	.cfi_endproc
.LFE6:
	.size	cpu_to_fdt64, .-cpu_to_fdt64
	.section	.text.fdt32_ld,"ax",@progbits
	.align	1
	.type	fdt32_ld, @function
fdt32_ld:
.LVL4:
.LFB8:
.LM36:
	.cfi_startproc
.LM37:
.LM38:
.LM39:
	lbu	a5,0(a0)
.LM40:
	lbu	a4,1(a0)
.LM41:
	slli	a5,a5,24
.LM42:
	slli	a4,a4,16
.LM43:
	or	a5,a5,a4
.LM44:
	lbu	a4,3(a0)
.LM45:
	lbu	a0,2(a0)
.LVL5:
.LM46:
	or	a5,a5,a4
.LM47:
	slli	a0,a0,8
.LM48:
	or	a0,a5,a0
	ret
	.cfi_endproc
.LFE8:
	.size	fdt32_ld, .-fdt32_ld
	.section	.text.fdt_sw_probe_,"ax",@progbits
	.align	1
	.type	fdt_sw_probe_, @function
fdt_sw_probe_:
.LVL6:
.LFB40:
.LM49:
	.cfi_startproc
.LM50:
.LM51:
	addi	sp,sp,-16
	.cfi_def_cfa_offset 16
	sw	ra,12(sp)
	.cfi_offset 1, -4
.LM52:
	call	fdt32_ld
.LVL7:
.LM53:
	li	a5,-804388864
	addi	a5,a5,-275
	beq	a0,a5,.L6
.LM54:
.LM55:
	li	a4,804388864
	addi	a4,a4,274
.LM56:
	li	a5,-9
.LM57:
	bne	a0,a4,.L4
.LM58:
	li	a5,0
.L4:
.LM59:
	lw	ra,12(sp)
	.cfi_remember_state
	.cfi_restore 1
	mv	a0,a5
	addi	sp,sp,16
	.cfi_def_cfa_offset 0
	jr	ra
.L6:
	.cfi_restore_state
.LM60:
	li	a5,-7
	j	.L4
	.cfi_endproc
.LFE40:
	.size	fdt_sw_probe_, .-fdt_sw_probe_
	.section	.text.fdt_sw_probe_struct_,"ax",@progbits
	.align	1
	.type	fdt_sw_probe_struct_, @function
fdt_sw_probe_struct_:
.LVL8:
.LFB42:
.LM61:
	.cfi_startproc
.LM62:
.LM63:
	addi	sp,sp,-16
	.cfi_def_cfa_offset 16
	sw	s0,8(sp)
	sw	s1,4(sp)
	sw	ra,12(sp)
	sw	s2,0(sp)
	.cfi_offset 8, -8
	.cfi_offset 9, -12
	.cfi_offset 1, -4
	.cfi_offset 18, -16
.LM64:
	mv	s1,a0
.LM65:
	call	fdt_sw_probe_
.LVL9:
.LM66:
	mv	s0,a0
.LVL10:
.LM67:
.LM68:
	bne	a0,zero,.L9
.LVL11:
.LBB23:
.LBI23:
.LM69:
.LBB24:
.LM70:
.LM71:
	addi	a0,s1,12
	call	fdt32_ld
.LVL12:
	mv	s2,a0
.LM72:
	addi	a0,s1,4
	call	fdt32_ld
.LVL13:
.LM73:
	beq	s2,a0,.L9
.LM74:
	li	s0,-7
.LVL14:
.L9:
.LM75:
.LBE24:
.LBE23:
.LM76:
	lw	ra,12(sp)
	.cfi_restore 1
	mv	a0,s0
	lw	s0,8(sp)
	.cfi_restore 8
	lw	s1,4(sp)
	.cfi_restore 9
.LVL15:
.LM77:
	lw	s2,0(sp)
	.cfi_restore 18
	addi	sp,sp,16
	.cfi_def_cfa_offset 0
	jr	ra
	.cfi_endproc
.LFE42:
	.size	fdt_sw_probe_struct_, .-fdt_sw_probe_struct_
	.section	.text.fdt_grab_space_,"ax",@progbits
	.align	1
	.type	fdt_grab_space_, @function
fdt_grab_space_:
.LVL16:
.LFB43:
.LM78:
	.cfi_startproc
.LM79:
.LM80:
	addi	sp,sp,-48
	.cfi_def_cfa_offset 48
	sw	s0,40(sp)
	.cfi_offset 8, -8
	mv	s0,a0
.LM81:
	addi	a0,a0,36
.LVL17:
.LM82:
	sw	a1,12(sp)
	sw	ra,44(sp)
	sw	s1,36(sp)
	sw	s2,32(sp)
	sw	s3,28(sp)
	.cfi_offset 1, -4
	.cfi_offset 9, -12
	.cfi_offset 18, -16
	.cfi_offset 19, -20
.LM83:
	call	fdt32_ld
.LVL18:
.LM84:
	mv	s1,a0
.LVL19:
.LM85:
.LM86:
.LM87:
	addi	a0,s0,4
	call	fdt32_ld
.LVL20:
	mv	s3,a0
.LM88:
	addi	a0,s0,8
	call	fdt32_ld
.LVL21:
	mv	s2,a0
.LM89:
	addi	a0,s0,32
	call	fdt32_ld
.LVL22:
	lw	a1,12(sp)
.LM90:
	add	a0,s2,a0
	sub	a5,s3,a0
.LVL23:
.LM91:
	add	a0,s1,a1
.LM92:
	bltu	a5,a0,.L17
	bltu	a0,s1,.L17
.LM93:
.LVL24:
.LBB31:
.LBI31:
.LM94:
.LBB32:
.LM95:
.LM96:
.LM97:
	call	cpu_to_fdt32
.LVL25:
.LM98:
.LBE32:
.LBE31:
.LBB34:
.LBB35:
.LBB36:
.LM99:
	add	s1,s1,s2
.LVL26:
.LM100:
.LBE36:
.LBE35:
.LBE34:
.LBB39:
.LBB33:
.LM101:
	sw	a0,36(s0)
.LVL27:
.LM102:
.LBE33:
.LBE39:
.LM103:
.LBB40:
.LBI34:
.LM104:
.LM105:
.LBB38:
.LBI35:
.LM106:
.LBB37:
.LM107:
.LM108:
	add	a0,s0,s1
.LVL28:
.L13:
.LM109:
.LBE37:
.LBE38:
.LBE40:
.LM110:
	lw	ra,44(sp)
	.cfi_remember_state
	.cfi_restore 1
	lw	s0,40(sp)
	.cfi_restore 8
.LVL29:
.LM111:
	lw	s1,36(sp)
	.cfi_restore 9
	lw	s2,32(sp)
	.cfi_restore 18
.LM112:
	lw	s3,28(sp)
	.cfi_restore 19
.LM113:
	addi	sp,sp,48
	.cfi_def_cfa_offset 0
.LVL30:
.LM114:
	jr	ra
.LVL31:
.L17:
	.cfi_restore_state
.LM115:
	li	a0,0
	j	.L13
	.cfi_endproc
.LFE43:
	.size	fdt_grab_space_, .-fdt_grab_space_
	.section	.text.fdt_create,"ax",@progbits
	.align	1
	.globl	fdt_create
	.type	fdt_create, @function
fdt_create:
.LVL32:
.LFB44:
.LM116:
	.cfi_startproc
.LM117:
.LM118:
.LM119:
.LM120:
	li	a5,47
	bleu	a1,a5,.L21
.LM121:
	addi	sp,sp,-32
	.cfi_def_cfa_offset 32
	mv	a2,a1
.LM122:
	sw	a1,12(sp)
	li	a1,0
.LVL33:
.LM123:
	sw	ra,28(sp)
	sw	s0,24(sp)
	.cfi_offset 1, -4
	.cfi_offset 8, -8
	mv	s0,a0
.LM124:
	call	memset
.LVL34:
.LM125:
.LBB63:
.LBI63:
.LM126:
.LBB64:
.LM127:
.LM128:
.LM129:
	li	a5,302116864
	addi	a5,a5,559
.LBE64:
.LBE63:
.LBB66:
.LBB67:
.LM130:
	lw	a0,12(sp)
.LBE67:
.LBE66:
.LBB70:
.LBB65:
.LM131:
	sw	a5,0(s0)
.LVL35:
.LM132:
.LBE65:
.LBE70:
.LM133:
.LBB71:
.LBI71:
.LM134:
.LBB72:
.LM135:
.LM136:
.LM137:
	li	a5,285212672
	sw	a5,20(s0)
.LVL36:
.LM138:
.LBE72:
.LBE71:
.LM139:
.LBB73:
.LBI73:
.LM140:
.LBB74:
.LM141:
.LM142:
.LM143:
	li	a5,33554432
	sw	a5,24(s0)
.LVL37:
.LM144:
.LBE74:
.LBE73:
.LM145:
.LBB75:
.LBI66:
.LM146:
.LBB68:
.LM147:
.LM148:
.LM149:
	call	cpu_to_fdt32
.LVL38:
.LM150:
.LBE68:
.LBE75:
.LBB76:
.LBB77:
.LM151:
	li	a5,805306368
	sw	a5,16(s0)
.LBE77:
.LBE76:
.LBB79:
.LBB69:
.LM152:
	sw	a0,4(s0)
.LVL39:
.LM153:
.LBE69:
.LBE79:
.LM154:
.LBB80:
.LBI76:
.LM155:
.LBB78:
.LM156:
.LM157:
.LM158:
.LBE78:
.LBE80:
.LM159:
	addi	a0,s0,16
	call	fdt32_ld
.LVL40:
.LBB81:
.LBI81:
.LM160:
.LBB82:
.LM161:
.LM162:
.LM163:
	call	cpu_to_fdt32
.LVL41:
.LM164:
	sw	a0,8(s0)
.LVL42:
.LM165:
.LBE82:
.LBE81:
.LM166:
.LBB83:
.LBI83:
.LM167:
.LBB84:
.LM168:
.LM169:
.LM170:
	li	a0,0
	call	cpu_to_fdt32
.LVL43:
.LM171:
	sw	a0,12(s0)
.LVL44:
.LM172:
.LBE84:
.LBE83:
.LM173:
.LM174:
	lw	ra,28(sp)
	.cfi_restore 1
	lw	s0,24(sp)
	.cfi_restore 8
.LVL45:
.LM175:
	li	a0,0
.LM176:
	addi	sp,sp,32
	.cfi_def_cfa_offset 0
.LVL46:
.LM177:
	jr	ra
.LVL47:
.L21:
.LM178:
	li	a0,-3
.LVL48:
.LM179:
	ret
	.cfi_endproc
.LFE44:
	.size	fdt_create, .-fdt_create
	.section	.text.fdt_resize,"ax",@progbits
	.align	1
	.globl	fdt_resize
	.type	fdt_resize, @function
fdt_resize:
.LVL49:
.LFB45:
.LM180:
	.cfi_startproc
.LM181:
.LM182:
.LBB90:
.LM183:
.LM184:
.LBE90:
.LM185:
	addi	sp,sp,-48
	.cfi_def_cfa_offset 48
	sw	s0,40(sp)
	sw	s1,36(sp)
	sw	s2,32(sp)
	sw	s5,20(sp)
	sw	ra,44(sp)
	sw	s3,28(sp)
	sw	s4,24(sp)
	sw	s6,16(sp)
	sw	s7,12(sp)
	.cfi_offset 8, -8
	.cfi_offset 9, -12
	.cfi_offset 18, -16
	.cfi_offset 21, -28
	.cfi_offset 1, -4
	.cfi_offset 19, -20
	.cfi_offset 20, -24
	.cfi_offset 22, -32
	.cfi_offset 23, -36
.LM186:
	mv	s0,a0
	mv	s1,a1
	mv	s5,a2
.LBB91:
.LM187:
	call	fdt_sw_probe_
.LVL50:
.LM188:
	mv	s2,a0
.LVL51:
.LM189:
	bne	a0,zero,.L26
.LBE91:
.LM190:
.LM191:
.LM192:
	addi	a0,s0,8
.LVL52:
.LM193:
	call	fdt32_ld
.LVL53:
	mv	s3,a0
.LM194:
	addi	a0,s0,36
	call	fdt32_ld
.LVL54:
.LM195:
	add	s3,s3,a0
.LVL55:
.LM196:
.LM197:
	addi	a0,s0,32
	call	fdt32_ld
.LVL56:
.LM198:
	add	s6,s3,a0
.LM199:
	mv	s4,a0
.LVL57:
.LM200:
.LM201:
	addi	a0,s0,4
.LVL58:
.LM202:
	call	fdt32_ld
.LVL59:
.LM203:
	bgtu	s6,a0,.L32
.LM204:
.LM205:
	bgtu	s6,s5,.L33
.LM206:
.LM207:
	sub	a5,a0,s4
.LM208:
	add	s7,s0,a5
.LVL60:
.LM209:
.LM210:
	sub	a5,s5,s4
.LM211:
	add	s6,s1,a5
.LVL61:
.LM212:
.LM213:
	bltu	s0,s1,.L28
.LM214:
	mv	a2,s3
	mv	a1,s0
	mv	a0,s1
	call	memmove
.LVL62:
.LM215:
	mv	a2,s4
	mv	a1,s7
	mv	a0,s6
.L35:
.LM216:
	call	memmove
.LVL63:
.LM217:
.LBB92:
.LBI92:
.LM218:
.LBB93:
.LM219:
.LM220:
.LM221:
	mv	a0,s5
	call	cpu_to_fdt32
.LVL64:
	mv	s0,a0
.LVL65:
.LM222:
	sw	a0,4(s1)
.LVL66:
.LM223:
.LBE93:
.LBE92:
.LM224:
.LM225:
	addi	a0,s1,12
	call	fdt32_ld
.LVL67:
.LM226:
	beq	a0,zero,.L26
.LM227:
.LVL68:
.LBB94:
.LBI94:
.LM228:
.LBB95:
.LM229:
.LM230:
.LM231:
	sw	s0,12(s1)
.LVL69:
.L26:
.LM232:
.LBE95:
.LBE94:
.LM233:
	lw	ra,44(sp)
	.cfi_remember_state
	.cfi_restore 1
	lw	s0,40(sp)
	.cfi_restore 8
	lw	s1,36(sp)
	.cfi_restore 9
.LVL70:
.LM234:
	lw	s3,28(sp)
	.cfi_restore 19
	lw	s4,24(sp)
	.cfi_restore 20
	lw	s5,20(sp)
	.cfi_restore 21
.LVL71:
.LM235:
	lw	s6,16(sp)
	.cfi_restore 22
	lw	s7,12(sp)
	.cfi_restore 23
	mv	a0,s2
	lw	s2,32(sp)
	.cfi_restore 18
	addi	sp,sp,48
	.cfi_def_cfa_offset 0
	jr	ra
.LVL72:
.L28:
	.cfi_restore_state
.LM236:
	mv	a2,s4
	mv	a1,s7
	mv	a0,s6
	call	memmove
.LVL73:
.LM237:
	mv	a2,s3
	mv	a1,s0
	mv	a0,s1
	j	.L35
.LVL74:
.L32:
.LM238:
	li	s2,-13
.LVL75:
.LM239:
	j	.L26
.LVL76:
.L33:
.LM240:
	li	s2,-3
.LVL77:
.LM241:
	j	.L26
	.cfi_endproc
.LFE45:
	.size	fdt_resize, .-fdt_resize
	.section	.text.fdt_add_reservemap_entry,"ax",@progbits
	.align	1
	.globl	fdt_add_reservemap_entry
	.type	fdt_add_reservemap_entry, @function
fdt_add_reservemap_entry:
.LVL78:
.LFB46:
.LM242:
	.cfi_startproc
.LM243:
.LM244:
.LBB104:
.LM245:
.LM246:
.LBE104:
.LM247:
	addi	sp,sp,-48
	.cfi_def_cfa_offset 48
	sw	s0,40(sp)
	sw	s1,36(sp)
	sw	s4,24(sp)
	sw	s5,20(sp)
	sw	s6,16(sp)
	sw	s7,12(sp)
	sw	ra,44(sp)
	sw	s2,32(sp)
	sw	s3,28(sp)
	.cfi_offset 8, -8
	.cfi_offset 9, -12
	.cfi_offset 20, -24
	.cfi_offset 21, -28
	.cfi_offset 22, -32
	.cfi_offset 23, -36
	.cfi_offset 1, -4
	.cfi_offset 18, -16
	.cfi_offset 19, -20
.LM248:
	mv	s1,a0
.LVL79:
.LBB109:
.LBB105:
.LBI105:
.LM249:
.LBB106:
.LM250:
.LBE106:
.LBE105:
.LBE109:
.LM251:
	mv	s4,a1
	mv	s5,a2
	mv	s6,a3
	mv	s7,a4
.LBB110:
.LBB108:
.LBB107:
.LM252:
	call	fdt_sw_probe_
.LVL80:
.LM253:
	mv	s0,a0
.LVL81:
.LM254:
.LM255:
	bne	a0,zero,.L36
.LM256:
.LM257:
	addi	a0,s1,12
	call	fdt32_ld
.LVL82:
.LM258:
	bne	a0,zero,.L38
.LVL83:
.LM259:
.LBE107:
.LBE108:
.LBE110:
.LBB111:
.LBI111:
.LM260:
.LBB112:
.LM261:
.LM262:
.LM263:
	addi	a0,s1,8
	call	fdt32_ld
.LVL84:
.LM264:
	addi	s3,a0,16
.LM265:
	mv	s2,a0
.LVL85:
.LM266:
.LM267:
	addi	a0,s1,4
.LVL86:
.LM268:
	call	fdt32_ld
.LVL87:
.LM269:
	bgtu	s3,a0,.L39
.LM270:
.LM271:
	mv	a0,s4
	mv	a1,s5
	call	cpu_to_fdt64
.LVL88:
.LM272:
	add	s2,s1,s2
.LVL89:
.LM273:
.LM274:
	sw	a0,0(s2)
	sw	a1,4(s2)
.LM275:
.LM276:
	mv	a0,s6
	mv	a1,s7
	call	cpu_to_fdt64
.LVL90:
.LM277:
	sw	a0,8(s2)
	sw	a1,12(s2)
.LM278:
.LVL91:
.LBB113:
.LBI113:
.LM279:
.LBB114:
.LM280:
.LM281:
.LM282:
	mv	a0,s3
	call	cpu_to_fdt32
.LVL92:
.LM283:
	sw	a0,8(s1)
.LVL93:
.LM284:
.LBE114:
.LBE113:
.LM285:
.L36:
.LM286:
.LBE112:
.LBE111:
.LM287:
	lw	ra,44(sp)
	.cfi_remember_state
	.cfi_restore 1
	mv	a0,s0
	lw	s0,40(sp)
	.cfi_restore 8
	lw	s1,36(sp)
	.cfi_restore 9
.LVL94:
.LM288:
	lw	s2,32(sp)
	.cfi_restore 18
	lw	s3,28(sp)
	.cfi_restore 19
	lw	s4,24(sp)
	.cfi_restore 20
	lw	s5,20(sp)
	.cfi_restore 21
	lw	s6,16(sp)
	.cfi_restore 22
	lw	s7,12(sp)
	.cfi_restore 23
	addi	sp,sp,48
	.cfi_def_cfa_offset 0
	jr	ra
.LVL95:
.L38:
	.cfi_restore_state
.LBB116:
.LM289:
	li	s0,-7
.LVL96:
.LM290:
	j	.L36
.LVL97:
.L39:
.LM291:
.LBE116:
.LBB117:
.LBB115:
.LM292:
	li	s0,-3
.LVL98:
.LM293:
	j	.L36
.LBE115:
.LBE117:
	.cfi_endproc
.LFE46:
	.size	fdt_add_reservemap_entry, .-fdt_add_reservemap_entry
	.section	.text.fdt_finish_reservemap,"ax",@progbits
	.align	1
	.globl	fdt_finish_reservemap
	.type	fdt_finish_reservemap, @function
fdt_finish_reservemap:
.LVL99:
.LFB47:
.LM294:
	.cfi_startproc
.LM295:
.LM296:
	addi	sp,sp,-16
	.cfi_def_cfa_offset 16
.LM297:
	li	a3,0
	li	a4,0
	li	a1,0
	li	a2,0
.LM298:
	sw	s0,8(sp)
	sw	s1,4(sp)
	sw	ra,12(sp)
	.cfi_offset 8, -8
	.cfi_offset 9, -12
	.cfi_offset 1, -4
.LM299:
	mv	s0,a0
.LM300:
	call	fdt_add_reservemap_entry
.LVL100:
.LM301:
	mv	s1,a0
.LVL101:
.LM302:
.LM303:
	bne	a0,zero,.L41
.LM304:
	addi	a0,s0,4
	call	fdt32_ld
.LVL102:
.LBB120:
.LBI120:
.LM305:
.LBB121:
.LM306:
.LM307:
.LM308:
	call	cpu_to_fdt32
.LVL103:
.LM309:
	sw	a0,12(s0)
.LVL104:
.LM310:
.LBE121:
.LBE120:
.LM311:
.L41:
.LM312:
	lw	ra,12(sp)
	.cfi_restore 1
	lw	s0,8(sp)
	.cfi_restore 8
.LVL105:
.LM313:
	mv	a0,s1
	lw	s1,4(sp)
	.cfi_restore 9
.LVL106:
.LM314:
	addi	sp,sp,16
	.cfi_def_cfa_offset 0
	jr	ra
	.cfi_endproc
.LFE47:
	.size	fdt_finish_reservemap, .-fdt_finish_reservemap
	.section	.text.fdt_begin_node,"ax",@progbits
	.align	1
	.globl	fdt_begin_node
	.type	fdt_begin_node, @function
fdt_begin_node:
.LVL107:
.LFB48:
.LM315:
	.cfi_startproc
.LM316:
.LM317:
.LBB122:
.LM318:
.LM319:
.LBE122:
.LM320:
	addi	sp,sp,-32
	.cfi_def_cfa_offset 32
	sw	s0,24(sp)
	sw	s2,16(sp)
	sw	s3,12(sp)
	sw	ra,28(sp)
	sw	s1,20(sp)
	.cfi_offset 8, -8
	.cfi_offset 18, -16
	.cfi_offset 19, -20
	.cfi_offset 1, -4
	.cfi_offset 9, -12
.LM321:
	mv	s3,a0
	mv	s2,a1
.LBB123:
.LM322:
	call	fdt_sw_probe_struct_
.LVL108:
.LM323:
	mv	s0,a0
.LVL109:
.LM324:
	bne	a0,zero,.L44
.LBE123:
.LM325:
.LM326:
.LM327:
	mv	a0,s2
	call	strlen
.LVL110:
.LM328:
	addi	a1,a0,4
.LM329:
	andi	a1,a1,-4
.LM330:
	mv	s1,a0
.LVL111:
.LM331:
.LM332:
	addi	a1,a1,4
	mv	a0,s3
	call	fdt_grab_space_
.LVL112:
.LM333:
.LM334:
	beq	a0,zero,.L46
.LM335:
.LM336:
	li	a5,16777216
	sw	a5,0(a0)
.LM337:
	addi	a2,s1,1
.LVL113:
.LM338:
	mv	a1,s2
	addi	a0,a0,4
.LVL114:
.LM339:
	call	memcpy
.LVL115:
.LM340:
.L44:
.LM341:
	lw	ra,28(sp)
	.cfi_remember_state
	.cfi_restore 1
	mv	a0,s0
	lw	s0,24(sp)
	.cfi_restore 8
	lw	s1,20(sp)
	.cfi_restore 9
	lw	s2,16(sp)
	.cfi_restore 18
.LVL116:
.LM342:
	lw	s3,12(sp)
	.cfi_restore 19
.LVL117:
.LM343:
	addi	sp,sp,32
	.cfi_def_cfa_offset 0
	jr	ra
.LVL118:
.L46:
	.cfi_restore_state
.LM344:
	li	s0,-3
.LVL119:
.LM345:
	j	.L44
	.cfi_endproc
.LFE48:
	.size	fdt_begin_node, .-fdt_begin_node
	.section	.text.fdt_end_node,"ax",@progbits
	.align	1
	.globl	fdt_end_node
	.type	fdt_end_node, @function
fdt_end_node:
.LVL120:
.LFB49:
.LM346:
	.cfi_startproc
.LM347:
.LBB124:
.LM348:
.LM349:
.LBE124:
.LM350:
	addi	sp,sp,-16
	.cfi_def_cfa_offset 16
	sw	s0,8(sp)
	sw	s1,4(sp)
	sw	ra,12(sp)
	.cfi_offset 8, -8
	.cfi_offset 9, -12
	.cfi_offset 1, -4
.LM351:
	mv	s1,a0
.LBB125:
.LM352:
	call	fdt_sw_probe_struct_
.LVL121:
.LM353:
	mv	s0,a0
.LVL122:
.LM354:
	bne	a0,zero,.L48
.LBE125:
.LM355:
.LM356:
.LM357:
	li	a1,4
	mv	a0,s1
	call	fdt_grab_space_
.LVL123:
.LM358:
.LM359:
	beq	a0,zero,.L50
.LM360:
.LM361:
	li	a5,33554432
	sw	a5,0(a0)
.LM362:
.LVL124:
.L48:
.LM363:
	lw	ra,12(sp)
	.cfi_remember_state
	.cfi_restore 1
	mv	a0,s0
	lw	s0,8(sp)
	.cfi_restore 8
	lw	s1,4(sp)
	.cfi_restore 9
.LVL125:
.LM364:
	addi	sp,sp,16
	.cfi_def_cfa_offset 0
	jr	ra
.LVL126:
.L50:
	.cfi_restore_state
.LM365:
	li	s0,-3
.LVL127:
.LM366:
	j	.L48
	.cfi_endproc
.LFE49:
	.size	fdt_end_node, .-fdt_end_node
	.section	.text.fdt_property_placeholder,"ax",@progbits
	.align	1
	.globl	fdt_property_placeholder
	.type	fdt_property_placeholder, @function
fdt_property_placeholder:
.LVL128:
.LFB51:
.LM367:
	.cfi_startproc
.LM368:
.LM369:
.LBB134:
.LM370:
.LM371:
.LBE134:
.LM372:
	addi	sp,sp,-48
	.cfi_def_cfa_offset 48
	sw	s1,36(sp)
	sw	s2,32(sp)
	sw	s7,12(sp)
	sw	s9,4(sp)
	sw	s10,0(sp)
	sw	ra,44(sp)
	sw	s0,40(sp)
	sw	s3,28(sp)
	sw	s4,24(sp)
	sw	s5,20(sp)
	sw	s6,16(sp)
	sw	s8,8(sp)
	.cfi_offset 9, -12
	.cfi_offset 18, -16
	.cfi_offset 23, -36
	.cfi_offset 25, -44
	.cfi_offset 26, -48
	.cfi_offset 1, -4
	.cfi_offset 8, -8
	.cfi_offset 19, -20
	.cfi_offset 20, -24
	.cfi_offset 21, -28
	.cfi_offset 22, -32
	.cfi_offset 24, -40
.LM373:
	mv	s1,a0
	mv	s7,a1
	mv	s9,a2
	mv	s10,a3
.LBB135:
.LM374:
	call	fdt_sw_probe_struct_
.LVL129:
.LM375:
	mv	s2,a0
.LVL130:
.LM376:
	bne	a0,zero,.L52
.LVL131:
.LM377:
.LBE135:
.LBB136:
.LBI136:
.LM378:
.LBB137:
.LM379:
.LM380:
.LBB138:
.LBI138:
.LM381:
.LBB139:
.LM382:
.LM383:
	addi	a0,s1,4
.LVL132:
.LM384:
	call	fdt32_ld
.LVL133:
.LM385:
	add	s4,s1,a0
.LVL134:
.LM386:
.LM387:
.LM388:
	addi	a0,s1,32
	call	fdt32_ld
.LVL135:
	mv	s5,a0
.LVL136:
.LM389:
.LM390:
	mv	a0,s7
.LVL137:
.LM391:
	call	strlen
.LVL138:
	mv	s3,a0
.LVL139:
.LM392:
.LM393:
.LM394:
	mv	a2,s7
	mv	a1,s5
	sub	a0,s4,s5
.LVL140:
.LM395:
	call	fdt_find_string_
.LVL141:
.LM396:
.LM397:
	sub	s0,a0,s4
.LM398:
	bne	a0,zero,.L55
.LM399:
	addi	a0,s1,8
.LVL142:
.LM400:
	call	fdt32_ld
.LVL143:
	mv	s6,a0
.LM401:
	addi	a0,s1,36
	call	fdt32_ld
.LVL144:
.LM402:
	addi	s3,s3,1
.LVL145:
.LM403:
.LM404:
	neg	s0,s5
.LM405:
	add	s6,s6,a0
.LM406:
	addi	a0,s1,4
.LM407:
	sub	s0,s0,s3
.LVL146:
.LM408:
.LM409:
.LM410:
	call	fdt32_ld
.LVL147:
.LM411:
	add	a5,a0,s0
.LM412:
	bleu	s6,a5,.L56
.LVL148:
.L57:
.LM413:
.LBE139:
.LBE138:
.LM414:
	li	s2,-3
.LVL149:
.L52:
.LM415:
.LBE137:
.LBE136:
.LM416:
	lw	ra,44(sp)
	.cfi_remember_state
	.cfi_restore 1
	lw	s0,40(sp)
	.cfi_restore 8
	lw	s1,36(sp)
	.cfi_restore 9
	lw	s3,28(sp)
	.cfi_restore 19
	lw	s4,24(sp)
	.cfi_restore 20
	lw	s5,20(sp)
	.cfi_restore 21
	lw	s6,16(sp)
	.cfi_restore 22
	lw	s7,12(sp)
	.cfi_restore 23
.LVL150:
.LM417:
	lw	s8,8(sp)
	.cfi_restore 24
	lw	s9,4(sp)
	.cfi_restore 25
.LVL151:
.LM418:
	lw	s10,0(sp)
	.cfi_restore 26
.LVL152:
.LM419:
	mv	a0,s2
	lw	s2,32(sp)
	.cfi_restore 18
	addi	sp,sp,48
	.cfi_def_cfa_offset 0
	jr	ra
.LVL153:
.L56:
	.cfi_restore_state
.LBB145:
.LBB144:
.LBB143:
.LBB142:
.LM420:
	mv	a2,s3
	mv	a1,s7
	add	a0,s4,s0
	call	memcpy
.LVL154:
.LM421:
.LBB140:
.LBI140:
.LM422:
.LBB141:
.LM423:
.LM424:
.LM425:
	add	a0,s5,s3
.LVL155:
.LM426:
	call	cpu_to_fdt32
.LVL156:
.LM427:
	sw	a0,32(s1)
.LVL157:
.LM428:
.LBE141:
.LBE140:
.LM429:
.L55:
.LM430:
.LBE142:
.LBE143:
.LM431:
.LM432:
	beq	s0,zero,.L57
.LM433:
.LM434:
	addi	a1,s9,3
.LM435:
	andi	a1,a1,-4
.LM436:
	mv	a0,s1
	addi	a1,a1,12
	call	fdt_grab_space_
.LVL158:
	mv	s1,a0
.LVL159:
.LM437:
.LM438:
	beq	a0,zero,.L57
.LM439:
.LM440:
	li	a5,50331648
	sw	a5,0(a0)
.LM441:
.LM442:
	mv	a0,s0
	call	cpu_to_fdt32
.LVL160:
.LM443:
	sw	a0,8(s1)
.LM444:
.LM445:
	mv	a0,s9
	call	cpu_to_fdt32
.LVL161:
.LM446:
	sw	a0,4(s1)
.LM447:
.LM448:
	addi	s1,s1,12
.LVL162:
.LM449:
	sw	s1,0(s10)
.LM450:
.LVL163:
.LM451:
	j	.L52
.LBE144:
.LBE145:
	.cfi_endproc
.LFE51:
	.size	fdt_property_placeholder, .-fdt_property_placeholder
	.section	.text.fdt_property,"ax",@progbits
	.align	1
	.globl	fdt_property
	.type	fdt_property, @function
fdt_property:
.LVL164:
.LFB52:
.LM452:
	.cfi_startproc
.LM453:
.LM454:
.LM455:
.LM456:
	addi	sp,sp,-48
	.cfi_def_cfa_offset 48
	sw	s1,36(sp)
	.cfi_offset 9, -12
	mv	s1,a2
	mv	a2,a3
.LVL165:
.LM457:
	addi	a3,sp,28
.LVL166:
.LM458:
	sw	s0,40(sp)
	sw	ra,44(sp)
	.cfi_offset 8, -8
	.cfi_offset 1, -4
.LM459:
	sw	a2,12(sp)
	call	fdt_property_placeholder
.LVL167:
.LM460:
	mv	s0,a0
.LVL168:
.LM461:
.LM462:
	bne	a0,zero,.L65
.LM463:
	lw	a2,12(sp)
	lw	a0,28(sp)
	mv	a1,s1
	call	memcpy
.LVL169:
.LM464:
.L65:
.LM465:
	lw	ra,44(sp)
	.cfi_restore 1
	mv	a0,s0
	lw	s0,40(sp)
	.cfi_restore 8
.LVL170:
.LM466:
	lw	s1,36(sp)
	.cfi_restore 9
.LVL171:
.LM467:
	addi	sp,sp,48
	.cfi_def_cfa_offset 0
.LVL172:
.LM468:
	jr	ra
	.cfi_endproc
.LFE52:
	.size	fdt_property, .-fdt_property
	.section	.text.fdt_finish,"ax",@progbits
	.align	1
	.globl	fdt_finish
	.type	fdt_finish, @function
fdt_finish:
.LVL173:
.LFB53:
.LM469:
	.cfi_startproc
.LM470:
.LM471:
	addi	sp,sp,-80
	.cfi_def_cfa_offset 80
	sw	s0,72(sp)
	sw	s2,64(sp)
	sw	ra,76(sp)
	sw	s1,68(sp)
	sw	s3,60(sp)
	sw	s4,56(sp)
	sw	s5,52(sp)
	sw	s6,48(sp)
	sw	s7,44(sp)
	sw	s8,40(sp)
	sw	s9,36(sp)
	.cfi_offset 8, -8
	.cfi_offset 18, -16
	.cfi_offset 1, -4
	.cfi_offset 9, -12
	.cfi_offset 19, -20
	.cfi_offset 20, -24
	.cfi_offset 21, -28
	.cfi_offset 22, -32
	.cfi_offset 23, -36
	.cfi_offset 24, -40
	.cfi_offset 25, -44
.LM472:
	mv	s0,a0
.LVL174:
.LM473:
.LM474:
.LM475:
.LM476:
.LBB160:
.LM477:
.LM478:
.LM479:
	call	fdt_sw_probe_struct_
.LVL175:
.LM480:
	mv	s2,a0
.LVL176:
.LM481:
	bne	a0,zero,.L68
.LBE160:
.LM482:
.LM483:
.LM484:
	li	a1,4
	mv	a0,s0
.LVL177:
.LM485:
	call	fdt_grab_space_
.LVL178:
.LM486:
.LM487:
	beq	a0,zero,.L73
.LM488:
.LM489:
	li	a5,150994944
	sw	a5,0(a0)
.LM490:
.LM491:
	addi	a0,s0,4
.LVL179:
.LM492:
	call	fdt32_ld
.LVL180:
	mv	s1,a0
.LM493:
	addi	a0,s0,32
	call	fdt32_ld
.LVL181:
.LM494:
	sub	s1,s1,a0
	sw	a0,12(sp)
.LVL182:
.LM495:
.LM496:
	addi	a0,s0,8
	call	fdt32_ld
.LVL183:
	mv	s3,a0
.LM497:
	addi	a0,s0,36
	call	fdt32_ld
.LVL184:
.LM498:
	lw	a2,12(sp)
.LM499:
	add	s3,s3,a0
.LVL185:
.LM500:
.LM501:
	add	a1,s0,s1
	add	a0,s0,s3
	call	memmove
.LVL186:
.LM502:
.LBB161:
.LBI161:
.LM503:
.LBB162:
.LM504:
.LM505:
.LM506:
	mv	a0,s3
	call	cpu_to_fdt32
.LVL187:
.LM507:
	sw	a0,12(s0)
.LVL188:
.LM508:
.LBE162:
.LBE161:
.LM509:
.LM510:
.LM511:
	li	s1,0
.LVL189:
.LM512:
	li	s5,9
.LM513:
	li	s6,3
.LVL190:
.L70:
.LM514:
.LM515:
	addi	a2,sp,28
	mv	a1,s1
	mv	a0,s0
	call	fdt_next_tag
.LVL191:
.LM516:
	lw	s4,28(sp)
.LM517:
	bne	a0,s5,.L72
.LM518:
.LM519:
	blt	s4,zero,.L74
.LM520:
.LM521:
	addi	a0,s0,32
.LVL192:
.LM522:
	call	fdt32_ld
.LVL193:
.LBB163:
.LBI163:
.LM523:
.LBB164:
.LM524:
.LM525:
.LM526:
	add	a0,s3,a0
.LVL194:
.LM527:
	call	cpu_to_fdt32
.LVL195:
.LM528:
.LBE164:
.LBE163:
.LBB166:
.LBB167:
.LM529:
	li	a5,-302116864
	addi	a5,a5,-560
.LBE167:
.LBE166:
.LBB169:
.LBB165:
.LM530:
	sw	a0,4(s0)
.LVL196:
.LM531:
.LBE165:
.LBE169:
.LM532:
.LBB170:
.LBI166:
.LM533:
.LBB168:
.LM534:
.LM535:
.LM536:
	sw	a5,0(s0)
.LVL197:
.LM537:
.LBE168:
.LBE170:
.LM538:
.L68:
.LM539:
	lw	ra,76(sp)
	.cfi_remember_state
	.cfi_restore 1
	lw	s0,72(sp)
	.cfi_restore 8
.LVL198:
.LM540:
	lw	s1,68(sp)
	.cfi_restore 9
	lw	s3,60(sp)
	.cfi_restore 19
	lw	s4,56(sp)
	.cfi_restore 20
	lw	s5,52(sp)
	.cfi_restore 21
	lw	s6,48(sp)
	.cfi_restore 22
	lw	s7,44(sp)
	.cfi_restore 23
	lw	s8,40(sp)
	.cfi_restore 24
	lw	s9,36(sp)
	.cfi_restore 25
	mv	a0,s2
	lw	s2,64(sp)
	.cfi_restore 18
	addi	sp,sp,80
	.cfi_def_cfa_offset 0
	jr	ra
.LVL199:
.L72:
	.cfi_restore_state
.LM541:
.LM542:
	bne	a0,s6,.L71
.LBB171:
.LM543:
.LVL200:
.LBB172:
.LBI172:
.LM544:
.LM545:
.LBB173:
.LBI173:
.LM546:
.LBB174:
.LM547:
.LM548:
	addi	a0,s0,8
.LVL201:
.LM549:
	call	fdt32_ld
.LVL202:
.LM550:
	add	s1,s1,a0
.LVL203:
.LM551:
	add	s1,s0,s1
.LVL204:
.LM552:
.LBE174:
.LBE173:
.LBE172:
.LM553:
.LM554:
.LM555:
	lw	a0,8(s1)
	call	fdt32_to_cpu
.LVL205:
	mv	s9,a0
.LVL206:
.LM556:
.LM557:
	addi	a0,s0,32
.LVL207:
.LM558:
	call	fdt32_ld
.LVL208:
.LM559:
.LM560:
	add	a0,s9,a0
.LVL209:
.LM561:
	call	cpu_to_fdt32
.LVL210:
.LM562:
	sw	a0,8(s1)
.LVL211:
.L71:
.LM563:
.LBE171:
.LM564:
.LM565:
	mv	s1,s4
	j	.L70
.LVL212:
.L73:
.LM566:
	li	s2,-3
.LVL213:
.LM567:
	j	.L68
.LVL214:
.L74:
.LM568:
	mv	s2,s4
.LVL215:
.LM569:
	j	.L68
	.cfi_endproc
.LFE53:
	.size	fdt_finish, .-fdt_finish
	.text
.Letext0:
	.section	.note.GNU-stack,"",@progbits
