	.file	"debug.c"
	.option nopic
	.attribute arch, "rv32i2p1_m2p0_f2p2_c2p0_zicsr2p0_zmmul1p0_zca1p0_zcf1p0"
	.attribute unaligned_access, 0
	.attribute stack_align, 16
	.text
.Ltext0:
	.cfi_sections	.debug_frame
	.section	.text.format_int,"ax",@progbits
	.align	1
	.type	format_int, @function
format_int:
.LVL0:
.LFB4:
.LM1:
	.cfi_startproc
.LM2:
	addi	sp,sp,-96
	.cfi_def_cfa_offset 96
	sw	s0,88(sp)
	sw	s1,84(sp)
	sw	s2,80(sp)
	sw	s3,76(sp)
	sw	s5,68(sp)
	sw	s6,64(sp)
	sw	s7,60(sp)
	sw	s9,52(sp)
	sw	s11,44(sp)
	sw	ra,92(sp)
	sw	s4,72(sp)
	sw	s8,56(sp)
	sw	s10,48(sp)
	.cfi_offset 8, -8
	.cfi_offset 9, -12
	.cfi_offset 18, -16
	.cfi_offset 19, -20
	.cfi_offset 21, -28
	.cfi_offset 22, -32
	.cfi_offset 23, -36
	.cfi_offset 25, -44
	.cfi_offset 27, -52
	.cfi_offset 1, -4
	.cfi_offset 20, -24
	.cfi_offset 24, -40
	.cfi_offset 26, -48
.LM3:
	andi	s9,a4,128
.LM4:
	mv	s0,a0
	mv	s11,a1
	mv	s6,a2
	mv	s2,a3
	mv	s3,a4
	mv	s7,a5
.LM5:
.LM6:
.LVL1:
.LM7:
.LM8:
.LM9:
.LM10:
.LM11:
.LM12:
.LM13:
.LM14:
.LM15:
	mv	s1,a6
	mv	s5,a7
.LM16:
	beq	s9,zero,.L43
.LM17:
	lui	s8,%hi(ucdigits.1)
	addi	a5,s8,%lo(ucdigits.1)
.LVL2:
.L88:
.LM18:
	sw	a5,12(sp)
.LVL3:
.LM19:
.LM20:
	srli	a5,s3,6
.LVL4:
.LM21:
	andi	a5,a5,1
	beq	a5,zero,.L44
	bge	s2,zero,.L44
.LM22:
.LVL5:
.LM23:
.LM24:
	snez	a5,s6
	neg	s2,s2
	sub	s2,s2,a5
	neg	s6,s6
.LVL6:
.LM25:
	li	s10,1
.LVL7:
.L3:
.LM26:
.LM27:
.LM28:
	mv	a0,s6
.LVL8:
.LM29:
	mv	a1,s2
.LVL9:
.LM30:
	li	s4,0
.LVL10:
.L4:
.LM31:
	or	a5,a0,a1
	bne	a5,zero,.L5
.LM32:
.LM33:
	srli	a3,s3,5
.LM34:
	addi	a5,s7,-8
.LM35:
	andi	a3,a3,1
.LM36:
	bne	a5,zero,.L6
	beq	a3,zero,.L6
.LM37:
.LM38:
	blt	s4,s5,.L7
.LM39:
.LM40:
	addi	s5,s4,1
.LVL11:
.LM41:
.L7:
.LM42:
.LM43:
	andi	a4,s3,8
.LM44:
	mv	s8,s5
.LM45:
	beq	a4,zero,.L9
.LM46:
.LM47:
	addi	a5,s7,-16
	seqz	a5,a5
	addi	s8,a5,3
.L9:
.LVL12:
.LM48:
.LM49:
	addi	s4,s5,-1
.LM50:
	div	s4,s4,s8
.LM51:
	andi	a4,s3,20
.LM52:
	addi	a2,s7,-16
	seqz	a2,a2
.LM53:
	or	a4,a4,s10
.LM54:
	and	a3,a3,a2
.LM55:
	snez	a4,a4
.LM56:
	andi	a2,s3,3
.LM57:
	add	s4,s4,s5
.LVL13:
.LM58:
.LM59:
.LM60:
	add	a4,s4,a4
.LVL14:
.LM61:
.LM62:
	slli	s5,a3,1
	add	s5,s5,a4
.LVL15:
.LM63:
.LM64:
	ble	s1,s5,.L49
	bne	a2,zero,.L49
	mv	a4,s1
.LM65:
	li	a1,32
.LVL16:
.L13:
.LM66:
.LM67:
	sub	a0,s1,a4
	bleu	s11,a0,.L12
.LM68:
.LVL17:
.LM69:
	sb	a1,0(s0)
.LM70:
	addi	s0,s0,1
.LVL18:
.L12:
.LM71:
.LM72:
.LM73:
.LM74:
	addi	a4,a4,-1
.LVL19:
.LM75:
	bgt	a4,s5,.L13
.LM76:
	sub	a6,s1,s5
.LVL20:
.LM77:
	mv	s1,s5
.LVL21:
.L11:
.LM78:
.LM79:
	beq	s10,zero,.L14
.LM80:
.LVL22:
.LM81:
	li	a4,45
.LM82:
	bltu	a6,s11,.L89
.LVL23:
.L19:
.LM83:
.LM84:
	addi	a6,a6,1
.LVL24:
.L16:
.LM85:
.LM86:
.LM87:
	beq	a3,zero,.L20
.LM88:
.LM89:
	bgeu	a6,s11,.L21
.LM90:
.LVL25:
.LM91:
	li	a4,48
	sb	a4,0(s0)
.LM92:
	addi	s0,s0,1
.LVL26:
.L21:
.LM93:
.LM94:
.LM95:
.LM96:
	addi	a4,a6,1
.LVL27:
.LM97:
	bleu	s11,a4,.L22
.LM98:
.LVL28:
.LM99:
	seqz	a4,s9
.LVL29:
.LM100:
	slli	a4,a4,5
	addi	a4,a4,88
.LM101:
	sb	a4,0(s0)
.LM102:
	addi	s0,s0,1
.LVL30:
.L22:
.LM103:
.LM104:
	addi	a6,a6,2
.LVL31:
.L20:
.LM105:
.LM106:
.LM107:
	ble	s1,s4,.L26
.LM108:
	addi	a2,a2,-1
.LM109:
	bne	a2,zero,.L26
	mv	a4,s1
	add	a3,s1,a6
.LM110:
	li	a2,48
	j	.L24
.LVL32:
.L43:
.LM111:
	lui	s8,%hi(lcdigits.0)
	addi	a5,s8,%lo(lcdigits.0)
.LVL33:
.LM112:
	j	.L88
.LVL34:
.L44:
.LM113:
	li	s10,0
	j	.L3
.LVL35:
.L5:
.LM114:
.LM115:
	mv	a2,s7
	srai	a3,s7,31
	call	__udivdi3
.LVL36:
.LM116:
.LM117:
	addi	s4,s4,1
.LVL37:
.LM118:
	j	.L4
.LVL38:
.L6:
.LM119:
.LM120:
	blt	s4,s5,.L7
.LM121:
.LM122:
	or	a5,s6,s2
.LM123:
	li	s5,1
.LVL39:
.LM124:
	beq	a5,zero,.L7
	mv	s5,s4
	j	.L7
.LVL40:
.L49:
.LM125:
	li	a6,0
	j	.L11
.LVL41:
.L14:
.LM126:
.LM127:
	andi	a4,s3,4
.LM128:
	beq	a4,zero,.L17
.LM129:
.LVL42:
.LM130:
	li	a4,43
.LM131:
	bgeu	a6,s11,.L19
.LVL43:
.L89:
.LM132:
	sb	a4,0(s0)
.LM133:
	addi	s0,s0,1
	j	.L19
.LVL44:
.L17:
.LM134:
.LM135:
	andi	a4,s3,16
.LM136:
	beq	a4,zero,.L16
.LM137:
.LM138:
	bgeu	a6,s11,.L19
.LM139:
.LVL45:
.LM140:
	li	a4,32
	j	.L89
.LVL46:
.L28:
.LM141:
.LM142:
	sub	a1,a3,a4
	bleu	s11,a1,.L27
.LM143:
.LVL47:
.LM144:
	sb	a2,0(s0)
.LM145:
	addi	s0,s0,1
.LVL48:
.L27:
.LM146:
.LM147:
.LM148:
.LM149:
	addi	a4,a4,-1
.LVL49:
.L24:
.LM150:
	bgt	a4,s5,.L28
.LM151:
	slt	a3,s1,s5
	li	a4,0
.LVL50:
.LM152:
	blt	s1,s5,.L30
	sub	a4,s1,s5
.L30:
	add	a6,a6,a4
.LM153:
	li	a4,0
	bne	a3,zero,.L32
	sub	a4,s5,s1
.L32:
.LM154:
	add	s1,a4,s1
.LVL51:
.L26:
.LM155:
.LM156:
	add	a5,s4,a6
.LM157:
	add	s9,s0,s4
.LVL52:
.LM158:
.LM159:
	sw	a5,16(sp)
.LVL53:
.LM160:
.LM161:
.LM162:
.LM163:
.LM164:
	mv	s10,a5
.LVL54:
.LM165:
	srai	a5,s7,31
.LVL55:
.LM166:
	mv	s0,s8
.LM167:
	mv	a4,s9
.LM168:
	sw	a5,20(sp)
.LVL56:
.L33:
.LM169:
	bgt	s4,zero,.L38
.LM170:
	lw	a0,16(sp)
.LM171:
	srli	s3,s3,1
.LVL57:
.LM172:
	andi	s3,s3,1
	add	s1,s1,a0
.LVL58:
.LM173:
	li	a5,32
.LVL59:
.L39:
.LM174:
	sub	a4,s1,a0
.LM175:
	bge	s5,a4,.L1
.LM176:
	bne	s3,zero,.L41
.L1:
.LM177:
	lw	ra,92(sp)
	.cfi_remember_state
	.cfi_restore 1
	lw	s0,88(sp)
	.cfi_restore 8
.LVL60:
.LM178:
	lw	s1,84(sp)
	.cfi_restore 9
	lw	s2,80(sp)
	.cfi_restore 18
.LVL61:
.LM179:
	lw	s3,76(sp)
	.cfi_restore 19
	lw	s4,72(sp)
	.cfi_restore 20
.LVL62:
.LM180:
	lw	s5,68(sp)
	.cfi_restore 21
.LVL63:
.LM181:
	lw	s6,64(sp)
	.cfi_restore 22
.LM182:
	lw	s7,60(sp)
	.cfi_restore 23
.LVL64:
.LM183:
	lw	s8,56(sp)
	.cfi_restore 24
.LVL65:
.LM184:
	lw	s9,52(sp)
	.cfi_restore 25
.LVL66:
.LM185:
	lw	s10,48(sp)
	.cfi_restore 26
.LVL67:
.LM186:
	lw	s11,44(sp)
	.cfi_restore 27
.LVL68:
.LM187:
	addi	sp,sp,96
	.cfi_def_cfa_offset 0
.LVL69:
.LM188:
	jr	ra
.LVL70:
.L38:
	.cfi_restore_state
.LM189:
.LM190:
	beq	s0,zero,.L34
.LM191:
	addi	s0,s0,-1
.LVL71:
.L35:
.LM192:
.LM193:
	addi	a5,a4,-1
	sw	a5,24(sp)
.LVL72:
.LM194:
.LM195:
	addi	s10,s10,-1
.LVL73:
.LM196:
.LM197:
	addi	s4,s4,-1
.LVL74:
.LM198:
.LM199:
	bleu	s11,s10,.L37
.LM200:
.LM201:
	lw	a3,20(sp)
	mv	a2,s7
	mv	a0,s6
	mv	a1,s2
	sw	a4,28(sp)
	call	__umoddi3
.LVL75:
.LM202:
	lw	a5,12(sp)
.LM203:
	lw	a4,28(sp)
.LM204:
	add	a0,a5,a0
	lbu	a3,0(a0)
.LM205:
	sb	a3,-1(a4)
.L37:
.LM206:
.LM207:
	lw	a3,20(sp)
	mv	a0,s6
	mv	a1,s2
	mv	a2,s7
	call	__udivdi3
.LVL76:
.LM208:
	lw	a4,24(sp)
.LM209:
	mv	s6,a0
.LVL77:
.LM210:
	mv	s2,a1
.LVL78:
.LM211:
	j	.L33
.LVL79:
.L34:
.LM212:
	addi	s10,s10,-1
.LVL80:
.LM213:
	addi	a3,a4,-1
.LM214:
	addi	s4,s4,-1
.LVL81:
.LM215:
.LM216:
.LM217:
.LM218:
.LM219:
	bleu	s11,s10,.L36
.LM220:
.LM221:
	li	a5,95
	sb	a5,-1(a4)
.L36:
.LM222:
.LM223:
	addi	s0,s8,-1
.LVL82:
.LM224:
	mv	a4,a3
	j	.L35
.LVL83:
.L41:
.LM225:
.LM226:
	bgeu	a0,s11,.L40
.LM227:
.LVL84:
.LM228:
	sb	a5,0(s9)
.LM229:
	addi	s9,s9,1
.LVL85:
.L40:
.LM230:
.LM231:
	addi	a0,a0,1
.LVL86:
.LM232:
.LM233:
	j	.L39
	.cfi_endproc
.LFE4:
	.size	format_int, .-format_int
	.section	.text.cvt,"ax",@progbits
	.align	1
	.type	cvt, @function
cvt:
.LVL87:
.LFB5:
.LM234:
	.cfi_startproc
.LM235:
.LM236:
.LM237:
.LM238:
.LM239:
	addi	sp,sp,-96
	.cfi_def_cfa_offset 96
	sw	s0,88(sp)
	sw	s1,84(sp)
	sw	s2,80(sp)
	sw	s3,76(sp)
	sw	s4,72(sp)
	sw	s5,68(sp)
	sw	ra,92(sp)
	sw	s6,64(sp)
	sw	s7,60(sp)
	sw	s8,56(sp)
	sw	s9,52(sp)
	sw	s10,48(sp)
	sw	s11,44(sp)
	.cfi_offset 8, -8
	.cfi_offset 9, -12
	.cfi_offset 18, -16
	.cfi_offset 19, -20
	.cfi_offset 20, -24
	.cfi_offset 21, -28
	.cfi_offset 1, -4
	.cfi_offset 22, -32
	.cfi_offset 23, -36
	.cfi_offset 24, -40
	.cfi_offset 25, -44
	.cfi_offset 26, -48
	.cfi_offset 27, -52
.LM240:
	li	s0,78
.LM241:
	mv	s3,a0
	mv	s2,a1
	mv	s4,a3
	mv	s1,a5
	mv	s5,a6
.LM242:
	bgt	a2,s0,.L92
.LM243:
	not	s0,a2
	srai	s0,s0,31
	and	s0,a2,s0
.L92:
.LM244:
	li	a2,0
.LVL88:
.LM245:
	li	a3,0
.LVL89:
.LM246:
	mv	a0,s3
.LVL90:
.LM247:
	mv	a1,s2
	sw	a4,0(sp)
.LVL91:
.LM248:
.LM249:
.LM250:
.LM251:
.LM252:
	call	__ltdf2
.LVL92:
.LM253:
	lw	a4,0(sp)
	li	a5,0
	bge	a0,zero,.L93
.LVL93:
.LM254:
.LM255:
.LM256:
	li	a5,-2147483648
	xor	s2,s2,a5
.LVL94:
.LM257:
	li	a5,1
.LVL95:
.L93:
.LM258:
	addi	a2,sp,16
	mv	a0,s3
	mv	a1,s2
.LM259:
	sw	a5,0(a4)
.LVL96:
.LM260:
.LM261:
	call	modf
.LVL97:
.LM262:
	mv	s2,a0
.LVL98:
.LM263:
	mv	s3,a1
.LVL99:
.LM264:
.LM265:
.LM266:
	lw	a0,16(sp)
.LVL100:
.LM267:
	lw	a1,20(sp)
.LVL101:
.LM268:
	li	a2,0
	li	a3,0
	call	__nedf2
.LVL102:
	beq	a0,zero,.L124
.LM269:
.LM270:
	lui	a5,%hi(.LC0)
	lw	a6,%lo(.LC0+4)(a5)
	lw	a5,%lo(.LC0)(a5)
.LM271:
	addi	s9,s1,80
.LVL103:
.LM272:
.LM273:
	sw	a6,4(sp)
	sw	a5,0(sp)
.LVL104:
.LM274:
	lui	a5,%hi(.LC1)
	lw	a6,%lo(.LC1+4)(a5)
	lw	a5,%lo(.LC1)(a5)
.LM275:
	mv	s7,s9
.LM276:
	sw	a6,12(sp)
	sw	a5,8(sp)
.LVL105:
.L97:
.LM277:
	lw	a5,16(sp)
	lw	a6,20(sp)
	li	a2,0
	li	a3,0
	mv	a0,a5
	mv	a1,a6
	mv	s10,a5
	mv	s11,a6
	call	__nedf2
.LVL106:
	bne	a0,zero,.L98
.LM278:
	sub	s6,s9,s7
	mv	s8,s6
	mv	a5,s7
.LM279:
	mv	a4,s1
.LVL107:
.L99:
.LM280:
	bltu	a5,s9,.L100
.LM281:
	sgtu	s7,s7,s9
.LVL108:
.LM282:
	addi	s7,s7,-1
	and	s6,s6,s7
	add	s6,s1,s6
.LVL109:
.L103:
.LM283:
.LM284:
	add	s0,s1,s0
.LVL110:
.LM285:
.LM286:
	bne	s5,zero,.L106
.LM287:
.LM288:
	add	s0,s0,s8
.LVL111:
.L106:
.LM289:
.LM290:
	sw	s8,0(s4)
.LM291:
.LM292:
	bltu	s0,s1,.L126
.LM293:
	lui	a5,%hi(.LC0)
	lw	s8,%lo(.LC0)(a5)
.LVL112:
.LM294:
	lw	s9,%lo(.LC0+4)(a5)
.LM295:
	addi	s7,s1,80
.LVL113:
.L107:
.LM296:
	bgtu	s6,s0,.L109
.LM297:
	bltu	s6,s7,.L110
.L109:
.LM298:
.LM299:
	bltu	s0,s7,.L111
.LM300:
.LM301:
	sb	zero,79(s1)
.LM302:
.LM303:
	j	.L108
.LVL114:
.L98:
.LM304:
.LM305:
	lw	a2,0(sp)
	lw	a3,4(sp)
	mv	a0,s10
	mv	a1,s11
	call	__divdf3
.LVL115:
	addi	a2,sp,16
	call	modf
.LVL116:
.LM306:
	lw	a2,8(sp)
	lw	a3,12(sp)
.LM307:
	sw	a0,24(sp)
	sw	a1,28(sp)
.LM308:
.LM309:
	call	__adddf3
.LVL117:
.LM310:
	lw	a2,0(sp)
	lw	a3,4(sp)
.LM311:
	addi	s7,s7,-1
.LVL118:
.LM312:
	call	__muldf3
.LVL119:
.LM313:
	call	__fixdfsi
.LVL120:
.LM314:
	addi	a0,a0,48
.LM315:
	sb	a0,0(s7)
.LM316:
	j	.L97
.LVL121:
.L100:
.LM317:
.LM318:
	lbu	a3,0(a5)
.LM319:
	addi	a5,a5,1
.LVL122:
.LM320:
	addi	a4,a4,1
.LVL123:
.LM321:
	sb	a3,-1(a4)
	j	.L99
.LVL124:
.L124:
.LM322:
.LM323:
	li	a2,0
	li	a3,0
	mv	a0,s2
	mv	a1,s3
	call	__gtdf2
.LVL125:
.LM324:
	li	s8,0
.LM325:
	ble	a0,zero,.L128
.LM326:
	lui	a5,%hi(.LC0)
	lw	a6,%lo(.LC0+4)(a5)
	lw	a5,%lo(.LC0)(a5)
	sw	a6,4(sp)
	sw	a5,0(sp)
.LVL126:
.LM327:
	lui	a5,%hi(.LC2)
	lw	a6,%lo(.LC2+4)(a5)
	lw	a5,%lo(.LC2)(a5)
	mv	s10,a6
	mv	s9,a5
.LVL127:
.L104:
.LM328:
.LM329:
	lw	a2,0(sp)
	lw	a3,4(sp)
	mv	a0,s2
	mv	a1,s3
	call	__muldf3
.LVL128:
.LM330:
	mv	a2,s9
	mv	a3,s10
.LM331:
	mv	s7,a0
	mv	s6,a1
.LM332:
	call	__ltdf2
.LVL129:
	blt	a0,zero,.L105
	sw	s7,24(sp)
	sw	s6,28(sp)
.LVL130:
.L128:
.LM333:
	mv	s6,s1
	j	.L103
.LVL131:
.L105:
.LM334:
.LM335:
.LM336:
	addi	s8,s8,-1
.LVL132:
.LM337:
	mv	s2,s7
	mv	s3,s6
	j	.L104
.LVL133:
.L126:
.LM338:
.LM339:
	sb	zero,0(s1)
.LM340:
.LVL134:
.L108:
.LM341:
	lw	ra,92(sp)
	.cfi_remember_state
	.cfi_restore 1
	lw	s0,88(sp)
	.cfi_restore 8
	lw	s2,80(sp)
	.cfi_restore 18
	lw	s3,76(sp)
	.cfi_restore 19
	lw	s4,72(sp)
	.cfi_restore 20
.LVL135:
.LM342:
	lw	s5,68(sp)
	.cfi_restore 21
.LVL136:
.LM343:
	lw	s6,64(sp)
	.cfi_restore 22
	lw	s7,60(sp)
	.cfi_restore 23
	lw	s8,56(sp)
	.cfi_restore 24
	lw	s9,52(sp)
	.cfi_restore 25
	lw	s10,48(sp)
	.cfi_restore 26
	lw	s11,44(sp)
	.cfi_restore 27
	mv	a0,s1
	lw	s1,84(sp)
	.cfi_restore 9
.LVL137:
.LM344:
	addi	sp,sp,96
	.cfi_def_cfa_offset 0
	jr	ra
.LVL138:
.L110:
	.cfi_restore_state
.LM345:
.LM346:
	mv	a3,s9
	mv	a2,s8
	mv	a0,s2
	mv	a1,s3
	call	__muldf3
.LVL139:
.LM347:
.LM348:
	addi	a2,sp,24
	call	modf
.LVL140:
.LM349:
	mv	s2,a0
	mv	s3,a1
.LVL141:
.LM350:
.LM351:
	lw	a0,24(sp)
.LVL142:
.LM352:
	lw	a1,28(sp)
.LVL143:
.LM353:
	addi	s6,s6,1
.LVL144:
.LM354:
	call	__fixdfsi
.LVL145:
.LM355:
	addi	a0,a0,48
.LM356:
	sb	a0,-1(s6)
	j	.L107
.L111:
.LM357:
.LVL146:
.LM358:
.LM359:
	lbu	a5,0(s0)
.LM360:
	li	a2,57
.LM361:
	li	a3,48
.LM362:
	addi	a5,a5,5
	sb	a5,0(s0)
.LM363:
.LM364:
	li	a1,49
.LM365:
	mv	a5,s0
.LVL147:
.L112:
.LM366:
	lbu	a4,0(a5)
	bgtu	a4,a2,.L116
.LM367:
.LM368:
	sb	zero,0(s0)
.LM369:
.LM370:
	j	.L108
.L116:
.LM371:
.LM372:
	sb	a3,0(a5)
.LM373:
.LM374:
	bleu	a5,s1,.L113
.LM375:
.LVL148:
.LM376:
	lbu	a4,-1(a5)
	addi	a5,a5,-1
.LVL149:
.LM377:
	addi	a4,a4,1
	sb	a4,0(a5)
	j	.L112
.L113:
.LM378:
.LM379:
	sb	a1,0(a5)
.LM380:
.LM381:
	lw	a4,0(s4)
	addi	a4,a4,1
	sw	a4,0(s4)
.LM382:
.LM383:
	bne	s5,zero,.L112
.LM384:
.LM385:
	bleu	s0,s1,.L115
.LM386:
.LM387:
	sb	a3,0(s0)
.L115:
.LM388:
.LM389:
	addi	s0,s0,1
.LVL150:
.LM390:
	j	.L112
	.cfi_endproc
.LFE5:
	.size	cvt, .-cvt
	.section	.text.ecvtbuf,"ax",@progbits
	.align	1
	.globl	ecvtbuf
	.type	ecvtbuf, @function
ecvtbuf:
.LVL151:
.LFB6:
.LM391:
	.cfi_startproc
.LM392:
.LM393:
	li	a6,1
	tail	cvt
.LVL152:
.LM394:
	.cfi_endproc
.LFE6:
	.size	ecvtbuf, .-ecvtbuf
	.section	.text.fcvtbuf,"ax",@progbits
	.align	1
	.globl	fcvtbuf
	.type	fcvtbuf, @function
fcvtbuf:
.LVL153:
.LFB7:
.LM395:
	.cfi_startproc
.LM396:
.LM397:
	li	a6,0
	tail	cvt
.LVL154:
.LM398:
	.cfi_endproc
.LFE7:
	.size	fcvtbuf, .-fcvtbuf
	.section	.text.flt,"ax",@progbits
	.align	1
	.type	flt, @function
flt:
.LVL155:
.LFB12:
.LM399:
	.cfi_startproc
.LM400:
.LM401:
.LM402:
.LM403:
.LM404:
	addi	sp,sp,-256
	.cfi_def_cfa_offset 256
	sw	s5,228(sp)
	.cfi_offset 21, -28
	mv	s5,a5
.LM405:
	andi	a5,a6,16
.LVL156:
.LM406:
	sw	s1,244(sp)
	sw	s3,236(sp)
	sw	s7,220(sp)
	sw	s8,216(sp)
	sw	s9,212(sp)
	sw	s10,208(sp)
	sw	ra,252(sp)
	sw	s0,248(sp)
	sw	s2,240(sp)
	sw	s4,232(sp)
	sw	s6,224(sp)
	sw	s11,204(sp)
	.cfi_offset 9, -12
	.cfi_offset 19, -20
	.cfi_offset 23, -36
	.cfi_offset 24, -40
	.cfi_offset 25, -44
	.cfi_offset 26, -48
	.cfi_offset 1, -4
	.cfi_offset 8, -8
	.cfi_offset 18, -16
	.cfi_offset 20, -24
	.cfi_offset 22, -32
	.cfi_offset 27, -52
.LM407:
	sw	a5,12(sp)
.LM408:
	mv	s8,a0
	mv	s10,a1
	mv	s7,a2
	mv	s1,a3
	mv	s9,a4
	mv	s3,a6
.LM409:
	beq	a5,zero,.L132
.LM410:
.LM411:
	andi	s3,a6,-2
.LVL157:
.LM412:
.LM413:
	li	s4,32
.L133:
.LVL158:
.LM414:
.LM415:
.LM416:
	andi	a5,s3,2
.LM417:
	li	s6,0
.LM418:
	beq	a5,zero,.L134
.LM419:
.LM420:
	li	a2,0
	li	a3,0
.LVL159:
.LM421:
	mv	a0,s10
.LVL160:
.LM422:
	mv	a1,s7
.LVL161:
.LM423:
	call	__ltdf2
.LVL162:
.LM424:
	bge	a0,zero,.L246
.LM425:
.LVL163:
.LM426:
.LM427:
	li	a5,-2147483648
	xor	s7,s7,a5
.LVL164:
.LM428:
.LM429:
	addi	s1,s1,-1
.LVL165:
.LM430:
	li	s6,45
.LVL166:
.L134:
.LM431:
.LM432:
	bge	s9,zero,.L138
.LM433:
	li	s9,6
.LVL167:
.L138:
.LM434:
.LBB11:
.LBI11:
.LM435:
.LBB12:
.LM436:
.LM437:
.LM438:
.LM439:
.LM440:
.LM441:
.LM442:
	li	a5,71
	beq	s5,a5,.L205
.LM443:
	li	a5,69
	beq	s5,a5,.L206
.LM444:
.LM445:
	li	a5,103
	li	s11,0
	beq	s5,a5,.L139
.LVL168:
.LM446:
.LM447:
	li	a5,101
	bne	s5,a5,.L145
	mv	s0,s9
	li	s11,0
	j	.L140
.LVL169:
.L132:
.LM448:
.LBE12:
.LBE11:
.LM449:
.LM450:
	andi	s4,a6,1
.LM451:
	addi	s4,s4,-1
	andi	s4,s4,-16
	addi	s4,s4,48
	j	.L133
.LVL170:
.L246:
.LM452:
.LM453:
	andi	a5,s3,4
.LM454:
	beq	a5,zero,.L137
.LM455:
.LVL171:
.LM456:
.LM457:
	addi	s1,s1,-1
.LVL172:
.LM458:
	li	s6,43
	j	.L134
.LVL173:
.L137:
.LM459:
.LM460:
	andi	a5,s3,8
.LM461:
	beq	a5,zero,.L134
.LM462:
.LVL174:
.LM463:
.LM464:
	addi	s1,s1,-1
.LVL175:
.LM465:
	li	s6,32
	j	.L134
.LVL176:
.L205:
.LBB20:
.LBB17:
.LM466:
	li	s11,1
.L139:
.LVL177:
.LM467:
.LM468:
	addi	a5,sp,112
	addi	a4,sp,28
	addi	a3,sp,24
	mv	a2,s9
	mv	a0,s10
	mv	a1,s7
	call	ecvtbuf
.LVL178:
.LM469:
.LM470:
	lw	s0,24(sp)
.LM471:
	addi	a5,s0,-1
.LVL179:
.LM472:
.LM473:
	slti	a4,a5,-4
	bne	a4,zero,.L216
	bgt	s9,a5,.L142
.L216:
.LM474:
.LVL180:
.LM475:
.LM476:
	addi	s0,s9,-1
.LVL181:
.LM477:
.L140:
.LM478:
.LM479:
	addi	a5,sp,112
	addi	a4,sp,28
	addi	a3,sp,24
	addi	a2,s0,1
	mv	a0,s10
	mv	a1,s7
	call	ecvtbuf
.LVL182:
.LM480:
.LM481:
	lw	a4,28(sp)
	addi	a5,sp,32
.LVL183:
.LM482:
	beq	a4,zero,.L146
.LM483:
.LVL184:
.LM484:
	li	a5,45
	sb	a5,32(sp)
.LM485:
	addi	a5,sp,33
.LVL185:
.L146:
.LM486:
.LM487:
	lbu	a4,0(a0)
.LM488:
	addi	a1,a5,1
.LVL186:
.LM489:
	sb	a4,0(a5)
.LM490:
.LM491:
	ble	s0,zero,.L148
.LM492:
.LM493:
	li	a4,46
.LM494:
	addi	a1,a5,2
.LVL187:
.LM495:
	sb	a4,1(a5)
.L148:
.LM496:
	addi	a0,a0,1
.LVL188:
.LBB13:
.LBI13:
.LM497:
.LBB14:
.LM498:
.LM499:
	add	a4,a0,s0
.LVL189:
.LM500:
	mv	a5,a1
.LVL190:
.L149:
.LM501:
	bne	a4,a0,.L150
.LVL191:
.LM502:
.LBE14:
.LBE13:
.LM503:
.LM504:
	addi	a5,s11,-1
	andi	a5,a5,32
.LM505:
	lw	s2,24(sp)
.LM506:
	add	s0,a1,s0
.LVL192:
.LM507:
.LM508:
	addi	a5,a5,69
.LVL193:
.LM509:
	sb	a5,0(s0)
.LM510:
.LM511:
	bne	s2,zero,.L152
.LM512:
.LM513:
	li	a2,0
	li	a3,0
	mv	a0,s10
	mv	a1,s7
	call	__eqdf2
.LVL194:
	beq	a0,zero,.L153
.LM514:
	li	s2,-1
.L154:
.LM515:
.LVL195:
.LM516:
.LM517:
	neg	s2,s2
.LVL196:
.LM518:
	li	a5,45
.LVL197:
.L155:
.LM519:
	sb	a5,1(s0)
.LVL198:
.LM520:
.LM521:
	li	a5,10
	rem	a4,s2,a5
.LM522:
	addi	a1,s0,5
.LM523:
	div	s2,s2,a5
.LVL199:
.LM524:
	addi	a4,a4,48
.LM525:
	sb	a4,4(s0)
.LM526:
.LVL200:
.LM527:
.LM528:
	rem	a4,s2,a5
.LM529:
	div	s2,s2,a5
.LVL201:
.LM530:
	addi	a4,a4,48
.LM531:
	sb	a4,3(s0)
.LM532:
.LVL202:
.LM533:
.LM534:
	rem	s2,s2,a5
.LM535:
	addi	s2,s2,48
.LM536:
	sb	s2,2(s0)
.LM537:
.LVL203:
.L156:
.LM538:
.LBE17:
.LBE20:
.LM539:
	andi	a5,s3,32
.LBB21:
.LBB18:
.LM540:
	sb	zero,0(a1)
.LVL204:
.LM541:
.LBE18:
.LBE21:
.LM542:
.LM543:
	srli	a4,a5,5
	addi	s2,sp,32
.LM544:
	beq	a5,zero,.L170
	bne	s9,zero,.L170
	mv	s0,s2
	li	a4,46
.LBB22:
.LBB23:
.LM545:
	li	a3,101
.LM546:
	li	a2,69
	j	.L168
.LVL205:
.L142:
.LM547:
.LBE23:
.LBE22:
.LBB28:
.LBB19:
.LM548:
.LM549:
.LM550:
	sub	s0,s9,s0
.LVL206:
.LM551:
.LM552:
.L144:
.LM553:
.LM554:
	addi	a5,sp,112
	mv	a1,s7
	addi	a4,sp,28
	addi	a3,sp,24
	mv	a2,s0
	mv	a0,s10
	call	fcvtbuf
.LVL207:
.LM555:
.LM556:
	lw	a5,28(sp)
	addi	a1,sp,32
.LVL208:
.LM557:
	beq	a5,zero,.L157
.LM558:
.LVL209:
.LM559:
	li	a5,45
	sb	a5,32(sp)
.LM560:
	addi	a1,sp,33
.LVL210:
.L157:
.LM561:
.LM562:
	lbu	a5,0(a0)
	beq	a5,zero,.L158
.LM563:
.LM564:
	lw	a5,24(sp)
.LM565:
	mv	a4,a0
.LM566:
	li	a2,46
.LM567:
	bgt	a5,zero,.L159
.LM568:
.LM569:
	li	a3,48
.LM570:
	sb	a2,1(a1)
.LM571:
	sb	a3,0(a1)
.LM572:
.LM573:
	addi	a4,a1,2
.LVL211:
.LM574:
.LM575:
	sub	a2,a1,a5
.LVL212:
.L160:
.LM576:
	bne	a1,a2,.L161
.LVL213:
.LM577:
	sub	a1,a4,a5
.LVL214:
.LM578:
	sub	a5,a5,a4
.LVL215:
.L162:
.LM579:
	add	a4,a1,a5
	add	a4,a0,a4
	lbu	a4,0(a4)
	beq	a4,zero,.L156
.LM580:
.LVL216:
.LM581:
	sb	a4,0(a1)
.LM582:
	addi	a1,a1,1
.LVL217:
.LM583:
	j	.L162
.LVL218:
.L206:
.LM584:
	mv	s0,s9
.LM585:
	li	s11,1
	j	.L140
.LVL219:
.L150:
.LBB16:
.LBB15:
.LM586:
.LM587:
	lbu	a3,0(a0)
.LM588:
	addi	a0,a0,1
.LVL220:
.LM589:
	addi	a5,a5,1
.LM590:
	sb	a3,-1(a5)
	j	.L149
.LVL221:
.L152:
.LM591:
.LBE15:
.LBE16:
.LM592:
.LM593:
	addi	s2,s2,-1
.LVL222:
.LM594:
.LM595:
	blt	s2,zero,.L154
.LVL223:
.L153:
.LM596:
.LM597:
	li	a5,43
	j	.L155
.LVL224:
.L145:
.LM598:
.LM599:
	li	a5,102
	addi	a1,sp,32
.LVL225:
.LM600:
	bne	s5,a5,.L156
	mv	s0,s9
	j	.L144
.LVL226:
.L161:
.LM601:
.LM602:
	sb	a3,2(a1)
.LM603:
.LM604:
	addi	a1,a1,1
.LVL227:
.LM605:
	j	.L160
.LVL228:
.L165:
.LM606:
.LM607:
	sub	a3,a4,a0
	bne	a5,a3,.L164
.LM608:
.LM609:
	sb	a2,0(a1)
.LVL229:
.LM610:
	addi	a1,a1,1
.LVL230:
.L164:
.LM611:
.LM612:
	lbu	a3,0(a4)
.LM613:
	addi	a4,a4,1
.LVL231:
.LM614:
	addi	a1,a1,1
.LVL232:
.LM615:
	sb	a3,-1(a1)
.LVL233:
.L159:
.LM616:
	lbu	a3,0(a4)
	bne	a3,zero,.L165
.LM617:
	j	.L156
.LVL234:
.L158:
.LM618:
.LM619:
	li	a5,48
	sb	a5,0(a1)
.LM620:
.LM621:
	bgt	s0,zero,.L166
.LVL235:
.LM622:
	addi	a1,a1,1
.LVL236:
.LM623:
	j	.L156
.LVL237:
.L166:
.LM624:
.LM625:
	li	a3,46
	sb	a3,1(a1)
.LM626:
	addi	a4,a1,2
.LVL238:
.LM627:
.LM628:
	add	a3,a1,s0
.LVL239:
.L167:
.LM629:
.LM630:
	sb	a5,2(a1)
.LM631:
.LM632:
	addi	a1,a1,1
.LVL240:
.LM633:
	bne	a1,a3,.L167
	add	a1,a4,s0
.LVL241:
.LM634:
	j	.L156
.LVL242:
.L173:
.LM635:
.LBE19:
.LBE28:
.LBB29:
.LBB26:
.LM636:
.LM637:
	beq	a5,a4,.L171
.LM638:
.LM639:
	beq	a5,a3,.L172
.LM640:
	beq	a5,a2,.L172
.LM641:
.LM642:
	addi	s0,s0,1
.LVL243:
.L168:
.LM643:
	lbu	a5,0(s0)
	bne	a5,zero,.L173
.LM644:
.LM645:
.LVL244:
.LM646:
	sb	a4,0(s0)
.LM647:
.LM648:
	sb	zero,1(s0)
	j	.L171
.LVL245:
.L175:
.LBB24:
.LM649:
.LM650:
	lbu	a5,0(a0)
.LVL246:
.LM651:
	addi	a0,a0,-1
.LVL247:
.LM652:
	sb	a5,2(a0)
.LM653:
.LVL248:
.L200:
.LM654:
	sub	a5,a0,s0
.LVL249:
.LM655:
	bgt	a5,zero,.L175
.LM656:
.LM657:
	li	a5,46
.LVL250:
.LM658:
	sb	a5,0(s0)
.LVL251:
.L171:
.LM659:
.LBE24:
.LBE26:
.LBE29:
.LM660:
.LM661:
.LM662:
	li	a1,256
	mv	a0,s2
	call	strnlen
.LVL252:
.LM663:
.LM664:
	andi	s3,s3,17
.LVL253:
.LM665:
	sub	s1,s1,a0
.LVL254:
.LM666:
.LM667:
	bne	s3,zero,.L199
	mv	a5,s8
.LM668:
	add	a3,s8,s1
.LM669:
	li	a2,32
	j	.L198
.LVL255:
.L170:
.LM670:
.LM671:
	addi	s5,s5,-103
.LM672:
	bne	s5,zero,.L171
	bne	a4,zero,.L171
	mv	a4,s2
.LBB30:
.LBB31:
.LM673:
	li	a3,46
.L176:
.LVL256:
.LM674:
.LM675:
	lbu	a5,0(a4)
.LM676:
	beq	a5,zero,.L171
.LM677:
	addi	a4,a4,1
.LVL257:
.LM678:
	bne	a5,a3,.L176
.LVL258:
.L177:
.LM679:
.LM680:
	lbu	a3,0(a4)
.LM681:
	andi	a5,a3,223
	addi	a5,a5,-69
	beq	a5,zero,.L217
	bne	a3,zero,.L178
.L217:
.LM682:
.LM683:
	addi	a5,a4,-1
.LVL259:
.LM684:
.LM685:
	li	a2,48
.LVL260:
.L180:
.LM686:
.LM687:
	lbu	a3,0(a5)
.LM688:
	beq	a3,a2,.L181
.LM689:
.LM690:
	addi	a3,a3,-46
	seqz	a3,a3
	sub	a5,a5,a3
.LVL261:
.L183:
.LM691:
	beq	a4,a5,.L171
.LM692:
.LM693:
	addi	a5,a5,1
.LVL262:
.LM694:
	sb	zero,0(a5)
	j	.L183
.LVL263:
.L178:
.LM695:
.LM696:
	addi	a4,a4,1
.LVL264:
.LM697:
	j	.L177
.LVL265:
.L181:
.LM698:
.LM699:
	addi	a5,a5,-1
.LVL266:
.LM700:
	j	.L180
.LVL267:
.L185:
.LM701:
.LBE31:
.LBE30:
.LM702:
.LM703:
	addi	a5,a5,1
.LVL268:
.LM704:
	sb	a2,-1(a5)
.LVL269:
.L198:
.LM705:
.LM706:
	sub	a4,a3,a5
	bgt	a4,zero,.L185
.LM707:
	not	a5,s1
.LVL270:
.LM708:
	srai	a5,a5,31
	and	a5,s1,a5
	addi	s1,s1,-1
	sub	s1,s1,a5
	add	s8,s8,a5
.LVL271:
.L199:
.LM709:
.LM710:
	beq	s6,zero,.L187
.LM711:
.LVL272:
.LM712:
	sb	s6,0(s8)
.LM713:
	addi	s8,s8,1
.LVL273:
.L187:
.LM714:
.LM715:
	lw	a5,12(sp)
	beq	a5,zero,.L213
.LVL274:
.L189:
.LM716:
.LM717:
	li	a5,0
.LVL275:
.L192:
.LM718:
	blt	a5,a0,.L193
	not	a5,a0
.LVL276:
.LM719:
	srai	a5,a5,31
	and	a5,a0,a5
	add	a5,s8,a5
	mv	a4,s1
	add	a2,s1,a5
.LM720:
	li	a1,32
.LVL277:
.L195:
.LM721:
.LM722:
	bgt	a4,zero,.L196
.LM723:
.LM724:
	lw	ra,252(sp)
	.cfi_remember_state
	.cfi_restore 1
	lw	s0,248(sp)
	.cfi_restore 8
.LM725:
	not	a0,s1
.LVL278:
.LM726:
	srai	a0,a0,31
	and	a0,s1,a0
.LM727:
	lw	s2,240(sp)
	.cfi_restore 18
	lw	s1,244(sp)
	.cfi_restore 9
.LVL279:
.LM728:
	lw	s3,236(sp)
	.cfi_restore 19
	lw	s4,232(sp)
	.cfi_restore 20
.LVL280:
.LM729:
	lw	s5,228(sp)
	.cfi_restore 21
	lw	s6,224(sp)
	.cfi_restore 22
.LVL281:
.LM730:
	lw	s7,220(sp)
	.cfi_restore 23
.LVL282:
.LM731:
	lw	s8,216(sp)
	.cfi_restore 24
	lw	s9,212(sp)
	.cfi_restore 25
.LVL283:
.LM732:
	lw	s10,208(sp)
	.cfi_restore 26
.LM733:
	lw	s11,204(sp)
	.cfi_restore 27
.LM734:
	add	a0,a0,a5
.LM735:
	addi	sp,sp,256
	.cfi_def_cfa_offset 0
	jr	ra
.LVL284:
.L190:
	.cfi_restore_state
.LM736:
.LM737:
	addi	a5,a5,1
.LVL285:
.LM738:
	sb	s4,-1(a5)
.LVL286:
.L188:
.LM739:
.LM740:
	sub	a4,a3,a5
	bgt	a4,zero,.L190
.LM741:
	not	a5,s1
.LVL287:
.LM742:
	srai	a5,a5,31
	and	a5,s1,a5
	addi	s1,s1,-1
	sub	s1,s1,a5
	add	s8,s8,a5
	j	.L189
.LVL288:
.L213:
.LM743:
	mv	a5,s8
	add	a3,s8,s1
	j	.L188
.LVL289:
.L193:
.LM744:
.LM745:
	add	a3,s2,a5
.LM746:
	lbu	a3,0(a3)
	add	a4,s8,a5
.LM747:
	addi	a5,a5,1
.LVL290:
.LM748:
	sb	a3,0(a4)
.LM749:
	j	.L192
.LVL291:
.L196:
.LM750:
.LM751:
	sub	a3,a2,a4
.LM752:
	sb	a1,0(a3)
	addi	a4,a4,-1
.LVL292:
.LM753:
	j	.L195
.LVL293:
.L172:
.LBB32:
.LBB27:
.LM754:
.LBB25:
.LM755:
.LM756:
	li	a1,256
	mv	a0,s0
	call	strnlen
.LVL294:
.LM757:
	add	a0,s0,a0
.LVL295:
.LM758:
	j	.L200
.LBE25:
.LBE27:
.LBE32:
	.cfi_endproc
.LFE12:
	.size	flt, .-flt
	.section	.rodata.vsnprintf.str1.4,"aMS",@progbits,1
	.align	2
.LC3:
	.string	"(null)"
	.section	.text.vsnprintf,"ax",@progbits
	.align	1
	.globl	vsnprintf
	.type	vsnprintf, @function
vsnprintf:
.LVL296:
.LFB13:
.LM759:
	.cfi_startproc
.LM760:
	addi	sp,sp,-112
	.cfi_def_cfa_offset 112
	sw	ra,108(sp)
	sw	s3,92(sp)
	sw	s4,88(sp)
	sw	s6,80(sp)
	.cfi_offset 1, -4
	.cfi_offset 19, -20
	.cfi_offset 20, -24
	.cfi_offset 22, -32
	sw	a0,16(sp)
	mv	s3,a1
	sw	a3,8(sp)
.LM761:
.LM762:
.LM763:
.LM764:
.LM765:
.LM766:
.LM767:
.LM768:
.LM769:
.LM770:
.LM771:
.LM772:
.LM773:
.LM774:
.LM775:
.LM776:
.LVL297:
.LM777:
.LM778:
	lbu	a5,0(a2)
.LVL298:
.LM779:
	beq	a5,zero,.L252
	sw	s0,104(sp)
	sw	s1,100(sp)
	sw	s2,96(sp)
	sw	s5,84(sp)
	sw	s7,76(sp)
	sw	s8,72(sp)
	sw	s9,68(sp)
	sw	s10,64(sp)
	sw	s11,60(sp)
	.cfi_offset 8, -8
	.cfi_offset 9, -12
	.cfi_offset 18, -16
	.cfi_offset 21, -28
	.cfi_offset 23, -36
	.cfi_offset 24, -40
	.cfi_offset 25, -44
	.cfi_offset 26, -48
	.cfi_offset 27, -52
.LM780:
	addi	s0,a2,1
.LVL299:
.LM781:
	mv	s6,a0
.LM782:
	li	a3,0
.LVL300:
.LM783:
	li	s5,0
.LM784:
	li	s7,-1
.LM785:
	li	s9,0
.LM786:
	li	s10,0
.LM787:
	sw	zero,20(sp)
	sw	zero,24(sp)
.LM788:
	li	s4,0
.LM789:
	li	s2,4
	lui	s1,%hi(.L255)
	addi	s1,s1,%lo(.L255)
.LM790:
	li	s11,46
.LM791:
	li	s8,9
.LM792:
	lui	a4,%hi(.L262)
	addi	a4,a4,%lo(.L262)
	sw	a4,12(sp)
	j	.L328
.LVL301:
.L259:
.LM793:
.LM794:
	li	a4,37
	beq	a5,a4,.L333
.LM795:
.LM796:
	bleu	s3,s4,.L260
.LM797:
.LVL302:
.LM798:
	sb	a5,0(s6)
.LM799:
	addi	s6,s6,1
.LVL303:
.L260:
.LM800:
.LM801:
	addi	s4,s4,1
.LVL304:
.LM802:
	mv	a2,s0
.LVL305:
.L253:
.LM803:
.LM804:
	addi	s0,a2,1
.LVL306:
.LM805:
	lbu	a5,0(a2)
.LVL307:
.LM806:
	beq	a5,zero,.L354
.LVL308:
.L328:
.LM807:
	bgtu	a3,s2,.L332
.LM808:
	slli	a4,a3,2
	add	a4,a4,s1
	lw	a4,0(a4)
	jr	a4
	.section	.rodata.vsnprintf,"a",@progbits
	.align	2
	.align	2
.L255:
	.word	.L259
	.word	.L258
	.word	.L257
	.word	.L256
	.word	.L254
	.section	.text.vsnprintf
.L258:
.LM809:
	addi	a5,a5,-32
.LVL309:
.LM810:
	andi	a1,a5,0xff
	li	a4,16
	bgtu	a1,a4,.L334
	slli	a5,a1,2
	lw	a4,12(sp)
	add	a5,a5,a4
	lw	a5,0(a5)
	jr	a5
	.section	.rodata.vsnprintf
	.align	2
	.align	2
.L262:
	.word	.L267
	.word	.L334
	.word	.L334
	.word	.L266
	.word	.L334
	.word	.L334
	.word	.L334
	.word	.L265
	.word	.L334
	.word	.L334
	.word	.L334
	.word	.L264
	.word	.L334
	.word	.L263
	.word	.L334
	.word	.L334
	.word	.L261
	.section	.text.vsnprintf
.L263:
.LM811:
.LM812:
	ori	s5,s5,2
.LVL310:
.LM813:
.LM814:
	mv	a2,s0
.LM815:
	j	.L253
.L264:
.LM816:
.LM817:
	ori	s5,s5,4
.LVL311:
.LM818:
.LM819:
	mv	a2,s0
.LM820:
	j	.L253
.L265:
.LM821:
.LM822:
	ori	s5,s5,8
.LVL312:
.LM823:
.LM824:
	mv	a2,s0
.LM825:
	j	.L253
.L267:
.LM826:
.LM827:
	ori	s5,s5,16
.LVL313:
.LM828:
.LM829:
	mv	a2,s0
.LM830:
	j	.L253
.L266:
.LM831:
.LM832:
	ori	s5,s5,32
.LVL314:
.LM833:
.LM834:
	mv	a2,s0
.LM835:
	j	.L253
.L261:
.LM836:
.LM837:
	ori	s5,s5,1
.LVL315:
.LM838:
.LM839:
	mv	a2,s0
.LM840:
	j	.L253
.LVL316:
.L257:
.LM841:
.LM842:
	addi	a4,a5,-48
.LM843:
	andi	a4,a4,0xff
	bgtu	a4,s8,.L268
.LM844:
.LM845:
	li	a4,10
	mul	a4,s9,a4
.LM846:
	addi	a5,a5,-48
.LVL317:
.LM847:
	add	s9,a5,a4
.LVL318:
.LM848:
	mv	a2,s0
	j	.L253
.LVL319:
.L268:
.LM849:
.LM850:
	li	a4,42
	beq	a5,a4,.L355
.LM851:
.LM852:
	li	a4,46
	beq	a5,a4,.L356
.LM853:
	li	a3,4
.LVL320:
.LM854:
	j	.L253
.LVL321:
.L355:
.LM855:
.LM856:
	lw	a4,8(sp)
	addi	a5,a4,4
.LVL322:
.LM857:
	lw	s9,0(a4)
.LVL323:
.LM858:
.LM859:
	blt	s9,zero,.L357
.LM860:
	sw	a5,8(sp)
.LM861:
	mv	a2,s0
	j	.L253
.L357:
.LM862:
.LM863:
	neg	s9,s9
.LVL324:
.LM864:
.LM865:
	ori	s5,s5,2
.LVL325:
.LM866:
	sw	a5,8(sp)
.LM867:
	mv	a2,s0
	j	.L253
.LVL326:
.L356:
.LM868:
	mv	a2,s0
.LM869:
	li	a3,3
.LVL327:
.LM870:
	li	s7,0
.LVL328:
.LM871:
	j	.L253
.LVL329:
.L256:
.LM872:
.LM873:
	addi	a4,a5,-48
.LM874:
	andi	a4,a4,0xff
	bgtu	a4,s8,.L270
.LM875:
.LM876:
	li	a4,10
	mul	a4,s7,a4
.LM877:
	addi	a5,a5,-48
.LVL330:
.LM878:
	add	s7,a5,a4
.LVL331:
.LM879:
	mv	a2,s0
	j	.L253
.LVL332:
.L270:
.LM880:
.LM881:
	li	a4,42
	beq	a5,a4,.L358
.LM882:
	li	a3,4
.LVL333:
.LM883:
	j	.L253
.LVL334:
.L358:
.LM884:
.LM885:
	lw	a4,8(sp)
	addi	a5,a4,4
.LVL335:
.LM886:
.LM887:
	lw	s7,0(a4)
	blt	s7,zero,.L359
.L271:
.LM888:
	sw	a5,8(sp)
.LM889:
	mv	a2,s0
	j	.L253
.L359:
.LM890:
	li	s7,-1
	j	.L271
.LVL336:
.L254:
.LM891:
	addi	a4,a5,-76
	andi	a2,a4,0xff
	bgtu	a2,s11,.L272
	slli	a4,a2,2
	lui	a2,%hi(.L273)
	addi	a2,a2,%lo(.L273)
	add	a4,a4,a2
	lw	a4,0(a4)
	jr	a4
	.section	.rodata.vsnprintf
	.align	2
	.align	2
.L273:
	.word	.L274
	.word	.L272
	.word	.L272
	.word	.L272
	.word	.L272
	.word	.L272
	.word	.L272
	.word	.L272
	.word	.L272
	.word	.L272
	.word	.L272
	.word	.L272
	.word	.L272
	.word	.L272
	.word	.L272
	.word	.L272
	.word	.L272
	.word	.L272
	.word	.L272
	.word	.L272
	.word	.L272
	.word	.L272
	.word	.L272
	.word	.L272
	.word	.L272
	.word	.L272
	.word	.L272
	.word	.L272
	.word	.L277
	.word	.L272
	.word	.L276
	.word	.L272
	.word	.L275
	.word	.L272
	.word	.L272
	.word	.L272
	.word	.L272
	.word	.L274
	.word	.L272
	.word	.L272
	.word	.L338
	.word	.L272
	.word	.L272
	.word	.L272
	.word	.L272
	.word	.L272
	.word	.L338
	.section	.text.vsnprintf
.L276:
.LM892:
	mv	a2,s0
.LM893:
	li	s10,2
.LVL337:
.LM894:
	j	.L253
.LVL338:
.L277:
.LM895:
.LM896:
	addi	s10,s10,-1
.LVL339:
.LM897:
.LM898:
	mv	a2,s0
.LM899:
	j	.L253
.L275:
.LM900:
.LM901:
	addi	s10,s10,1
.LVL340:
.LM902:
.LM903:
	mv	a2,s0
.LM904:
	j	.L253
.L274:
.LM905:
.LM906:
	addi	s10,s10,2
.LVL341:
.LM907:
.LM908:
	mv	a2,s0
.LM909:
	j	.L253
.L272:
.LM910:
.LVL342:
.LM911:
.LM912:
	li	a4,2
	ble	s10,a4,.L278
	mv	s10,a4
.LVL343:
.L278:
.LM913:
	li	a4,-2
	bge	s10,a4,.L279
	mv	s10,a4
.L279:
.LVL344:
.LM914:
	addi	a4,a5,-80
	andi	a2,a4,0xff
	li	a3,40
	bgtu	a2,a3,.L280
	slli	a4,a2,2
	lui	a3,%hi(.L282)
	addi	a3,a3,%lo(.L282)
	add	a4,a4,a3
	lw	a4,0(a4)
	jr	a4
	.section	.rodata.vsnprintf
	.align	2
	.align	2
.L282:
	.word	.L292
	.word	.L280
	.word	.L280
	.word	.L280
	.word	.L280
	.word	.L280
	.word	.L280
	.word	.L280
	.word	.L291
	.word	.L280
	.word	.L280
	.word	.L280
	.word	.L280
	.word	.L280
	.word	.L280
	.word	.L280
	.word	.L280
	.word	.L280
	.word	.L280
	.word	.L290
	.word	.L288
	.word	.L280
	.word	.L289
	.word	.L280
	.word	.L280
	.word	.L288
	.word	.L280
	.word	.L280
	.word	.L280
	.word	.L280
	.word	.L287
	.word	.L286
	.word	.L285
	.word	.L280
	.word	.L280
	.word	.L284
	.word	.L280
	.word	.L283
	.word	.L280
	.word	.L280
	.word	.L339
	.section	.text.vsnprintf
.L286:
.LM915:
	li	a5,8
.LVL345:
.LM916:
	j	.L281
.LVL346:
.L292:
.LM917:
.LM918:
	ori	s5,s5,128
.LVL347:
.L285:
.LM919:
.LM920:
.LM921:
.LM922:
.LM923:
	ori	s5,s5,32
.LVL348:
.LM924:
.LM925:
	lw	a5,8(sp)
.LVL349:
.LM926:
	lw	a4,0(a5)
	sw	a4,20(sp)
.LVL350:
.LM927:
	sw	zero,24(sp)
.LVL351:
.LM928:
.LM929:
	addi	a5,a5,4
.LVL352:
.LM930:
	sw	a5,8(sp)
.LM931:
	li	a5,16
.LVL353:
.LM932:
	li	s7,8
.LVL354:
.L293:
.LM933:
.LM934:
	bleu	s3,s4,.L341
.LM935:
	sub	a1,s3,s4
.L306:
.LM936:
	mv	a7,s7
	mv	a6,s9
	mv	a4,s5
	lw	a2,20(sp)
	lw	a3,24(sp)
	mv	a0,s6
	call	format_int
.LVL355:
.LM937:
.LM938:
	add	s6,s6,a0
.LVL356:
.LM939:
.LM940:
	add	s4,s4,a0
.LVL357:
.LM941:
.LM942:
	mv	a2,s0
.LM943:
	li	a3,0
.LM944:
	j	.L253
.LVL358:
.L288:
.LM945:
.LM946:
.LM947:
	ori	s5,s5,64
.LVL359:
.LM948:
	addi	a5,s10,2
.LVL360:
.LM949:
	li	a4,4
	bgtu	a5,a4,.L340
	slli	a5,a5,2
	lui	a4,%hi(.L295)
	addi	a4,a4,%lo(.L295)
	add	a5,a5,a4
	lw	a5,0(a5)
	jr	a5
	.section	.rodata.vsnprintf
	.align	2
	.align	2
.L295:
	.word	.L299
	.word	.L298
	.word	.L297
	.word	.L296
	.word	.L294
	.section	.text.vsnprintf
.L299:
.LM950:
.LVL361:
.LM951:
	lw	a5,8(sp)
	lb	a4,0(a5)
	sw	a4,20(sp)
.LVL362:
.LM952:
	srai	a4,a4,31
	sw	a4,24(sp)
.LVL363:
.LM953:
.LM954:
	addi	a5,a5,4
.LVL364:
.LM955:
	sw	a5,8(sp)
.LM956:
	li	a5,10
.LVL365:
.LM957:
	j	.L293
.LVL366:
.L298:
.LM958:
.LM959:
	lw	a5,8(sp)
	lh	a4,0(a5)
	sw	a4,20(sp)
.LVL367:
.LM960:
	srai	a4,a4,31
	sw	a4,24(sp)
.LVL368:
.LM961:
.LM962:
	addi	a5,a5,4
.LVL369:
.LM963:
	sw	a5,8(sp)
.LM964:
	li	a5,10
.LVL370:
.LM965:
	j	.L293
.LVL371:
.L297:
.LM966:
.LM967:
	lw	a5,8(sp)
	lw	a4,0(a5)
	sw	a4,20(sp)
.LVL372:
.LM968:
	srai	a4,a4,31
	sw	a4,24(sp)
.LVL373:
.LM969:
.LM970:
	addi	a5,a5,4
.LVL374:
.LM971:
	sw	a5,8(sp)
.LM972:
	li	a5,10
.LVL375:
.LM973:
	j	.L293
.LVL376:
.L296:
.LM974:
.LM975:
	lw	a5,8(sp)
	lw	a4,0(a5)
	sw	a4,20(sp)
.LVL377:
.LM976:
	srai	a4,a4,31
	sw	a4,24(sp)
.LVL378:
.LM977:
.LM978:
	addi	a5,a5,4
.LVL379:
.LM979:
	sw	a5,8(sp)
.LM980:
	li	a5,10
.LVL380:
.LM981:
	j	.L293
.LVL381:
.L294:
.LM982:
.LM983:
	lw	a5,8(sp)
	addi	a5,a5,7
	andi	a5,a5,-8
	addi	a4,a5,8
	sw	a4,8(sp)
.LVL382:
.LM984:
	lw	a4,0(a5)
.LVL383:
.LM985:
	sw	a4,20(sp)
.LVL384:
.LM986:
	lw	a5,4(a5)
	sw	a5,24(sp)
.LVL385:
.LM987:
.LM988:
	li	a5,10
.LVL386:
.LM989:
	j	.L293
.LVL387:
.L283:
.LM990:
.LM991:
.LM992:
	li	a5,10
.LVL388:
.L281:
.LM993:
	addi	a4,s10,2
	li	a3,4
	bgtu	a4,a3,.L293
.LM994:
	slli	a4,a4,2
	lui	a3,%hi(.L301)
	addi	a3,a3,%lo(.L301)
	add	a4,a4,a3
	lw	a4,0(a4)
	jr	a4
	.section	.rodata.vsnprintf
	.align	2
	.align	2
.L301:
	.word	.L305
	.word	.L304
	.word	.L303
	.word	.L302
	.word	.L300
	.section	.text.vsnprintf
.LVL389:
.L291:
.LM995:
.LM996:
	ori	s5,s5,128
.LVL390:
.LM997:
	li	a5,16
.LVL391:
.LM998:
	j	.L281
.LVL392:
.L339:
.LM999:
	li	a5,16
.LVL393:
.LM1000:
	j	.L281
.LVL394:
.L305:
.LM1001:
.LM1002:
	lw	a4,8(sp)
	lbu	a3,0(a4)
	sw	a3,20(sp)
.LVL395:
.LM1003:
	sw	zero,24(sp)
.LVL396:
.LM1004:
.LM1005:
	addi	a4,a4,4
.LVL397:
.LM1006:
	sw	a4,8(sp)
.LM1007:
	j	.L293
.LVL398:
.L304:
.LM1008:
.LM1009:
	lw	a4,8(sp)
	lhu	a3,0(a4)
	sw	a3,20(sp)
.LVL399:
.LM1010:
	sw	zero,24(sp)
.LVL400:
.LM1011:
.LM1012:
	addi	a4,a4,4
.LVL401:
.LM1013:
	sw	a4,8(sp)
.LM1014:
	j	.L293
.LVL402:
.L303:
.LM1015:
.LM1016:
	lw	a4,8(sp)
	lw	a3,0(a4)
	sw	a3,20(sp)
.LVL403:
.LM1017:
	sw	zero,24(sp)
.LVL404:
.LM1018:
.LM1019:
	addi	a4,a4,4
.LVL405:
.LM1020:
	sw	a4,8(sp)
.LM1021:
	j	.L293
.LVL406:
.L302:
.LM1022:
.LM1023:
	lw	a4,8(sp)
	lw	a3,0(a4)
	sw	a3,20(sp)
.LVL407:
.LM1024:
	sw	zero,24(sp)
.LVL408:
.LM1025:
.LM1026:
	addi	a4,a4,4
.LVL409:
.LM1027:
	sw	a4,8(sp)
.LM1028:
	j	.L293
.LVL410:
.L300:
.LM1029:
.LM1030:
	lw	a4,8(sp)
	addi	a4,a4,7
	andi	a4,a4,-8
	addi	a3,a4,8
	sw	a3,8(sp)
.LVL411:
.LM1031:
	lw	a3,0(a4)
.LVL412:
.LM1032:
	sw	a3,20(sp)
.LVL413:
.LM1033:
	lw	a4,4(a4)
	sw	a4,24(sp)
.LVL414:
.LM1034:
	j	.L293
.LVL415:
.L340:
.LM1035:
	li	a5,10
	j	.L293
.LVL416:
.L341:
.LM1036:
	li	a1,0
	j	.L306
.LVL417:
.L290:
.LM1037:
.LM1038:
	lw	a4,8(sp)
	lw	a5,0(a4)
.LVL418:
.LM1039:
	sb	a5,47(sp)
.LM1040:
.LVL419:
.LM1041:
.LM1042:
.LM1043:
	addi	a5,a4,4
.LVL420:
.LM1044:
	sw	a5,8(sp)
.LM1045:
	li	a2,1
.LM1046:
	addi	a5,sp,47
.LVL421:
.LM1047:
	sw	a5,28(sp)
.LVL422:
.L307:
.LBB33:
.LM1048:
.LM1049:
.LM1050:
.LM1051:
	li	a5,-1
	beq	s7,a5,.L309
.LM1052:
	ble	a2,s7,.L309
	mv	a2,s7
.LVL423:
.L309:
.LM1053:
.LM1054:
	bge	a2,s9,.L311
.LM1055:
	andi	a5,s5,2
.LM1056:
	beq	a5,zero,.L360
.L311:
.LM1057:
.LVL424:
.LM1058:
	beq	a2,zero,.L316
.LM1059:
	mv	a1,a2
	lw	a4,28(sp)
	add	a3,a4,a2
	j	.L318
.LVL425:
.L284:
.LM1060:
.LBE33:
.LM1061:
.LM1062:
	lw	a5,8(sp)
.LVL426:
.LM1063:
	addi	a4,a5,4
	sw	a4,8(sp)
.LVL427:
.LM1064:
	lw	a5,0(a5)
	sw	a5,28(sp)
.LM1065:
.LM1066:
	beq	a5,zero,.L361
.L308:
.LVL428:
.LM1067:
.LM1068:
	lw	a0,28(sp)
	call	strlen
.LVL429:
.LM1069:
	mv	a2,a0
.LVL430:
.LM1070:
	j	.L307
.LVL431:
.L361:
.LM1071:
	lui	a5,%hi(.LC3)
	addi	a5,a5,%lo(.LC3)
	sw	a5,28(sp)
	j	.L308
.LVL432:
.L360:
.LBB35:
.LBB34:
.LM1072:
.LM1073:
	andi	a5,s5,1
.LM1074:
	bne	a5,zero,.L312
.LM1075:
	li	a4,32
.L313:
.LVL433:
.LM1076:
	add	a5,s9,s4
	sub	a5,a5,a2
	j	.L315
.L314:
.LM1077:
.LM1078:
	addi	s4,s4,1
.LVL434:
.LM1079:
.LM1080:
.LM1081:
	beq	a5,s4,.L362
.L315:
.LM1082:
.LM1083:
	bleu	s3,s4,.L314
.LM1084:
.LVL435:
.LM1085:
	sb	a4,0(s6)
.LM1086:
	addi	s6,s6,1
.LVL436:
.LM1087:
	j	.L314
.L362:
.LVL437:
.LM1088:
	mv	s9,a2
	j	.L311
.LVL438:
.L312:
.LM1089:
	li	a4,48
	j	.L313
.LVL439:
.L317:
.LM1090:
.LBE34:
.LM1091:
.LM1092:
.LM1093:
.LM1094:
	beq	a3,a4,.L363
.LVL440:
.L318:
.LM1095:
.LM1096:
	addi	a4,a4,1
.LVL441:
.LM1097:
.LM1098:
	addi	a5,a4,-1
	lw	a0,28(sp)
	sub	a5,a5,a0
	add	a5,a5,s4
	bgeu	a5,s3,.L317
.LM1099:
	lbu	a5,-1(a4)
.LM1100:
.LVL442:
.LM1101:
	sb	a5,0(s6)
.LVL443:
.LM1102:
	addi	s6,s6,1
.LVL444:
.LM1103:
	j	.L317
.LVL445:
.L363:
.LM1104:
	add	s4,s4,a1
.LVL446:
.L316:
.LM1105:
.LM1106:
	ble	s9,a2,.L343
.LM1107:
	andi	a5,s5,2
.LM1108:
	bne	a5,zero,.L364
.LBE35:
.LM1109:
	mv	a2,s0
.LVL447:
.LM1110:
	li	a3,0
	j	.L253
.LVL448:
.L364:
.LM1111:
	sub	a5,s9,a2
	add	a5,a5,s4
.LBB36:
.LM1112:
	li	a4,32
	j	.L320
.LVL449:
.L319:
.LM1113:
.LM1114:
	addi	s4,s4,1
.LVL450:
.LM1115:
.LM1116:
.LM1117:
	beq	a5,s4,.L365
.LVL451:
.L320:
.LM1118:
.LM1119:
	bleu	s3,s4,.L319
.LM1120:
.LVL452:
.LM1121:
	sb	a4,0(s6)
.LM1122:
	addi	s6,s6,1
.LVL453:
.LM1123:
	j	.L319
.L365:
.LVL454:
.LM1124:
	mv	s9,a2
.LBE36:
.LM1125:
	mv	a2,s0
.LVL455:
.LM1126:
	li	a3,0
	j	.L253
.LVL456:
.L287:
.LM1127:
	addi	a5,s10,2
.LVL457:
.LM1128:
	li	a4,4
	bgtu	a5,a4,.L345
	slli	a5,a5,2
	lui	a4,%hi(.L322)
	addi	a4,a4,%lo(.L322)
	add	a5,a5,a4
	lw	a5,0(a5)
	jr	a5
	.section	.rodata.vsnprintf
	.align	2
	.align	2
.L322:
	.word	.L326
	.word	.L325
	.word	.L324
	.word	.L323
	.word	.L321
	.section	.text.vsnprintf
.L326:
.LM1129:
.LVL458:
.LM1130:
	lw	a4,8(sp)
	lw	a5,0(a4)
.LM1131:
	sb	s4,0(a5)
.LM1132:
.LM1133:
	addi	a5,a4,4
.LVL459:
.LM1134:
	sw	a5,8(sp)
.LM1135:
	mv	a2,s0
.LM1136:
	li	a3,0
.LM1137:
	j	.L253
.LVL460:
.L325:
.LM1138:
.LM1139:
	lw	a4,8(sp)
	lw	a5,0(a4)
.LM1140:
	sh	s4,0(a5)
.LM1141:
.LM1142:
	addi	a5,a4,4
.LVL461:
.LM1143:
	sw	a5,8(sp)
.LM1144:
	mv	a2,s0
.LM1145:
	li	a3,0
.LM1146:
	j	.L253
.LVL462:
.L324:
.LM1147:
.LM1148:
	lw	a4,8(sp)
	lw	a5,0(a4)
.LM1149:
	sw	s4,0(a5)
.LM1150:
.LM1151:
	addi	a5,a4,4
.LVL463:
.LM1152:
	sw	a5,8(sp)
.LM1153:
	mv	a2,s0
.LM1154:
	li	a3,0
.LM1155:
	j	.L253
.LVL464:
.L323:
.LM1156:
.LM1157:
	lw	a4,8(sp)
	lw	a5,0(a4)
.LM1158:
	sw	s4,0(a5)
.LM1159:
.LM1160:
	addi	a5,a4,4
.LVL465:
.LM1161:
	sw	a5,8(sp)
.LM1162:
	mv	a2,s0
.LM1163:
	li	a3,0
.LM1164:
	j	.L253
.LVL466:
.L321:
.LM1165:
.LM1166:
	lw	a4,8(sp)
	lw	a5,0(a4)
.LM1167:
	sw	s4,0(a5)
	sw	zero,4(a5)
.LM1168:
.LM1169:
	addi	a5,a4,4
.LVL467:
.LM1170:
	sw	a5,8(sp)
.LM1171:
	mv	a2,s0
.LM1172:
	li	a3,0
.LM1173:
	j	.L253
.LVL468:
.L289:
.LM1174:
.LM1175:
	lw	a5,8(sp)
.LVL469:
.LM1176:
	addi	a2,a5,7
	andi	a2,a2,-8
	addi	a5,a2,8
	sw	a5,8(sp)
.LVL470:
.LM1177:
	li	a6,2
	li	a5,102
.LVL471:
.LM1178:
	mv	a4,s7
	mv	a3,s9
	lw	a1,0(a2)
	lw	a2,4(a2)
	mv	a0,s6
	call	flt
.LVL472:
	mv	s6,a0
.LVL473:
.LM1179:
.LM1180:
	mv	a2,s0
.LM1181:
	li	a3,0
.LM1182:
	j	.L253
.LVL474:
.L280:
.LM1183:
.LM1184:
	bleu	s3,s4,.L327
.LM1185:
.LVL475:
.LM1186:
	sb	a5,0(s6)
.LM1187:
	addi	s6,s6,1
.LVL476:
.L327:
.LM1188:
.LM1189:
	addi	s4,s4,1
.LVL477:
.LM1190:
.LM1191:
.LM1192:
	mv	a2,s0
.LM1193:
	li	a3,0
.LM1194:
	j	.L253
.LVL478:
.L332:
.LM1195:
	mv	a2,s0
	j	.L253
.LVL479:
.L333:
.LM1196:
	mv	a2,s0
.LM1197:
	li	a3,1
.LM1198:
	li	s5,0
.LVL480:
.LM1199:
	li	s7,-1
.LVL481:
.LM1200:
	li	s9,0
.LM1201:
	li	s10,0
.LVL482:
.LM1202:
	j	.L253
.LVL483:
.L334:
.LM1203:
	li	a3,2
.LVL484:
.LM1204:
	j	.L253
.LVL485:
.L338:
.LM1205:
	mv	a2,s0
	li	s10,1
.LVL486:
.LM1206:
	j	.L253
.LVL487:
.L343:
.LM1207:
	mv	a2,s0
.LVL488:
.LM1208:
	li	a3,0
	j	.L253
.LVL489:
.L345:
.LM1209:
	mv	a2,s0
	li	a3,0
	j	.L253
.LVL490:
.L354:
.LM1210:
.LM1211:
	bleu	s3,s4,.L329
	lw	s0,104(sp)
	.cfi_restore 8
.LVL491:
.LM1212:
	lw	s1,100(sp)
	.cfi_restore 9
	lw	s2,96(sp)
	.cfi_restore 18
	lw	s5,84(sp)
	.cfi_restore 21
.LVL492:
.LM1213:
	lw	s7,76(sp)
	.cfi_restore 23
.LVL493:
.LM1214:
	lw	s8,72(sp)
	.cfi_restore 24
	lw	s9,68(sp)
	.cfi_restore 25
	lw	s10,64(sp)
	.cfi_restore 26
.LVL494:
.LM1215:
	lw	s11,60(sp)
	.cfi_restore 27
.LVL495:
.L331:
.LM1216:
.LM1217:
	sb	zero,0(s6)
.LVL496:
.L347:
.LM1218:
	mv	a0,s4
	lw	ra,108(sp)
	.cfi_remember_state
	.cfi_restore 1
	lw	s3,92(sp)
	.cfi_restore 19
	lw	s4,88(sp)
	.cfi_restore 20
	lw	s6,80(sp)
	.cfi_restore 22
	addi	sp,sp,112
	.cfi_def_cfa_offset 0
.LVL497:
.LM1219:
	jr	ra
.LVL498:
.L346:
	.cfi_restore_state
.LM1220:
	lw	s6,16(sp)
.LM1221:
	li	s4,0
	j	.L331
.LVL499:
.L329:
	.cfi_offset 8, -8
	.cfi_offset 9, -12
	.cfi_offset 18, -16
	.cfi_offset 21, -28
	.cfi_offset 23, -36
	.cfi_offset 24, -40
	.cfi_offset 25, -44
	.cfi_offset 26, -48
	.cfi_offset 27, -52
.LM1222:
.LM1223:
	beq	s3,zero,.L353
.LM1224:
.LM1225:
	lw	a5,16(sp)
.LVL500:
.LM1226:
	add	s3,a5,s3
.LVL501:
.LM1227:
	sb	zero,-1(s3)
.LVL502:
.LM1228:
	lw	s0,104(sp)
	.cfi_restore 8
.LVL503:
.LM1229:
	lw	s1,100(sp)
	.cfi_restore 9
	lw	s2,96(sp)
	.cfi_restore 18
	lw	s5,84(sp)
	.cfi_restore 21
.LVL504:
.LM1230:
	lw	s7,76(sp)
	.cfi_restore 23
.LVL505:
.LM1231:
	lw	s8,72(sp)
	.cfi_restore 24
	lw	s9,68(sp)
	.cfi_restore 25
	lw	s10,64(sp)
	.cfi_restore 26
.LVL506:
.LM1232:
	lw	s11,60(sp)
	.cfi_restore 27
	j	.L347
.LVL507:
.L252:
.LM1233:
.LM1234:
	bne	a1,zero,.L346
.LM1235:
	mv	s4,a1
.LM1236:
.LM1237:
	j	.L347
.LVL508:
.L353:
	.cfi_offset 8, -8
	.cfi_offset 9, -12
	.cfi_offset 18, -16
	.cfi_offset 21, -28
	.cfi_offset 23, -36
	.cfi_offset 24, -40
	.cfi_offset 25, -44
	.cfi_offset 26, -48
	.cfi_offset 27, -52
.LM1238:
	lw	s0,104(sp)
	.cfi_restore 8
.LVL509:
.LM1239:
	lw	s1,100(sp)
	.cfi_restore 9
	lw	s2,96(sp)
	.cfi_restore 18
	lw	s5,84(sp)
	.cfi_restore 21
.LVL510:
.LM1240:
	lw	s7,76(sp)
	.cfi_restore 23
.LVL511:
.LM1241:
	lw	s8,72(sp)
	.cfi_restore 24
	lw	s9,68(sp)
	.cfi_restore 25
	lw	s10,64(sp)
	.cfi_restore 26
.LVL512:
.LM1242:
	lw	s11,60(sp)
	.cfi_restore 27
	j	.L347
	.cfi_endproc
.LFE13:
	.size	vsnprintf, .-vsnprintf
	.section	.text.vsprintf,"ax",@progbits
	.align	1
	.globl	vsprintf
	.type	vsprintf, @function
vsprintf:
.LVL513:
.LFB14:
.LM1243:
	.cfi_startproc
.LM1244:
.LM1245:
	mv	a3,a2
.LM1246:
	mv	a2,a1
.LVL514:
.LM1247:
	li	a1,480
.LVL515:
.LM1248:
	tail	vsnprintf
.LVL516:
.LM1249:
	.cfi_endproc
.LFE14:
	.size	vsprintf, .-vsprintf
	.section	.text.vprint,"ax",@progbits
	.align	1
	.globl	vprint
	.type	vprint, @function
vprint:
.LVL517:
.LFB15:
.LM1250:
	.cfi_startproc
.LM1251:
.LM1252:
.LM1253:
.LM1254:
	lui	a5,%hi(sys_log_all_enable)
	lbu	a5,%lo(sys_log_all_enable)(a5)
.LM1255:
	beq	a5,zero,.L375
.LM1256:
	addi	sp,sp,-16
	.cfi_def_cfa_offset 16
	sw	s0,8(sp)
	.cfi_offset 8, -8
.LM1257:
	lui	s0,%hi(string)
	mv	a2,a1
	mv	a1,a0
.LVL518:
.LM1258:
.LM1259:
.LM1260:
	addi	a0,s0,%lo(string)
.LVL519:
.LM1261:
	sw	ra,12(sp)
	.cfi_offset 1, -4
.LM1262:
	call	vsprintf
.LVL520:
.LBB39:
.LBB40:
.LM1263:
	addi	s0,s0,%lo(string)
.LBE40:
.LBE39:
.LM1264:
	bgt	a0,zero,.L369
.L367:
.LM1265:
	lw	ra,12(sp)
	.cfi_remember_state
	.cfi_restore 1
	lw	s0,8(sp)
	.cfi_restore 8
	addi	sp,sp,16
	.cfi_def_cfa_offset 0
	jr	ra
.LVL521:
.L371:
	.cfi_restore_state
.LBB42:
.LBB41:
.LM1266:
	li	a0,0
.LM1267:
	addi	s0,s0,1
.LVL522:
.LM1268:
	call	bl_uart_data_send
.LVL523:
.L369:
.LM1269:
.LM1270:
	lbu	a1,0(s0)
.LVL524:
.LM1271:
	bne	a1,zero,.L371
	j	.L367
.LVL525:
.L375:
	.cfi_def_cfa_offset 0
	.cfi_restore 1
	.cfi_restore 8
.LM1272:
	ret
.LBE41:
.LBE42:
	.cfi_endproc
.LFE15:
	.size	vprint, .-vprint
	.section	.text.bl_putchar,"ax",@progbits
	.align	1
	.globl	bl_putchar
	.type	bl_putchar, @function
bl_putchar:
.LVL526:
.LFB16:
.LM1273:
	.cfi_startproc
.LM1274:
.LM1275:
	addi	sp,sp,-16
	.cfi_def_cfa_offset 16
.LM1276:
	andi	a1,a0,0xff
	li	a0,0
.LVL527:
.LM1277:
	sw	ra,12(sp)
	.cfi_offset 1, -4
.LM1278:
	call	bl_uart_data_send
.LVL528:
.LM1279:
.LM1280:
	lw	ra,12(sp)
	.cfi_restore 1
	li	a0,0
	addi	sp,sp,16
	.cfi_def_cfa_offset 0
	jr	ra
	.cfi_endproc
.LFE16:
	.size	bl_putchar, .-bl_putchar
	.section	.text.puts,"ax",@progbits
	.align	1
	.globl	puts
	.type	puts, @function
puts:
.LVL529:
.LFB17:
.LM1281:
	.cfi_startproc
.LM1282:
.LM1283:
.LM1284:
.LM1285:
	lui	a5,%hi(sys_log_all_enable)
	lbu	a5,%lo(sys_log_all_enable)(a5)
.LM1286:
	addi	sp,sp,-16
	.cfi_def_cfa_offset 16
	sw	s0,8(sp)
	sw	ra,12(sp)
	sw	s1,4(sp)
	.cfi_offset 8, -8
	.cfi_offset 1, -4
	.cfi_offset 9, -12
.LM1287:
	li	s0,0
.LM1288:
	beq	a5,zero,.L380
	mv	s1,a0
.LBB45:
.LBB46:
.LM1289:
	li	s0,0
	j	.L381
.LVL530:
.L383:
.LM1290:
	li	a0,0
	call	bl_uart_data_send
.LVL531:
.LM1291:
.LM1292:
	addi	s0,s0,1
.LVL532:
.L381:
.LM1293:
.LM1294:
	add	a5,s1,s0
.LVL533:
.LM1295:
	lbu	a1,0(a5)
.LVL534:
.LM1296:
	bne	a1,zero,.L383
.LVL535:
.L380:
.LM1297:
.LBE46:
.LBE45:
.LM1298:
	lw	ra,12(sp)
	.cfi_restore 1
	mv	a0,s0
	lw	s0,8(sp)
	.cfi_restore 8
	lw	s1,4(sp)
	.cfi_restore 9
	addi	sp,sp,16
	.cfi_def_cfa_offset 0
	jr	ra
	.cfi_endproc
.LFE17:
	.size	puts, .-puts
	.section	.text.printf,"ax",@progbits
	.align	1
	.globl	printf
	.type	printf, @function
printf:
.LVL536:
.LFB18:
.LM1299:
	.cfi_startproc
.LM1300:
.LM1301:
.LM1302:
	addi	sp,sp,-64
	.cfi_def_cfa_offset 64
	sw	a5,52(sp)
.LM1303:
	lui	a5,%hi(sys_log_all_enable)
	lbu	a5,%lo(sys_log_all_enable)(a5)
.LM1304:
	sw	ra,28(sp)
	.cfi_offset 1, -36
.LM1305:
	sw	a1,36(sp)
	sw	a2,40(sp)
	sw	a3,44(sp)
	sw	a4,48(sp)
	sw	a6,56(sp)
	sw	a7,60(sp)
.LM1306:
	beq	a5,zero,.L387
.LM1307:
	addi	a1,sp,36
	sw	a1,12(sp)
.LM1308:
	call	vprint
.LVL537:
.LM1309:
.L387:
.LM1310:
.LM1311:
	lw	ra,28(sp)
	.cfi_restore 1
	li	a0,0
	addi	sp,sp,64
	.cfi_def_cfa_offset 0
	jr	ra
	.cfi_endproc
.LFE18:
	.size	printf, .-printf
	.section	.text.sprintf,"ax",@progbits
	.align	1
	.globl	sprintf
	.type	sprintf, @function
sprintf:
.LVL538:
.LFB19:
.LM1312:
	.cfi_startproc
.LM1313:
.LM1314:
.LM1315:
.LM1316:
	addi	sp,sp,-64
	.cfi_def_cfa_offset 64
	sw	a2,40(sp)
	sw	a3,44(sp)
.LM1317:
	mv	a2,a1
.LM1318:
	addi	a3,sp,40
.LM1319:
	li	a1,-1
.LVL539:
.LM1320:
	sw	ra,28(sp)
	.cfi_offset 1, -36
.LM1321:
	sw	a4,48(sp)
	sw	a5,52(sp)
	sw	a6,56(sp)
	sw	a7,60(sp)
.LM1322:
	sw	a3,12(sp)
.LM1323:
.LM1324:
	call	vsnprintf
.LVL540:
.LM1325:
.LM1326:
.LM1327:
	lw	ra,28(sp)
	.cfi_restore 1
	addi	sp,sp,64
	.cfi_def_cfa_offset 0
	jr	ra
	.cfi_endproc
.LFE19:
	.size	sprintf, .-sprintf
	.section	.text.snprintf,"ax",@progbits
	.align	1
	.globl	snprintf
	.type	snprintf, @function
snprintf:
.LVL541:
.LFB20:
.LM1328:
	.cfi_startproc
.LM1329:
.LM1330:
.LM1331:
.LM1332:
	addi	sp,sp,-64
	.cfi_def_cfa_offset 64
	sw	a3,44(sp)
.LM1333:
	addi	a3,sp,44
.LM1334:
	sw	ra,28(sp)
	.cfi_offset 1, -36
.LM1335:
	sw	a4,48(sp)
	sw	a5,52(sp)
	sw	a6,56(sp)
	sw	a7,60(sp)
.LM1336:
	sw	a3,12(sp)
.LM1337:
.LM1338:
	call	vsnprintf
.LVL542:
.LM1339:
.LM1340:
.LM1341:
	lw	ra,28(sp)
	.cfi_restore 1
	addi	sp,sp,64
	.cfi_def_cfa_offset 0
	jr	ra
	.cfi_endproc
.LFE20:
	.size	snprintf, .-snprintf
	.section	.text.vMainUARTPrintString,"ax",@progbits
	.align	1
	.globl	vMainUARTPrintString
	.type	vMainUARTPrintString, @function
vMainUARTPrintString:
.LVL543:
.LFB21:
.LM1342:
	.cfi_startproc
.LM1343:
	tail	puts
.LVL544:
.LM1344:
	.cfi_endproc
.LFE21:
	.size	vMainUARTPrintString, .-vMainUARTPrintString
	.section	.rodata.lcdigits.0,"a"
	.align	2
	.type	lcdigits.0, @object
	.size	lcdigits.0, 17
lcdigits.0:
	.string	"0123456789abcdef"
	.section	.rodata.ucdigits.1,"a"
	.align	2
	.type	ucdigits.1, @object
	.size	ucdigits.1, 17
ucdigits.1:
	.string	"0123456789ABCDEF"
	.section	.bss.string,"aw",@nobits
	.align	2
	.type	string, @object
	.size	string, 512
string:
	.zero	512
	.section	.srodata.cst8,"aM",@progbits,8
	.align	3
.LC0:
	.word	0
	.word	1076101120
	.align	3
.LC1:
	.word	-343597384
	.word	1067366481
	.align	3
.LC2:
	.word	0
	.word	1072693248
	.text
.Letext0:
	.section	.note.GNU-stack,"",@progbits
