	.file	"loopset_i2c.c"
	.option nopic
	.attribute arch, "rv32i2p1_m2p0_f2p2_c2p0_zicsr2p0_zmmul1p0_zca1p0_zcf1p0"
	.attribute unaligned_access, 0
	.attribute stack_align, 16
	.text
.Ltext0:
	.cfi_sections	.debug_frame
	.section	.text._i2c_bloop_msg,"ax",@progbits
	.align	1
	.type	_i2c_bloop_msg, @function
_i2c_bloop_msg:
.LVL0:
.LFB24:
.LM1:
	.cfi_startproc
.LM2:
.LM3:
.LM4:
	li	a0,0
.LVL1:
.LM5:
	ret
	.cfi_endproc
.LFE24:
	.size	_i2c_bloop_msg, .-_i2c_bloop_msg
	.section	.rodata._i2c_bloop_evt.str1.4,"aMS",@progbits,1
	.align	2
.LC0:
	.string	"loopset_i2c.c"
	.align	2
.LC1:
	.string	"[ASSERT] [ERR] %s:%d\r\n"
	.section	.text._i2c_bloop_evt,"ax",@progbits
	.align	1
	.type	_i2c_bloop_evt, @function
_i2c_bloop_evt:
.LVL2:
.LFB23:
.LM6:
	.cfi_startproc
.LM7:
.LM8:
	addi	sp,sp,-16
	.cfi_def_cfa_offset 16
	sw	s0,8(sp)
	.cfi_offset 8, -8
.LM9:
	lw	s0,0(a3)
.LDL1:
.LVL3:
.LM10:
.LM11:
	sw	s1,4(sp)
	sw	ra,12(sp)
	.cfi_offset 9, -12
	.cfi_offset 1, -4
.LM12:
	andi	a5,s0,1
.LM13:
	mv	s1,a3
.LM14:
	beq	a5,zero,.L3
.LM15:
.LM16:
	lui	a5,%hi(gpstmsg)
	lw	a0,%lo(gpstmsg)(a5)
.LVL4:
.LM17:
	andi	s0,s0,-2
.LVL5:
.LM18:
	call	i2c_insert_msgs_process
.LVL6:
.L4:
.LM19:
.LM20:
.LM21:
	bne	s0,zero,.L3
.LVL7:
.L11:
.LM22:
.LM23:
	sw	zero,0(s1)
.LM24:
.LM25:
	lw	ra,12(sp)
	.cfi_remember_state
	.cfi_restore 1
	lw	s0,8(sp)
	.cfi_restore 8
	lw	s1,4(sp)
	.cfi_restore 9
.LVL8:
.LM26:
	li	a0,0
	addi	sp,sp,16
	.cfi_def_cfa_offset 0
	jr	ra
.LVL9:
.L3:
	.cfi_restore_state
.LM27:
.LM28:
	andi	a5,s0,2
.LM29:
	beq	a5,zero,.L5
.LM30:
.LM31:
	lui	a5,%hi(gpstmsg)
	lw	a0,%lo(gpstmsg)(a5)
.LM32:
	andi	s0,s0,-3
.LVL10:
.LM33:
	call	i2c_msgs_process
.LVL11:
	j	.L4
.LVL12:
.L5:
.LM34:
.LM35:
	andi	a5,s0,4
.LM36:
	beq	a5,zero,.L6
.LM37:
.LM38:
	lui	a5,%hi(glevent)
	lw	a1,%lo(glevent)(a5)
.LM39:
	andi	s0,s0,-5
.LVL13:
.LM40:
.LM41:
	bne	a1,zero,.L7
.LM42:
	li	a2,0
	li	a1,1
.L20:
.LM43:
	li	a0,527
	call	aos_post_event
.LVL14:
	j	.L4
.L7:
.LM44:
.LM45:
	li	a5,5
	bne	a1,a5,.L9
.LM46:
	li	a2,0
	li	a1,2
	j	.L20
.L9:
.LM47:
.LM48:
	li	a5,4
.LM49:
	li	a2,0
.LM50:
	beq	a1,a5,.L20
.LM51:
.LM52:
	li	a5,6
	bne	a1,a5,.L4
.LM53:
	li	a2,0
	li	a1,3
	j	.L20
.LVL15:
.L6:
.LM54:
.LM55:
.LM56:
	beq	s0,zero,.L11
.LM57:
	lui	a1,%hi(.LC0)
	lui	a0,%hi(.LC1)
	li	a2,77
	addi	a1,a1,%lo(.LC0)
	addi	a0,a0,%lo(.LC1)
	call	printf
.LVL16:
.L12:
.LM58:
.LM59:
.LM60:
	j	.L12
	.cfi_endproc
.LFE23:
	.size	_i2c_bloop_evt, .-_i2c_bloop_evt
	.section	.text.loopset_i2c_hook_on_looprt,"ax",@progbits
	.align	1
	.globl	loopset_i2c_hook_on_looprt
	.type	loopset_i2c_hook_on_looprt, @function
loopset_i2c_hook_on_looprt:
.LFB25:
.LM61:
	.cfi_startproc
.LM62:
.LM63:
.LM64:
	lui	a0,%hi(_i2c_bloop_handler_holder.0)
	li	a1,2
	addi	a0,a0,%lo(_i2c_bloop_handler_holder.0)
	tail	looprt_handler_register
.LVL17:
	.cfi_endproc
.LFE25:
	.size	loopset_i2c_hook_on_looprt, .-loopset_i2c_hook_on_looprt
	.section	.text.i2c_async_trigger,"ax",@progbits
	.align	1
	.globl	i2c_async_trigger
	.type	i2c_async_trigger, @function
i2c_async_trigger:
.LVL18:
.LFB26:
.LM65:
	.cfi_startproc
.LM66:
.LM67:
	lui	a4,%hi(gpstmsg)
	sw	a0,%lo(gpstmsg)(a4)
.LM68:
.LM69:
	mv	a5,a1
.LM70:
	bne	a1,zero,.L23
.LM71:
	li	a1,2
.LVL19:
.L26:
.LM72:
	li	a0,2
.LVL20:
.LM73:
	tail	looprt_evt_notify_async
.LVL21:
.L23:
.LM74:
.LM75:
	li	a4,1
	beq	a1,a4,.L26
.LM76:
.LM77:
	li	a4,2
	bne	a1,a4,.L22
.LM78:
.LM79:
	lw	a3,20(a0)
	lui	a4,%hi(glevent)
.LM80:
	li	a1,4
.LVL22:
.LM81:
	mv	a0,a5
.LVL23:
.LM82:
	sw	a3,%lo(glevent)(a4)
.LM83:
	tail	looprt_evt_notify_async_fromISR
.LVL24:
.L22:
.LM84:
	ret
	.cfi_endproc
.LFE26:
	.size	i2c_async_trigger, .-i2c_async_trigger
	.section	.rodata.str1.4,"aMS",@progbits,1
	.align	2
.LC2:
	.string	"I2C Trigger"
	.section	.rodata._i2c_bloop_handler_holder.0,"a"
	.align	2
	.type	_i2c_bloop_handler_holder.0, @object
	.size	_i2c_bloop_handler_holder.0, 12
_i2c_bloop_handler_holder.0:
	.word	.LC2
	.word	_i2c_bloop_evt
	.word	_i2c_bloop_msg
	.section	.sbss.glevent,"aw",@nobits
	.align	2
	.type	glevent, @object
	.size	glevent, 4
glevent:
	.zero	4
	.section	.sbss.gpstmsg,"aw",@nobits
	.align	2
	.type	gpstmsg, @object
	.size	gpstmsg, 4
gpstmsg:
	.zero	4
	.text
.Letext0:
	.section	.note.GNU-stack,"",@progbits
