	.file	"loopset_led.c"
	.option nopic
	.attribute arch, "rv32i2p1_m2p0_f2p2_c2p0_zicsr2p0_zmmul1p0_zca1p0_zcf1p0"
	.attribute unaligned_access, 0
	.attribute stack_align, 16
	.text
.Ltext0:
	.cfi_sections	.debug_frame
	.section	.text._led_bloop_msg,"ax",@progbits
	.align	1
	.type	_led_bloop_msg, @function
_led_bloop_msg:
.LVL0:
.LFB25:
.LM1:
	.cfi_startproc
.LM2:
.LM3:
.LM4:
	li	a0,0
.LVL1:
.LM5:
	ret
	.cfi_endproc
.LFE25:
	.size	_led_bloop_msg, .-_led_bloop_msg
	.section	.text._cb_led_trigger,"ax",@progbits
	.align	1
	.type	_cb_led_trigger, @function
_cb_led_trigger:
.LVL2:
.LFB27:
.LM6:
	.cfi_startproc
.LM7:
.LM8:
.LM9:
	addi	sp,sp,-32
	.cfi_def_cfa_offset 32
	sw	ra,28(sp)
	.cfi_offset 1, -4
.LM10:
	lw	a1,56(a2)
.LVL3:
.LM11:
	lbu	a0,48(a2)
.LVL4:
.LM12:
	sw	a2,12(sp)
	snez	a1,a1
	call	bl_gpio_output_set
.LVL5:
.LM13:
.LM14:
.LM15:
	lw	a2,12(sp)
	lw	a5,56(a2)
	seqz	a5,a5
.LM16:
	sw	a5,56(a2)
.LM17:
	lw	ra,28(sp)
	.cfi_restore 1
	addi	sp,sp,32
	.cfi_def_cfa_offset 0
.LVL6:
.LM18:
	jr	ra
	.cfi_endproc
.LFE27:
	.size	_cb_led_trigger, .-_cb_led_trigger
	.section	.rodata._led_bloop_evt.str1.4,"aMS",@progbits,1
	.align	2
.LC0:
	.string	"loopset_led.c"
	.align	2
.LC1:
	.string	"[ASSERT] [ERR] %s:%d\r\n"
	.section	.text._led_bloop_evt,"ax",@progbits
	.align	1
	.type	_led_bloop_evt, @function
_led_bloop_evt:
.LVL7:
.LFB24:
.LM19:
	.cfi_startproc
.LM20:
.LM21:
	addi	sp,sp,-48
	.cfi_def_cfa_offset 48
	sw	ra,44(sp)
	sw	s0,40(sp)
	sw	s1,36(sp)
	sw	s2,32(sp)
	sw	s3,28(sp)
	sw	s4,24(sp)
	.cfi_offset 1, -4
	.cfi_offset 8, -8
	.cfi_offset 9, -12
	.cfi_offset 18, -16
	.cfi_offset 19, -20
	.cfi_offset 20, -24
.LM22:
	lw	s1,0(a3)
.LM23:
.LVL8:
.LDL1:
.LM24:
.LM25:
	andi	a5,s1,1
.LM26:
	beq	a5,zero,.L5
.LM27:
.LM28:
	andi	s1,s1,-2
.LVL9:
.L6:
.LM29:
.LM30:
.LM31:
	bne	s1,zero,.L5
.LVL10:
.L14:
.LM32:
.LM33:
	sw	zero,0(a3)
.LM34:
.LM35:
	lw	ra,44(sp)
	.cfi_remember_state
	.cfi_restore 1
	lw	s0,40(sp)
	.cfi_restore 8
	lw	s1,36(sp)
	.cfi_restore 9
	lw	s2,32(sp)
	.cfi_restore 18
	lw	s3,28(sp)
	.cfi_restore 19
	lw	s4,24(sp)
	.cfi_restore 20
	li	a0,0
	addi	sp,sp,48
	.cfi_def_cfa_offset 0
	jr	ra
.LVL11:
.L5:
	.cfi_restore_state
.LM36:
.LM37:
	andi	a5,s1,2
.LM38:
	beq	a5,zero,.L7
.LM39:
	lw	s2,12(a1)
.LVL12:
.LBB30:
.LBI30:
.LM40:
.LBB31:
.LM41:
.LM42:
.LM43:
.LM44:
	li	s3,0
.LM45:
	lw	s0,12(s2)
.LVL13:
.LM46:
	beq	s0,zero,.L8
.LM47:
	lw	s3,4(s0)
.LVL14:
.L8:
.LM48:
	addi	s4,s2,8
.L9:
.LVL15:
.LM49:
	bne	s0,s4,.L11
.LVL16:
.LM50:
.LBE31:
.LBE30:
.LM51:
.LM52:
	andi	s1,s1,-3
.LVL17:
.LM53:
	j	.L6
.LVL18:
.L11:
.LBB41:
.LBB40:
.LM54:
	addi	a0,s0,8
	sw	a3,12(sp)
	sw	a1,8(sp)
.LM55:
.LM56:
	call	looprt_timer_register
.LVL19:
.LM57:
.LBB32:
.LBI32:
.LM58:
.LBB33:
.LM59:
.LM60:
	lw	a5,4(s0)
.LM61:
	lw	a4,0(s0)
.LVL20:
.LM62:
.LM63:
.LBE33:
.LBE32:
.LM64:
	lw	a1,8(sp)
	lw	a3,12(sp)
.LBB35:
.LBB34:
.LM65:
	sw	a5,4(a4)
.LM66:
.LM67:
	sw	a4,0(a5)
.LVL21:
.LM68:
.LBE34:
.LBE35:
.LM69:
.LBB36:
.LBI36:
.LM70:
.LBB37:
.LM71:
.LM72:
	lw	a5,4(s2)
.LVL22:
.LBB38:
.LBI38:
.LM73:
.LBB39:
.LM74:
.LM75:
	sw	s2,0(s0)
.LM76:
	sw	a5,4(s0)
.LM77:
.LM78:
.LM79:
	sw	s0,4(s2)
.LM80:
.LM81:
	sw	s0,0(a5)
.LVL23:
.LM82:
.LBE39:
.LBE38:
.LBE37:
.LBE36:
.LM83:
.LM84:
	li	a5,0
.LM85:
	beq	s3,zero,.L10
.LM86:
	lw	a5,4(s3)
.LVL24:
.L10:
.LM87:
	mv	s0,s3
	mv	s3,a5
.LVL25:
.LM88:
	j	.L9
.LVL26:
.L7:
.LM89:
.LBE40:
.LBE41:
.LM90:
.LM91:
.LM92:
	beq	s1,zero,.L14
.LBB42:
.LBI42:
.LM93:
.LVL27:
.LBB43:
.LM94:
	lui	a1,%hi(.LC0)
	lui	a0,%hi(.LC1)
	li	a2,94
	addi	a1,a1,%lo(.LC0)
	addi	a0,a0,%lo(.LC1)
	call	printf
.LVL28:
.L13:
.LM95:
.LM96:
.LM97:
	j	.L13
.LBE43:
.LBE42:
	.cfi_endproc
.LFE24:
	.size	_led_bloop_evt, .-_led_bloop_evt
	.section	.text.loopset_led_hook_on_looprt,"ax",@progbits
	.align	1
	.globl	loopset_led_hook_on_looprt
	.type	loopset_led_hook_on_looprt, @function
loopset_led_hook_on_looprt:
.LFB26:
.LM98:
	.cfi_startproc
.LM99:
.LM100:
.LVL29:
.LBB44:
.LBI44:
.LM101:
.LBB45:
.LM102:
.LM103:
	lui	a5,%hi(led_ctx)
.LBE45:
.LBE44:
.LBB48:
.LBB49:
	lui	a4,%hi(led_ctx+8)
.LBE49:
.LBE48:
.LM104:
	lui	a0,%hi(_led_bloop_handler_holder.0)
.LBB52:
.LBB46:
.LM105:
	addi	a5,a5,%lo(led_ctx)
.LBE46:
.LBE52:
.LBB53:
.LBB50:
	addi	a4,a4,%lo(led_ctx+8)
.LBE50:
.LBE53:
.LM106:
	li	a1,1
	addi	a0,a0,%lo(_led_bloop_handler_holder.0)
.LBB54:
.LBB47:
.LM107:
	sw	a5,4(a5)
.LM108:
.LM109:
	sw	a5,0(a5)
.LVL30:
.LM110:
.LBE47:
.LBE54:
.LM111:
.LBB55:
.LBI48:
.LM112:
.LBB51:
.LM113:
.LM114:
	sw	a4,12(a5)
.LM115:
.LM116:
	sw	a4,8(a5)
.LVL31:
.LM117:
.LBE51:
.LBE55:
.LM118:
.LM119:
	tail	looprt_handler_register
.LVL32:
	.cfi_endproc
.LFE26:
	.size	loopset_led_hook_on_looprt, .-loopset_led_hook_on_looprt
	.section	.rodata.loopset_led_trigger.str1.4,"aMS",@progbits,1
	.align	2
.LC2:
	.string	"\033[35mASSERT\033[0m"
	.align	2
.LC3:
	.string	"[%10u][%s: %s:%4d] ASSERT: %s:%d\r\n"
	.section	.text.loopset_led_trigger,"ax",@progbits
	.align	1
	.globl	loopset_led_trigger
	.type	loopset_led_trigger, @function
loopset_led_trigger:
.LVL33:
.LFB28:
.LM120:
	.cfi_startproc
.LM121:
.LM122:
.LM123:
	addi	sp,sp,-32
	.cfi_def_cfa_offset 32
	sw	s1,20(sp)
	.cfi_offset 9, -12
	mv	s1,a0
.LM124:
	li	a0,60
.LVL34:
.LM125:
	sw	s2,16(sp)
	sw	ra,28(sp)
	sw	s0,24(sp)
	.cfi_offset 18, -16
	.cfi_offset 1, -4
	.cfi_offset 8, -8
.LM126:
	mv	s2,a1
.LM127:
	call	pvPortMalloc
.LVL35:
.LM128:
.LM129:
.LM130:
	bne	a0,zero,.L24
.LM131:
.LM132:
.LM133:
.LBB56:
.LBI56:
.LM134:
.LBB57:
.LM135:
.LM136:
	lui	a5,%hi(TrapNetCounter)
.LBE57:
.LBE56:
.LM137:
	lw	a5,%lo(TrapNetCounter)(a5)
	beq	a5,zero,.L25
.LM138:
	call	xTaskGetTickCountFromISR
.LVL36:
.L29:
.LM139:
	lui	a5,%hi(.LC0)
.LM140:
	mv	a1,a0
.LM141:
	li	a6,158
	addi	a5,a5,%lo(.LC0)
	lui	a2,%hi(.LC2)
	lui	a0,%hi(.LC3)
	mv	a4,a6
	mv	a3,a5
	addi	a2,a2,%lo(.LC2)
	addi	a0,a0,%lo(.LC3)
	call	bl_printk
.LVL37:
.L27:
.LM142:
.LM143:
.LM144:
.LM145:
.LM146:
	j	.L27
.LVL38:
.L25:
.LM147:
	call	xTaskGetTickCount
.LVL39:
.LM148:
	j	.L29
.LVL40:
.L24:
.LM149:
	li	a2,60
	li	a1,0
	mv	s0,a0
.LM150:
.LM151:
	call	memset
.LVL41:
.LM152:
.LM153:
	addi	a0,s0,8
.LM154:
	sw	s1,48(s0)
.LM155:
	li	a1,0
	sw	a0,12(sp)
	call	bloop_timer_init
.LVL42:
.LM156:
	lw	a0,12(sp)
	call	bloop_timer_repeat_enable
.LVL43:
.LM157:
	lw	a0,12(sp)
	li	a5,1
	lui	a2,%hi(_cb_led_trigger)
	mv	a4,a5
	mv	a3,s0
	mv	a1,s2
	addi	a2,a2,%lo(_cb_led_trigger)
	call	bloop_timer_configure
.LVL44:
.LM158:
	li	a1,0
	li	a2,0
	andi	a0,s1,0xff
	call	bl_gpio_enable_output
.LVL45:
.LM159:
	call	vTaskEnterCritical
.LVL46:
.LM160:
.LBB58:
.LBI58:
.LM161:
.LBB59:
.LM162:
.LM163:
	lui	a5,%hi(led_ctx)
	addi	a5,a5,%lo(led_ctx)
	lw	a3,12(a5)
.LVL47:
.LBB60:
.LBI60:
.LM164:
.LBB61:
.LM165:
.LM166:
	lui	a4,%hi(led_ctx+8)
	addi	a4,a4,%lo(led_ctx+8)
.LM167:
	sw	a3,4(s0)
.LM168:
.LM169:
	sw	a4,0(s0)
.LM170:
.LM171:
	sw	s0,12(a5)
.LM172:
.LM173:
	sw	s0,0(a3)
.LVL48:
.LM174:
.LBE61:
.LBE60:
.LBE59:
.LBE58:
.LM175:
	call	vTaskExitCritical
.LVL49:
.LM176:
.LM177:
	lw	s0,24(sp)
	.cfi_restore 8
.LVL50:
.LM178:
	lw	ra,28(sp)
	.cfi_restore 1
	lw	s1,20(sp)
	.cfi_restore 9
.LVL51:
.LM179:
	lw	s2,16(sp)
	.cfi_restore 18
.LVL52:
.LM180:
	li	a1,2
.LM181:
.LM182:
	li	a0,1
.LM183:
	addi	sp,sp,32
	.cfi_def_cfa_offset 0
.LVL53:
.LM184:
	tail	looprt_evt_notify_async
.LVL54:
	.cfi_endproc
.LFE28:
	.size	loopset_led_trigger, .-loopset_led_trigger
	.section	.rodata.str1.4,"aMS",@progbits,1
	.align	2
.LC4:
	.string	"Led Trigger"
	.section	.rodata._led_bloop_handler_holder.0,"a"
	.align	2
	.type	_led_bloop_handler_holder.0, @object
	.size	_led_bloop_handler_holder.0, 16
_led_bloop_handler_holder.0:
	.word	.LC4
	.word	_led_bloop_evt
	.word	_led_bloop_msg
	.word	led_ctx
	.section	.bss.led_ctx,"aw",@nobits
	.align	2
	.type	led_ctx, @object
	.size	led_ctx, 16
led_ctx:
	.zero	16
	.text
.Letext0:
	.section	.note.GNU-stack,"",@progbits
