	.file	"utils_string.c"
	.option nopic
	.attribute arch, "rv32i2p1_m2p0_f2p2_c2p0_zicsr2p0_zmmul1p0_zca1p0_zcf1p0"
	.attribute unaligned_access, 0
	.attribute stack_align, 16
	.text
.Ltext0:
	.cfi_sections	.debug_frame
	.section	.text.params_filter.constprop.0.isra.0,"ax",@progbits
	.align	1
	.type	params_filter.constprop.0.isra.0, @function
params_filter.constprop.0.isra.0:
.LVL0:
.LFB7:
.LM1:
	.cfi_startproc
.LM2:
.LM3:
.LM4:
.LM5:
.LM6:
.LM7:
	lbu	a4,0(a0)
	li	a5,48
.LM8:
	li	a3,10
.LM9:
	bne	a4,a5,.L2
.LM10:
	lbu	a5,1(a0)
	li	a4,88
	andi	a5,a5,223
	bne	a5,a4,.L2
.LM11:
.LM12:
	addi	a0,a0,2
.LVL1:
.LM13:
.LM14:
	li	a3,16
.LVL2:
.L2:
.LM15:
	li	a5,0
.LM16:
	li	a7,9
.LM17:
	li	t1,10
.LM18:
	li	a6,5
	j	.L7
.LVL3:
.L8:
.LM19:
.LM20:
	addi	a2,a4,-48
.LM21:
	andi	a2,a2,0xff
.LM22:
	mul	a5,a5,a3
.LVL4:
.LM23:
.LM24:
	bgtu	a2,a7,.L3
.LM25:
	addi	a5,a5,-48
.LVL5:
.L12:
.LM26:
	add	a5,a5,a4
.L4:
.LVL6:
.LM27:
.LM28:
	addi	a0,a0,1
.LVL7:
.L7:
.LM29:
	lbu	a4,0(a0)
	bne	a4,zero,.L8
.LM30:
.LM31:
	sw	a5,0(a1)
.LM32:
.LM33:
	li	a0,0
.LVL8:
.LM34:
	ret
.LVL9:
.L3:
.LM35:
.LM36:
	beq	a3,t1,.L11
.LVL10:
.LM37:
.LM38:
	addi	a2,a4,-97
.LM39:
	andi	a2,a2,0xff
	bgtu	a2,a6,.L6
.LM40:
	addi	a5,a5,-87
	j	.L12
.L6:
.LM41:
.LM42:
	addi	a2,a4,-65
.LM43:
	andi	a2,a2,0xff
	bgtu	a2,a6,.L4
.LM44:
.LM45:
	addi	a4,a4,-55
	j	.L12
.LVL11:
.L11:
.LM46:
	li	a0,-1
.LVL12:
.LM47:
	ret
	.cfi_endproc
.LFE7:
	.size	params_filter.constprop.0.isra.0, .-params_filter.constprop.0.isra.0
	.section	.text.get_bytearray_from_string,"ax",@progbits
	.align	1
	.globl	get_bytearray_from_string
	.type	get_bytearray_from_string, @function
get_bytearray_from_string:
.LVL13:
.LFB2:
.LM48:
	.cfi_startproc
.LM49:
.LM50:
.LM51:
.LM52:
	addi	sp,sp,-48
	.cfi_def_cfa_offset 48
	sw	s0,40(sp)
	sw	s1,36(sp)
	sw	s2,32(sp)
	sw	s3,28(sp)
	sw	ra,44(sp)
	.cfi_offset 8, -8
	.cfi_offset 9, -12
	.cfi_offset 18, -16
	.cfi_offset 19, -20
	.cfi_offset 1, -4
.LM53:
	mv	s1,a0
	mv	s2,a1
	mv	s3,a2
.LM54:
	li	s0,0
.LVL14:
.L14:
.LM55:
	blt	s0,s3,.L15
.LM56:
	lw	ra,44(sp)
	.cfi_remember_state
	.cfi_restore 1
	lw	s0,40(sp)
	.cfi_restore 8
.LVL15:
.LM57:
	lw	s1,36(sp)
	.cfi_restore 9
.LVL16:
.LM58:
	lw	s2,32(sp)
	.cfi_restore 18
.LVL17:
.LM59:
	lw	s3,28(sp)
	.cfi_restore 19
.LVL18:
.LM60:
	addi	sp,sp,48
	.cfi_def_cfa_offset 0
	jr	ra
.LVL19:
.L15:
	.cfi_restore_state
.LM61:
	lw	a1,0(s1)
	li	a2,2
	addi	a0,sp,12
	call	strncpy
.LVL20:
.LM62:
.LM63:
	li	a2,16
	li	a1,0
	addi	a0,sp,12
.LM64:
	sb	zero,14(sp)
.LM65:
.LM66:
	call	strtol
.LVL21:
.LM67:
	add	a5,s2,s0
	sb	a0,0(a5)
.LM68:
.LM69:
	lw	a5,0(s1)
.LM70:
	addi	s0,s0,1
.LVL22:
.LM71:
	addi	a5,a5,2
.LM72:
	sw	a5,0(s1)
.LM73:
	j	.L14
	.cfi_endproc
.LFE2:
	.size	get_bytearray_from_string, .-get_bytearray_from_string
	.section	.text.get_uint8_from_string,"ax",@progbits
	.align	1
	.globl	get_uint8_from_string
	.type	get_uint8_from_string, @function
get_uint8_from_string:
.LVL23:
.LFB3:
.LM74:
	.cfi_startproc
.LM75:
.LM76:
	addi	sp,sp,-32
	.cfi_def_cfa_offset 32
	sw	s0,24(sp)
	sw	ra,28(sp)
	.cfi_offset 8, -8
	.cfi_offset 1, -4
.LM77:
	lw	a0,0(a0)
.LVL24:
.LM78:
	mv	s0,a1
.LM79:
	addi	a1,sp,12
.LVL25:
.LM80:
	sw	zero,12(sp)
.LM81:
.LVL26:
.LM82:
.LM83:
	call	params_filter.constprop.0.isra.0
.LVL27:
.LM84:
	li	a5,0
.LM85:
	bne	a0,zero,.L18
.LM86:
.LM87:
	lw	a5,12(sp)
.L18:
	sb	a5,0(s0)
.LM88:
	lw	ra,28(sp)
	.cfi_restore 1
	lw	s0,24(sp)
	.cfi_restore 8
.LVL28:
.LM89:
	addi	sp,sp,32
	.cfi_def_cfa_offset 0
	jr	ra
	.cfi_endproc
.LFE3:
	.size	get_uint8_from_string, .-get_uint8_from_string
	.section	.text.get_uint16_from_string,"ax",@progbits
	.align	1
	.globl	get_uint16_from_string
	.type	get_uint16_from_string, @function
get_uint16_from_string:
.LVL29:
.LFB4:
.LM90:
	.cfi_startproc
.LM91:
.LM92:
	addi	sp,sp,-32
	.cfi_def_cfa_offset 32
	sw	s0,24(sp)
	sw	ra,28(sp)
	.cfi_offset 8, -8
	.cfi_offset 1, -4
.LM93:
	lw	a0,0(a0)
.LVL30:
.LM94:
	mv	s0,a1
.LM95:
	addi	a1,sp,12
.LVL31:
.LM96:
	sw	zero,12(sp)
.LM97:
.LVL32:
.LM98:
.LM99:
	call	params_filter.constprop.0.isra.0
.LVL33:
.LM100:
	li	a5,0
.LM101:
	bne	a0,zero,.L23
.LM102:
.LM103:
	lw	a5,12(sp)
.L23:
	sh	a5,0(s0)
.LM104:
	lw	ra,28(sp)
	.cfi_restore 1
	lw	s0,24(sp)
	.cfi_restore 8
.LVL34:
.LM105:
	addi	sp,sp,32
	.cfi_def_cfa_offset 0
	jr	ra
	.cfi_endproc
.LFE4:
	.size	get_uint16_from_string, .-get_uint16_from_string
	.section	.text.get_uint32_from_string,"ax",@progbits
	.align	1
	.globl	get_uint32_from_string
	.type	get_uint32_from_string, @function
get_uint32_from_string:
.LVL35:
.LFB5:
.LM106:
	.cfi_startproc
.LM107:
.LM108:
	addi	sp,sp,-32
	.cfi_def_cfa_offset 32
	sw	s0,24(sp)
	sw	ra,28(sp)
	.cfi_offset 8, -8
	.cfi_offset 1, -4
.LM109:
	lw	a0,0(a0)
.LVL36:
.LM110:
	mv	s0,a1
.LM111:
	addi	a1,sp,12
.LVL37:
.LM112:
	sw	zero,12(sp)
.LM113:
.LVL38:
.LM114:
.LM115:
	call	params_filter.constprop.0.isra.0
.LVL39:
.LM116:
	li	a5,0
.LM117:
	bne	a0,zero,.L28
.LM118:
.LM119:
	lw	a5,12(sp)
.L28:
	sw	a5,0(s0)
.LM120:
	lw	ra,28(sp)
	.cfi_restore 1
	lw	s0,24(sp)
	.cfi_restore 8
.LVL40:
.LM121:
	addi	sp,sp,32
	.cfi_def_cfa_offset 0
	jr	ra
	.cfi_endproc
.LFE5:
	.size	get_uint32_from_string, .-get_uint32_from_string
	.text
.Letext0:
	.section	.note.GNU-stack,"",@progbits
