	.file	"utils_list.c"
	.option nopic
	.attribute arch, "rv32i2p1_m2p0_f2p2_c2p0_zicsr2p0_zmmul1p0_zca1p0_zcf1p0"
	.attribute unaligned_access, 0
	.attribute stack_align, 16
	.text
.Ltext0:
	.cfi_sections	.debug_frame
	.section	.text.utils_list_init,"ax",@progbits
	.align	1
	.globl	utils_list_init
	.type	utils_list_init, @function
utils_list_init:
.LVL0:
.LFB19:
.LM1:
	.cfi_startproc
.LM2:
.LM3:
	sw	zero,0(a0)
.LM4:
.LM5:
	sw	zero,4(a0)
.LM6:
	ret
	.cfi_endproc
.LFE19:
	.size	utils_list_init, .-utils_list_init
	.section	.text.utils_list_push_back,"ax",@progbits
	.align	1
	.globl	utils_list_push_back
	.type	utils_list_push_back, @function
utils_list_push_back:
.LVL1:
.LFB21:
.LM7:
	.cfi_startproc
.LM8:
.LBB12:
.LBI12:
.LM9:
.LBB13:
.LM10:
.LM11:
.LBE13:
.LBE12:
.LM12:
	lw	a5,0(a0)
	bne	a5,zero,.L3
.LM13:
.LM14:
	sw	a1,0(a0)
.L4:
.LM15:
.LM16:
	sw	a1,4(a0)
.LM17:
.LM18:
	sw	zero,0(a1)
.LM19:
	ret
.L3:
.LM20:
.LM21:
	lw	a5,4(a0)
.LM22:
	sw	a1,0(a5)
	j	.L4
	.cfi_endproc
.LFE21:
	.size	utils_list_push_back, .-utils_list_push_back
	.section	.text.utils_list_pool_init,"ax",@progbits
	.align	1
	.globl	utils_list_pool_init
	.type	utils_list_pool_init, @function
utils_list_pool_init:
.LVL2:
.LFB20:
.LM23:
	.cfi_startproc
.LM24:
.LM25:
.LBB14:
.LBI14:
.LM26:
.LBB15:
.LM27:
.LBE15:
.LBE14:
.LM28:
	addi	sp,sp,-48
	.cfi_def_cfa_offset 48
	sw	s0,40(sp)
	sw	s1,36(sp)
	sw	s2,32(sp)
	sw	s3,28(sp)
	sw	s4,24(sp)
	sw	ra,44(sp)
	.cfi_offset 8, -8
	.cfi_offset 9, -12
	.cfi_offset 18, -16
	.cfi_offset 19, -20
	.cfi_offset 20, -24
	.cfi_offset 1, -4
.LM29:
	mv	s2,a0
	mv	s0,a1
	mv	s4,a3
	mv	s3,a4
.LBB17:
.LBB16:
.LM30:
	sw	zero,0(a0)
.LM31:
.LM32:
	sw	zero,4(a0)
.LVL3:
.LM33:
.LBE16:
.LBE17:
.LM34:
.LM35:
	li	s1,0
.LVL4:
.L6:
.LM36:
	bne	s1,s4,.L8
.LM37:
	lw	ra,44(sp)
	.cfi_remember_state
	.cfi_restore 1
	lw	s0,40(sp)
	.cfi_restore 8
.LVL5:
.LM38:
	lw	s1,36(sp)
	.cfi_restore 9
.LVL6:
.LM39:
	lw	s2,32(sp)
	.cfi_restore 18
.LVL7:
.LM40:
	lw	s3,28(sp)
	.cfi_restore 19
.LVL8:
.LM41:
	lw	s4,24(sp)
	.cfi_restore 20
.LVL9:
.LM42:
	addi	sp,sp,48
	.cfi_def_cfa_offset 0
	jr	ra
.LVL10:
.L8:
	.cfi_restore_state
.LM43:
.LM44:
	beq	s3,zero,.L7
.LM45:
	mv	a1,s3
	mv	a0,s0
	sw	a2,12(sp)
	call	memcpy
.LVL11:
	lw	a2,12(sp)
.L7:
.LM46:
	mv	a1,s0
	mv	a0,s2
	sw	a2,12(sp)
.LM47:
	call	utils_list_push_back
.LVL12:
.LM48:
.LM49:
	lw	a2,12(sp)
.LM50:
	addi	s1,s1,1
.LVL13:
.LM51:
	add	s0,s0,a2
.LVL14:
.LM52:
	j	.L6
	.cfi_endproc
.LFE20:
	.size	utils_list_pool_init, .-utils_list_pool_init
	.section	.text.utils_list_push_front,"ax",@progbits
	.align	1
	.globl	utils_list_push_front
	.type	utils_list_push_front, @function
utils_list_push_front:
.LVL15:
.LFB22:
.LM53:
	.cfi_startproc
.LM54:
.LBB18:
.LBI18:
.LM55:
.LBB19:
.LM56:
.LM57:
	lw	a5,0(a0)
.LVL16:
.LM58:
.LBE19:
.LBE18:
.LM59:
	bne	a5,zero,.L14
.LM60:
.LM61:
	sw	a1,4(a0)
.L14:
.LM62:
.LM63:
	sw	a5,0(a1)
.LM64:
.LM65:
	sw	a1,0(a0)
.LM66:
	ret
	.cfi_endproc
.LFE22:
	.size	utils_list_push_front, .-utils_list_push_front
	.section	.text.utils_list_pop_front,"ax",@progbits
	.align	1
	.globl	utils_list_pop_front
	.type	utils_list_pop_front, @function
utils_list_pop_front:
.LVL17:
.LFB23:
.LM67:
	.cfi_startproc
.LM68:
.LM69:
.LM70:
	lw	a5,0(a0)
.LVL18:
.LM71:
.LM72:
	beq	a5,zero,.L15
.LM73:
.LM74:
	lw	a4,0(a5)
.LM75:
	sw	a4,0(a0)
.LM76:
.L15:
.LM77:
	mv	a0,a5
.LVL19:
.LM78:
	ret
	.cfi_endproc
.LFE23:
	.size	utils_list_pop_front, .-utils_list_pop_front
	.section	.text.utils_list_extract,"ax",@progbits
	.align	1
	.globl	utils_list_extract
	.type	utils_list_extract, @function
utils_list_extract:
.LVL20:
.LFB24:
.LM79:
	.cfi_startproc
.LM80:
.LM81:
.LM82:
	lw	a5,0(a0)
.LVL21:
.LM83:
.LM84:
	beq	a5,zero,.L20
.LM85:
.LM86:
	bne	a5,a1,.L22
.LM87:
.LM88:
	lw	a5,0(a5)
.LVL22:
.LM89:
	sw	a5,0(a0)
.LVL23:
.LM90:
	ret
.LVL24:
.L22:
.LM91:
	mv	a4,a5
.LM92:
	lw	a5,0(a5)
.LVL25:
.LM93:
	beq	a5,zero,.L20
.LM94:
	bne	a5,a1,.L22
.LM95:
.LM96:
.LM97:
	lw	a5,4(a0)
	bne	a5,a1,.L25
.LM98:
.LM99:
	sw	a4,4(a0)
.L25:
.LM100:
.LM101:
	lw	a5,0(a1)
.LM102:
	sw	a5,0(a4)
	ret
.LVL26:
.L20:
.LM103:
	ret
	.cfi_endproc
.LFE24:
	.size	utils_list_extract, .-utils_list_extract
	.section	.text.utils_list_find,"ax",@progbits
	.align	1
	.globl	utils_list_find
	.type	utils_list_find, @function
utils_list_find:
.LVL27:
.LFB25:
.LM104:
	.cfi_startproc
.LM105:
.LM106:
.LM107:
	lw	a5,0(a0)
.LVL28:
.LM108:
.L36:
.LM109:
	beq	a5,a1,.L37
.LM110:
	bne	a5,zero,.L38
.L37:
.LM111:
.LM112:
	sub	a1,a1,a5
.LVL29:
.LM113:
	seqz	a0,a1
.LVL30:
.LM114:
	ret
.LVL31:
.L38:
.LM115:
.LM116:
	lw	a5,0(a5)
.LVL32:
.LM117:
	j	.L36
	.cfi_endproc
.LFE25:
	.size	utils_list_find, .-utils_list_find
	.section	.text.utils_list_cnt,"ax",@progbits
	.align	1
	.globl	utils_list_cnt
	.type	utils_list_cnt, @function
utils_list_cnt:
.LVL33:
.LFB26:
.LM118:
	.cfi_startproc
.LM119:
.LM120:
.LBB20:
.LBI20:
.LM121:
.LBB21:
.LM122:
.LM123:
	lw	a5,0(a0)
.LVL34:
.LM124:
.LBE21:
.LBE20:
.LM125:
.LM126:
	li	a0,0
.LVL35:
.L41:
.LM127:
	bne	a5,zero,.L42
.LM128:
.LM129:
	ret
.L42:
.LM130:
.LBB22:
.LBB23:
.LM131:
	lw	a5,0(a5)
.LVL36:
.LM132:
.LBE23:
.LBE22:
.LM133:
	addi	a0,a0,1
.LVL37:
.LM134:
.LBB25:
.LBI22:
.LM135:
.LBB24:
.LM136:
	j	.L41
.LBE24:
.LBE25:
	.cfi_endproc
.LFE26:
	.size	utils_list_cnt, .-utils_list_cnt
	.section	.text.utils_list_insert,"ax",@progbits
	.align	1
	.globl	utils_list_insert
	.type	utils_list_insert, @function
utils_list_insert:
.LVL38:
.LFB27:
.LM137:
	.cfi_startproc
.LM138:
.LM139:
.LM140:
	addi	sp,sp,-32
	.cfi_def_cfa_offset 32
	sw	s0,24(sp)
	sw	s1,20(sp)
	sw	s2,16(sp)
	sw	ra,28(sp)
	.cfi_offset 8, -8
	.cfi_offset 9, -12
	.cfi_offset 18, -16
	.cfi_offset 1, -4
.LM141:
	mv	s0,a1
.LM142:
	lw	a1,0(a0)
.LVL39:
.LM143:
	mv	s1,a0
.LM144:
	li	s2,0
.LVL40:
.L46:
.LM145:
.LM146:
.LM147:
	beq	a1,zero,.L44
.LM148:
.LM149:
	mv	a0,s0
	sw	a1,12(sp)
	sw	a2,8(sp)
	jalr	a2
.LVL41:
.LM150:
	lw	a1,12(sp)
	bne	a0,zero,.L45
.LM151:
.LVL42:
.LM152:
.LM153:
.LM154:
	mv	s2,a1
.LM155:
	lw	a2,8(sp)
.LM156:
	lw	a1,0(a1)
.LVL43:
.LM157:
	j	.L46
.L44:
.LM158:
.LM159:
	sw	s0,4(s1)
.LM160:
.LVL44:
.L45:
.LM161:
.LM162:
	sw	a1,0(s0)
.LM163:
.LM164:
	beq	s2,zero,.L47
.LM165:
.LM166:
	sw	s0,0(s2)
.L43:
.LM167:
	lw	ra,28(sp)
	.cfi_remember_state
	.cfi_restore 1
	lw	s0,24(sp)
	.cfi_restore 8
.LVL45:
.LM168:
	lw	s1,20(sp)
	.cfi_restore 9
.LVL46:
.LM169:
	lw	s2,16(sp)
	.cfi_restore 18
.LVL47:
.LM170:
	addi	sp,sp,32
	.cfi_def_cfa_offset 0
	jr	ra
.LVL48:
.L47:
	.cfi_restore_state
.LM171:
.LM172:
	sw	s0,0(s1)
.LM173:
	j	.L43
	.cfi_endproc
.LFE27:
	.size	utils_list_insert, .-utils_list_insert
	.section	.text.utils_list_insert_after,"ax",@progbits
	.align	1
	.globl	utils_list_insert_after
	.type	utils_list_insert_after, @function
utils_list_insert_after:
.LVL49:
.LFB28:
.LM174:
	.cfi_startproc
.LM175:
.LM176:
.LM177:
	beq	a1,zero,.L51
.LM178:
	lw	a5,0(a0)
.LVL50:
.L52:
.LM179:
	bne	a5,zero,.L54
	ret
.LVL51:
.L51:
.LM180:
	mv	a1,a2
.LVL52:
.LM181:
	tail	utils_list_push_front
.LVL53:
.L54:
.LM182:
.LM183:
	beq	a5,a1,.L53
.LM184:
.LM185:
	lw	a5,0(a5)
.LVL54:
.LM186:
	j	.L52
.L56:
.LM187:
.LM188:
	sw	a2,4(a0)
.LM189:
	ret
.LVL55:
.L53:
.LM190:
.LM191:
.LM192:
	lw	a4,0(a5)
.LM193:
	sw	a4,0(a2)
.LM194:
.LM195:
	sw	a2,0(a5)
.LM196:
.LM197:
	lw	a5,0(a2)
.LVL56:
.LM198:
	beq	a5,zero,.L56
.LM199:
	ret
	.cfi_endproc
.LFE28:
	.size	utils_list_insert_after, .-utils_list_insert_after
	.section	.text.utils_list_insert_before,"ax",@progbits
	.align	1
	.globl	utils_list_insert_before
	.type	utils_list_insert_before, @function
utils_list_insert_before:
.LVL57:
.LFB29:
.LM200:
	.cfi_startproc
.LM201:
.LM202:
	bne	a1,zero,.L59
.LM203:
	mv	a1,a2
.LVL58:
.LM204:
	tail	utils_list_push_back
.LVL59:
.L59:
.LM205:
.LM206:
	lw	a5,0(a0)
.LM207:
	bne	a5,a1,.L60
.LM208:
	mv	a1,a2
.LVL60:
.LM209:
	tail	utils_list_push_front
.LVL61:
.L62:
.LBB26:
.LM210:
.LM211:
	lw	a4,0(a5)
.LM212:
	beq	a4,a1,.L61
.LM213:
	mv	a5,a4
.LVL62:
.L60:
.LM214:
	bne	a5,zero,.L62
	ret
.L61:
.LM215:
.LM216:
.LM217:
	sw	a1,0(a2)
.LM218:
.LM219:
	sw	a2,0(a5)
.LBE26:
.LM220:
	ret
	.cfi_endproc
.LFE29:
	.size	utils_list_insert_before, .-utils_list_insert_before
	.section	.text.utils_list_concat,"ax",@progbits
	.align	1
	.globl	utils_list_concat
	.type	utils_list_concat, @function
utils_list_concat:
.LVL63:
.LFB30:
.LM221:
	.cfi_startproc
.LM222:
.LM223:
	lw	a5,0(a1)
.LM224:
	beq	a5,zero,.L65
.LM225:
.LM226:
	lw	a4,0(a0)
	bne	a4,zero,.L67
.LM227:
.LM228:
	sw	a5,0(a0)
.L72:
.LM229:
.LM230:
	lw	a5,4(a1)
.LM231:
	sw	a5,4(a0)
.LM232:
.LM233:
	sw	zero,0(a1)
.L65:
.LM234:
	ret
.L67:
.LM235:
.LM236:
	lw	a4,4(a0)
.LM237:
	sw	a5,0(a4)
	j	.L72
	.cfi_endproc
.LFE30:
	.size	utils_list_concat, .-utils_list_concat
	.section	.text.utils_list_remove,"ax",@progbits
	.align	1
	.globl	utils_list_remove
	.type	utils_list_remove, @function
utils_list_remove:
.LVL64:
.LFB31:
.LM238:
	.cfi_startproc
.LM239:
.LM240:
	lw	a5,0(a2)
.LM241:
	bne	a1,zero,.L74
.LM242:
.LM243:
	sw	a5,0(a0)
.L75:
.LM244:
.LM245:
	sw	zero,0(a2)
.LM246:
	ret
.L74:
.LM247:
.LM248:
	sw	a5,0(a1)
.LM249:
.LM250:
	lw	a5,4(a0)
	bne	a5,a2,.L75
.LM251:
.LM252:
	sw	a1,4(a0)
	j	.L75
	.cfi_endproc
.LFE31:
	.size	utils_list_remove, .-utils_list_remove
	.text
.Letext0:
	.section	.note.GNU-stack,"",@progbits
