	.file	"utils_fec.c"
	.option nopic
	.attribute arch, "rv32i2p1_m2p0_f2p2_c2p0_zicsr2p0_zmmul1p0_zca1p0_zcf1p0"
	.attribute unaligned_access, 0
	.attribute stack_align, 16
	.text
.Ltext0:
	.cfi_sections	.debug_frame
	.section	.text.poly_init,"ax",@progbits
	.align	1
	.globl	poly_init
	.type	poly_init, @function
poly_init:
.LVL0:
.LFB5:
.LM1:
	.cfi_startproc
.LM2:
.LM3:
.LM4:
	sb	a1,0(a0)
.LM5:
.LM6:
	sb	a3,1(a0)
.LM7:
.LM8:
	sh	a2,2(a0)
.LM9:
.LM10:
	sw	a4,4(a0)
.LM11:
.LM12:
	sb	zero,8(a0)
.LM13:
	ret
	.cfi_endproc
.LFE5:
	.size	poly_init, .-poly_init
	.section	.text.poly_ptr,"ax",@progbits
	.align	1
	.globl	poly_ptr
	.type	poly_ptr, @function
poly_ptr:
.LVL1:
.LFB6:
.LM14:
	.cfi_startproc
.LM15:
.LM16:
.LM17:
	lhu	a5,2(a0)
.LM18:
	lw	a0,4(a0)
.LVL2:
.LM19:
	add	a0,a0,a5
	ret
	.cfi_endproc
.LFE6:
	.size	poly_ptr, .-poly_ptr
	.section	.text.poly_reset,"ax",@progbits
	.align	1
	.globl	poly_reset
	.type	poly_reset, @function
poly_reset:
.LVL3:
.LFB7:
.LM20:
	.cfi_startproc
.LM21:
.LM22:
.LBB298:
.LBI298:
.LM23:
.LBB299:
.LM24:
.LM25:
.LM26:
	lhu	a5,2(a0)
.LM27:
	lw	a4,4(a0)
.LBE299:
.LBE298:
.LM28:
	lbu	a2,1(a0)
	li	a1,0
	add	a0,a4,a5
.LVL4:
.LM29:
	tail	memset
.LVL5:
	.cfi_endproc
.LFE7:
	.size	poly_reset, .-poly_reset
	.section	.text.poly_set,"ax",@progbits
	.align	1
	.globl	poly_set
	.type	poly_set, @function
poly_set:
.LVL6:
.LFB8:
.LM30:
	.cfi_startproc
.LM31:
.LM32:
.LBB300:
.LBI300:
.LM33:
.LBB301:
.LM34:
.LM35:
.LM36:
.LBE301:
.LBE300:
.LM37:
	addi	sp,sp,-32
	.cfi_def_cfa_offset 32
	sw	s0,24(sp)
	sw	ra,28(sp)
	.cfi_offset 8, -8
	.cfi_offset 1, -4
.LBB303:
.LBB302:
.LM38:
	lhu	a5,2(a0)
.LBE302:
.LBE303:
.LM39:
	mv	s0,a0
.LM40:
	lw	a0,4(a0)
.LVL7:
.LM41:
	add	a5,a5,a3
.LM42:
	sw	a2,12(sp)
.LM43:
	add	a0,a0,a5
.LM44:
	sw	a3,8(sp)
.LM45:
	call	memcpy
.LVL8:
.LM46:
.LM47:
	lw	a3,8(sp)
	lw	a2,12(sp)
	add	a3,a3,a2
.LM48:
	sb	a3,8(s0)
.LM49:
	lw	ra,28(sp)
	.cfi_restore 1
	lw	s0,24(sp)
	.cfi_restore 8
.LVL9:
.LM50:
	addi	sp,sp,32
	.cfi_def_cfa_offset 0
.LVL10:
.LM51:
	jr	ra
	.cfi_endproc
.LFE8:
	.size	poly_set, .-poly_set
	.section	.text.poly_at,"ax",@progbits
	.align	1
	.globl	poly_at
	.type	poly_at, @function
poly_at:
.LVL11:
.LFB9:
.LM52:
	.cfi_startproc
.LM53:
.LM54:
.LM55:
.LBB304:
.LBI304:
.LM56:
.LBB305:
.LM57:
.LM58:
.LM59:
.LBE305:
.LBE304:
.LM60:
.LBB307:
.LBB306:
.LM61:
	lhu	a5,2(a0)
.LBE306:
.LBE307:
.LM62:
	lw	a0,4(a0)
.LVL12:
.LM63:
	add	a5,a5,a1
.LVL13:
.LM64:
	add	a0,a0,a5
.LVL14:
.LM65:
	ret
	.cfi_endproc
.LFE9:
	.size	poly_at, .-poly_at
	.section	.text.poly_get_size,"ax",@progbits
	.align	1
	.globl	poly_get_size
	.type	poly_get_size, @function
poly_get_size:
.LVL15:
.LFB10:
.LM66:
	.cfi_startproc
.LM67:
.LM68:
.LM69:
	lbu	a0,1(a0)
.LVL16:
.LM70:
	ret
	.cfi_endproc
.LFE10:
	.size	poly_get_size, .-poly_get_size
	.section	.text.poly_get_id,"ax",@progbits
	.align	1
	.globl	poly_get_id
	.type	poly_get_id, @function
poly_get_id:
.LVL17:
.LFB11:
.LM71:
	.cfi_startproc
.LM72:
.LM73:
.LM74:
	lbu	a0,0(a0)
.LVL18:
.LM75:
	ret
	.cfi_endproc
.LFE11:
	.size	poly_get_id, .-poly_get_id
	.section	.text.poly_copy,"ax",@progbits
	.align	1
	.globl	poly_copy
	.type	poly_copy, @function
poly_copy:
.LVL19:
.LFB12:
.LM76:
	.cfi_startproc
.LM77:
.LM78:
.LM79:
	lbu	a4,8(a1)
	lbu	a5,8(a0)
	andi	a2,a4,0xff
	bgeu	a4,a5,.L10
	andi	a2,a5,0xff
.L10:
.LM80:
	sb	a2,8(a0)
.LM81:
.LVL20:
.LBB308:
.LBI308:
.LM82:
.LBB309:
.LM83:
.LM84:
.LM85:
	lhu	a5,2(a1)
.LM86:
	lw	a1,4(a1)
.LVL21:
.LM87:
.LBE309:
.LBE308:
.LM88:
	li	a3,0
	add	a1,a1,a5
	tail	poly_set
.LVL22:
.LM89:
	.cfi_endproc
.LFE12:
	.size	poly_copy, .-poly_copy
	.section	.text.poly_append,"ax",@progbits
	.align	1
	.globl	poly_append
	.type	poly_append, @function
poly_append:
.LVL23:
.LFB13:
.LM90:
	.cfi_startproc
.LM91:
.LM92:
.LM93:
.LBB310:
.LBI310:
.LM94:
.LBB311:
.LM95:
.LM96:
.LBE311:
.LBE310:
.LM97:
	lbu	a4,8(a0)
.LBB313:
.LBB312:
.LM98:
	lw	a5,4(a0)
.LM99:
	lhu	a3,2(a0)
.LVL24:
.LM100:
.LBE312:
.LBE313:
.LM101:
.LM102:
	addi	a2,a4,1
.LM103:
	add	a5,a5,a4
.LVL25:
.LM104:
	sb	a2,8(a0)
.LM105:
	add	a5,a5,a3
	sb	a1,0(a5)
.LVL26:
.LM106:
.LM107:
	li	a0,1
.LVL27:
.LM108:
	ret
	.cfi_endproc
.LFE13:
	.size	poly_append, .-poly_append
	.section	.text.gf_add,"ax",@progbits
	.align	1
	.globl	gf_add
	.type	gf_add, @function
gf_add:
.LVL28:
.LFB14:
.LM109:
	.cfi_startproc
.LM110:
.LM111:
	add	a0,a0,a1
.LVL29:
.LM112:
	andi	a0,a0,0xff
	ret
	.cfi_endproc
.LFE14:
	.size	gf_add, .-gf_add
	.section	.text.gf_sub,"ax",@progbits
	.align	1
	.globl	gf_sub
	.type	gf_sub, @function
gf_sub:
.LVL30:
.LFB15:
.LM113:
	.cfi_startproc
.LM114:
.LM115:
	xor	a0,a0,a1
.LVL31:
.LM116:
	ret
	.cfi_endproc
.LFE15:
	.size	gf_sub, .-gf_sub
	.section	.text.gf_mul,"ax",@progbits
	.align	1
	.globl	gf_mul
	.type	gf_mul, @function
gf_mul:
.LVL32:
.LFB16:
.LM117:
	.cfi_startproc
.LM118:
.LM119:
	beq	a1,zero,.L16
	beq	a0,zero,.L16
.LM120:
.LM121:
	lui	a4,%hi(code_log)
	addi	a4,a4,%lo(code_log)
	add	a0,a4,a0
.LVL33:
.LM122:
	lbu	a3,0(a0)
.LM123:
	add	a4,a4,a1
	lbu	a4,0(a4)
.LM124:
	lui	a5,%hi(code_exp)
	addi	a5,a5,%lo(code_exp)
	add	a5,a5,a3
	add	a5,a5,a4
	lbu	a0,0(a5)
	ret
.LVL34:
.L16:
.LM125:
	li	a0,0
.LVL35:
.LM126:
	ret
	.cfi_endproc
.LFE16:
	.size	gf_mul, .-gf_mul
	.section	.text.gf_div,"ax",@progbits
	.align	1
	.globl	gf_div
	.type	gf_div, @function
gf_div:
.LVL36:
.LFB17:
.LM127:
	.cfi_startproc
.LM128:
.LM129:
.LM130:
	beq	a0,zero,.L18
.LVL37:
.LBB316:
.LBI316:
.LM131:
.LBB317:
.LM132:
.LM133:
	lui	a4,%hi(code_log)
	addi	a4,a4,%lo(code_log)
	add	a0,a4,a0
.LVL38:
.LM134:
	lbu	a5,0(a0)
.LM135:
	add	a4,a4,a1
	lbu	a4,0(a4)
.LM136:
	addi	a5,a5,255
.LM137:
	lui	a3,%hi(code_exp)
.LM138:
	sub	a5,a5,a4
.LM139:
	li	a4,255
	rem	a5,a5,a4
.LM140:
	addi	a3,a3,%lo(code_exp)
	add	a3,a3,a5
	lbu	a0,0(a3)
.LVL39:
.L18:
.LM141:
.LBE317:
.LBE316:
.LM142:
	ret
	.cfi_endproc
.LFE17:
	.size	gf_div, .-gf_div
	.section	.text.gf_pow,"ax",@progbits
	.align	1
	.globl	gf_pow
	.type	gf_pow, @function
gf_pow:
.LVL40:
.LFB18:
.LM143:
	.cfi_startproc
.LM144:
.LM145:
	lui	a5,%hi(code_log)
	addi	a5,a5,%lo(code_log)
	add	a5,a5,a0
.LM146:
	lbu	a0,0(a5)
.LVL41:
.LM147:
.LM148:
	addi	sp,sp,-16
	.cfi_def_cfa_offset 16
.LM149:
	li	a3,0
.LM150:
	mul	a5,a2,a0
.LM151:
	li	a2,255
.LM152:
	sw	ra,12(sp)
	.cfi_offset 1, -4
.LM153:
	mulhu	a6,a0,a1
.LVL42:
.LM154:
.LM155:
	mul	a0,a0,a1
.LVL43:
.LM156:
	add	a1,a5,a6
.LVL44:
.LM157:
	call	__moddi3
.LVL45:
.LM158:
.LM159:
	addi	a4,a0,255
.LM160:
	blt	a1,zero,.L23
	mv	a4,a0
.L23:
.LM161:
.LM162:
	lw	ra,12(sp)
	.cfi_restore 1
.LM163:
	lui	a5,%hi(code_exp)
	addi	a5,a5,%lo(code_exp)
	add	a5,a5,a4
.LM164:
	lbu	a0,0(a5)
.LVL46:
.LM165:
	addi	sp,sp,16
	.cfi_def_cfa_offset 0
	jr	ra
	.cfi_endproc
.LFE18:
	.size	gf_pow, .-gf_pow
	.section	.text.gf_inverse,"ax",@progbits
	.align	1
	.globl	gf_inverse
	.type	gf_inverse, @function
gf_inverse:
.LVL47:
.LFB19:
.LM166:
	.cfi_startproc
.LM167:
.LM168:
	lui	a4,%hi(code_log)
	addi	a4,a4,%lo(code_log)
	add	a4,a4,a0
	lbu	a4,0(a4)
.LM169:
	lui	a5,%hi(code_exp)
.LM170:
	addi	a5,a5,%lo(code_exp)
	sub	a5,a5,a4
.LM171:
	lbu	a0,255(a5)
.LVL48:
.LM172:
	ret
	.cfi_endproc
.LFE19:
	.size	gf_inverse, .-gf_inverse
	.section	.text.poly_scale,"ax",@progbits
	.align	1
	.globl	poly_scale
	.type	poly_scale, @function
poly_scale:
.LVL49:
.LFB20:
.LM173:
	.cfi_startproc
.LM174:
.LM175:
.LM176:
	addi	sp,sp,-48
	.cfi_def_cfa_offset 48
	sw	s0,40(sp)
	sw	s1,36(sp)
	sw	s2,32(sp)
	sw	ra,44(sp)
	sw	s3,28(sp)
	.cfi_offset 8, -8
	.cfi_offset 9, -12
	.cfi_offset 18, -16
	.cfi_offset 1, -4
	.cfi_offset 19, -20
.LM177:
	lbu	a5,8(a0)
.LM178:
	mv	s1,a0
	mv	s2,a1
.LM179:
	sb	a5,8(a1)
.LM180:
.LVL50:
.LM181:
	li	s0,0
.LVL51:
.L29:
.LM182:
	lbu	a4,8(s1)
	slli	a5,s0,16
	srli	a5,a5,16
	bgtu	a4,a5,.L30
.LM183:
	lw	ra,44(sp)
	.cfi_remember_state
	.cfi_restore 1
	lw	s0,40(sp)
	.cfi_restore 8
.LVL52:
.LM184:
	lw	s1,36(sp)
	.cfi_restore 9
.LVL53:
.LM185:
	lw	s2,32(sp)
	.cfi_restore 18
.LVL54:
.LM186:
	lw	s3,28(sp)
	.cfi_restore 19
	addi	sp,sp,48
	.cfi_def_cfa_offset 0
	jr	ra
.LVL55:
.L30:
	.cfi_restore_state
.LM187:
.LBB318:
.LBI318:
.LM188:
.LBB319:
.LM189:
.LM190:
.LM191:
.LBB320:
.LBI320:
.LM192:
.LBB321:
.LM193:
.LM194:
.LM195:
.LBE321:
.LBE320:
.LM196:
.LM197:
.LBE319:
.LBE318:
.LBB325:
.LBI325:
.LM198:
.LBB326:
.LM199:
.LM200:
.LM201:
.LBB327:
.LBI327:
.LM202:
.LBB328:
.LM203:
.LM204:
.LM205:
.LBE328:
.LBE327:
.LM206:
.LBB330:
.LBB329:
.LM207:
	lhu	a5,2(s2)
.LBE329:
.LBE330:
.LM208:
	lw	s3,4(s2)
.LBE326:
.LBE325:
.LBB332:
.LBB324:
.LBB323:
.LBB322:
.LM209:
	lhu	a4,2(s1)
.LBE322:
.LBE323:
.LBE324:
.LBE332:
.LBB333:
.LBB331:
.LM210:
	add	a5,a5,s0
	add	s3,s3,a5
.LVL56:
.LM211:
.LBE331:
.LBE333:
.LM212:
	lw	a5,4(s1)
.LM213:
	mv	a1,a2
	sw	a2,12(sp)
.LM214:
	add	a5,a5,s0
	add	a5,a5,a4
.LM215:
	lbu	a0,0(a5)
	addi	s0,s0,1
.LVL57:
.LM216:
	call	gf_mul
.LVL58:
.LM217:
	lw	a2,12(sp)
.LM218:
	sb	a0,0(s3)
.LM219:
.LVL59:
.LM220:
	j	.L29
	.cfi_endproc
.LFE20:
	.size	poly_scale, .-poly_scale
	.section	.text.poly_add,"ax",@progbits
	.align	1
	.globl	poly_add
	.type	poly_add, @function
poly_add:
.LVL60:
.LFB21:
.LM221:
	.cfi_startproc
.LM222:
.LM223:
.LM224:
	addi	sp,sp,-16
	.cfi_def_cfa_offset 16
	sw	s0,8(sp)
	sw	s1,4(sp)
	sw	s2,0(sp)
	sw	ra,12(sp)
	.cfi_offset 8, -8
	.cfi_offset 9, -12
	.cfi_offset 18, -16
	.cfi_offset 1, -4
.LM225:
	lbu	a5,8(a0)
	lbu	a4,8(a1)
.LM226:
	mv	s0,a2
	mv	s2,a0
	mv	s1,a1
.LM227:
	andi	a2,a5,0xff
.LVL61:
.LM228:
	bltu	a4,a5,.L33
	andi	a2,a4,0xff
.L33:
.LBB334:
.LBB335:
.LM229:
	lhu	a5,2(s0)
.LM230:
	lw	a0,4(s0)
.LVL62:
.LM231:
.LBE335:
.LBE334:
.LM232:
	sb	a2,8(s0)
.LM233:
.LVL63:
.LBB337:
.LBI334:
.LM234:
.LBB336:
.LM235:
.LM236:
.LM237:
.LBE336:
.LBE337:
.LM238:
	li	a1,0
.LVL64:
.LM239:
	add	a0,a0,a5
	call	memset
.LVL65:
.LM240:
.LM241:
	li	a5,0
.LVL66:
.L34:
.LM242:
.LM243:
	lbu	a3,8(s2)
.LM244:
	bgtu	a3,a5,.L35
.LM245:
	li	a4,0
.LVL67:
.L36:
.LM246:
.LM247:
	lbu	a3,8(s1)
.LM248:
	bgtu	a3,a4,.L37
.LM249:
	lw	ra,12(sp)
	.cfi_remember_state
	.cfi_restore 1
	lw	s0,8(sp)
	.cfi_restore 8
.LVL68:
.LM250:
	lw	s1,4(sp)
	.cfi_restore 9
.LVL69:
.LM251:
	lw	s2,0(sp)
	.cfi_restore 18
.LVL70:
.LM252:
	addi	sp,sp,16
	.cfi_def_cfa_offset 0
	jr	ra
.LVL71:
.L35:
	.cfi_restore_state
.LM253:
.LBB338:
.LBI338:
.LM254:
.LBB339:
.LM255:
.LM256:
.LM257:
.LBB340:
.LBI340:
.LM258:
.LBB341:
.LM259:
.LM260:
.LM261:
.LBE341:
.LBE340:
.LM262:
.LM263:
.LBE339:
.LBE338:
.LBB345:
.LBI345:
.LM264:
.LBB346:
.LM265:
.LM266:
.LM267:
.LBB347:
.LBI347:
.LM268:
.LBB348:
.LM269:
.LM270:
.LM271:
.LBE348:
.LBE347:
.LM272:
.LM273:
.LBE346:
.LBE345:
.LM274:
	lw	a4,4(s2)
.LBB353:
.LBB344:
.LBB343:
.LBB342:
.LM275:
	lhu	a2,2(s2)
.LBE342:
.LBE343:
.LBE344:
.LBE353:
.LBB354:
.LBB351:
.LBB350:
.LBB349:
	lhu	a1,2(s0)
.LBE349:
.LBE350:
.LBE351:
.LBE354:
.LM276:
	add	a4,a4,a5
	add	a4,a4,a2
	lbu	a2,0(a4)
.LM277:
	lbu	a4,8(s0)
	sub	a4,a4,a3
.LM278:
	lw	a3,4(s0)
.LM279:
	add	a4,a5,a4
.LBB355:
.LBB352:
.LM280:
	andi	a4,a4,0xff
.LBE352:
.LBE355:
.LM281:
	add	a4,a3,a4
	add	a4,a4,a1
.LM282:
	addi	a5,a5,1
.LVL72:
.LM283:
	sb	a2,0(a4)
.LVL73:
.LM284:
	andi	a5,a5,0xff
.LVL74:
.LM285:
	j	.L34
.LVL75:
.L37:
.LM286:
.LBB356:
.LBI356:
.LM287:
.LBB357:
.LM288:
.LM289:
.LM290:
.LBB358:
.LBI358:
.LM291:
.LBB359:
.LM292:
.LM293:
.LM294:
.LBE359:
.LBE358:
.LM295:
.LM296:
.LBE357:
.LBE356:
.LBB363:
.LBI363:
.LM297:
.LBB364:
.LM298:
.LM299:
.LM300:
.LBB365:
.LBI365:
.LM301:
.LBB366:
.LM302:
.LM303:
.LM304:
.LBE366:
.LBE365:
.LM305:
.LBE364:
.LBE363:
.LM306:
	lbu	a5,8(s0)
.LBB371:
.LBB362:
.LBB361:
.LBB360:
.LM307:
	lhu	a2,2(s1)
.LBE360:
.LBE361:
.LBE362:
.LBE371:
.LM308:
	sub	a5,a5,a3
.LBB372:
.LBB369:
.LBB368:
.LBB367:
.LM309:
	lhu	a3,2(s0)
.LVL76:
.LM310:
.LBE367:
.LBE368:
.LBE369:
.LBE372:
.LM311:
	add	a5,a4,a5
.LBB373:
.LBB370:
.LM312:
	andi	a5,a5,0xff
	add	a5,a5,a3
	lw	a3,4(s0)
	add	a3,a3,a5
.LVL77:
.LM313:
.LBE370:
.LBE373:
.LM314:
	lw	a5,4(s1)
	add	a5,a5,a4
	add	a5,a5,a2
.LM315:
	lbu	a5,0(a5)
	lbu	a2,0(a3)
.LM316:
	addi	a4,a4,1
.LVL78:
.LM317:
	andi	a4,a4,0xff
.LVL79:
.LM318:
	xor	a5,a5,a2
	sb	a5,0(a3)
.LVL80:
.LM319:
	j	.L36
	.cfi_endproc
.LFE21:
	.size	poly_add, .-poly_add
	.section	.text.poly_mul,"ax",@progbits
	.align	1
	.globl	poly_mul
	.type	poly_mul, @function
poly_mul:
.LVL81:
.LFB22:
.LM320:
	.cfi_startproc
.LM321:
.LM322:
.LM323:
	addi	sp,sp,-32
	.cfi_def_cfa_offset 32
	sw	s0,24(sp)
	sw	s2,16(sp)
	sw	s3,12(sp)
	sw	s4,8(sp)
	sw	ra,28(sp)
	sw	s1,20(sp)
	.cfi_offset 8, -8
	.cfi_offset 18, -16
	.cfi_offset 19, -20
	.cfi_offset 20, -24
	.cfi_offset 1, -4
	.cfi_offset 9, -12
.LM324:
	mv	s2,a2
.LM325:
	lbu	a2,8(a1)
.LVL82:
.LM326:
	lbu	a5,8(a0)
.LM327:
	mv	s4,a0
.LM328:
	addi	a2,a2,-1
.LBB374:
.LBB375:
.LM329:
	lw	a0,4(s2)
.LVL83:
.LM330:
.LBE375:
.LBE374:
.LM331:
	add	a2,a2,a5
.LBB378:
.LBB376:
.LM332:
	lhu	a5,2(s2)
.LBE376:
.LBE378:
.LM333:
	andi	a2,a2,0xff
.LM334:
	mv	s3,a1
.LM335:
	sb	a2,8(s2)
.LM336:
.LVL84:
.LBB379:
.LBI374:
.LM337:
.LBB377:
.LM338:
.LM339:
.LM340:
.LBE377:
.LBE379:
.LM341:
	li	a1,0
.LVL85:
.LM342:
	add	a0,a0,a5
	call	memset
.LVL86:
.LM343:
.LM344:
	li	s0,0
.LVL87:
.L41:
.LM345:
	lbu	a5,8(s3)
	bgtu	a5,s0,.L44
.LM346:
	lw	ra,28(sp)
	.cfi_remember_state
	.cfi_restore 1
	lw	s0,24(sp)
	.cfi_restore 8
.LVL88:
.LM347:
	lw	s1,20(sp)
	.cfi_restore 9
	lw	s2,16(sp)
	.cfi_restore 18
.LVL89:
.LM348:
	lw	s3,12(sp)
	.cfi_restore 19
.LVL90:
.LM349:
	lw	s4,8(sp)
	.cfi_restore 20
.LVL91:
.LM350:
	addi	sp,sp,32
	.cfi_def_cfa_offset 0
	jr	ra
.LVL92:
.L42:
	.cfi_restore_state
.LM351:
.LBB380:
.LBI380:
.LM352:
.LBB381:
.LM353:
.LM354:
.LM355:
.LBB382:
.LBI382:
.LM356:
.LBB383:
.LM357:
.LM358:
.LM359:
.LBE383:
.LBE382:
.LM360:
.LM361:
.LBE381:
.LBE380:
.LBB387:
.LBI387:
.LM362:
.LBB388:
.LM363:
.LM364:
.LM365:
.LBB389:
.LBI389:
.LM366:
.LBB390:
.LM367:
.LM368:
.LM369:
.LBE390:
.LBE389:
.LM370:
.LM371:
.LBE388:
.LBE387:
.LM372:
	lw	a4,4(s3)
.LBB394:
.LBB393:
.LBB392:
.LBB391:
.LM373:
	lhu	a5,2(s3)
.LBE391:
.LBE392:
.LBE393:
.LBE394:
.LBB395:
.LBB386:
.LBB385:
.LBB384:
	lhu	a3,2(s4)
.LBE384:
.LBE385:
.LBE386:
.LBE395:
.LM374:
	add	a4,a4,s0
	add	a4,a4,a5
.LM375:
	lw	a5,4(s4)
.LM376:
	lbu	a1,0(a4)
.LM377:
	add	a5,a5,s1
	add	a5,a5,a3
.LM378:
	lbu	a0,0(a5)
	call	gf_mul
.LVL93:
.LBB396:
.LBI396:
.LM379:
.LBB397:
.LM380:
.LM381:
.LM382:
.LBB398:
.LBI398:
.LM383:
.LBB399:
.LM384:
.LM385:
.LM386:
.LBE399:
.LBE398:
.LM387:
.LBB401:
.LBB400:
.LM388:
	lhu	a4,2(s2)
.LBE400:
.LBE401:
.LBE397:
.LBE396:
.LM389:
	add	a5,s1,s0
.LBB404:
.LBB402:
.LM390:
	andi	a5,a5,0xff
	add	a4,a4,a5
	lw	a5,4(s2)
.LBE402:
.LBE404:
.LM391:
	addi	s1,s1,1
.LVL94:
.LM392:
	andi	s1,s1,0xff
.LVL95:
.LBB405:
.LBB403:
.LM393:
	add	a5,a5,a4
.LVL96:
.LM394:
.LBE403:
.LBE405:
.LM395:
	lbu	a4,0(a5)
	xor	a0,a0,a4
	sb	a0,0(a5)
.LVL97:
.LM396:
.L43:
.LM397:
	lbu	a5,8(s4)
	bgtu	a5,s1,.L42
.LM398:
	addi	s0,s0,1
.LVL98:
.LM399:
	andi	s0,s0,0xff
	j	.L41
.LVL99:
.L44:
.LM400:
	li	s1,0
	j	.L43
	.cfi_endproc
.LFE22:
	.size	poly_mul, .-poly_mul
	.section	.text.poly_div,"ax",@progbits
	.align	1
	.globl	poly_div
	.type	poly_div, @function
poly_div:
.LVL100:
.LFB23:
.LM401:
	.cfi_startproc
.LM402:
.LM403:
.LM404:
.LM405:
.LBB406:
.LBI406:
.LM406:
.LBB407:
.LM407:
.LM408:
.LBE407:
.LBE406:
.LM409:
	addi	sp,sp,-48
	.cfi_def_cfa_offset 48
	sw	s0,40(sp)
	sw	s3,28(sp)
	sw	s4,24(sp)
	sw	ra,44(sp)
	sw	s1,36(sp)
	sw	s2,32(sp)
	.cfi_offset 8, -8
	.cfi_offset 19, -20
	.cfi_offset 20, -24
	.cfi_offset 1, -4
	.cfi_offset 9, -12
	.cfi_offset 18, -16
.LBB411:
.LBB408:
.LM410:
	lhu	a5,2(a0)
.LBE408:
.LBE411:
.LM411:
	mv	s4,a1
.LBB412:
.LBB409:
.LM412:
	lw	a1,4(a0)
.LVL101:
.LM413:
.LBE409:
.LBE412:
.LM414:
	mv	s3,a0
.LBB413:
.LBB414:
.LM415:
	lw	a0,4(a2)
.LVL102:
.LM416:
.LBE414:
.LBE413:
.LBB417:
.LBB410:
	add	a1,a1,a5
.LVL103:
.LM417:
.LBE410:
.LBE417:
.LBB418:
.LBI413:
.LM418:
.LBB415:
.LM419:
.LM420:
.LM421:
	lhu	a5,2(a2)
.LBE415:
.LBE418:
.LM422:
	mv	s0,a2
.LBB419:
.LBB416:
.LM423:
	add	a0,a0,a5
.LVL104:
.LM424:
.LBE416:
.LBE419:
.LM425:
	beq	a1,a0,.L47
.LM426:
.LM427:
	lbu	a2,8(s3)
.LVL105:
.LM428:
	call	memcpy
.LVL106:
.L47:
.LM429:
.LM430:
	lbu	a5,8(s3)
.LM431:
	li	s2,0
.LM432:
	sb	a5,8(s0)
.LM433:
.LVL107:
.L48:
.LM434:
.LM435:
	lbu	a5,8(s4)
.LM436:
	lbu	s1,8(s3)
.LBB420:
.LBB421:
.LBB422:
.LBB423:
.LM437:
	lhu	a0,2(s0)
.LBE423:
.LBE422:
.LBE421:
.LBE420:
.LM438:
	addi	a5,a5,-1
.LM439:
	sub	s1,s1,a5
.LBB430:
.LBB428:
.LBB426:
.LBB424:
.LM440:
	lw	a5,4(s0)
.LBE424:
.LBE426:
.LBE428:
.LBE430:
.LM441:
	bgt	s1,s2,.L53
.LM442:
.LVL108:
.LM443:
.LBB431:
.LBI431:
.LM444:
.LBB432:
.LM445:
.LM446:
.LM447:
.LBE432:
.LBE431:
.LM448:
	lbu	a2,8(s0)
.LM449:
	add	a1,s1,a0
.LM450:
	add	a1,a5,a1
	sub	a2,a2,s1
	add	a0,a5,a0
	call	memmove
.LVL109:
.LM451:
.LM452:
	lbu	a5,8(s0)
	sub	a5,a5,s1
.LM453:
	sb	a5,8(s0)
.LM454:
	lw	ra,44(sp)
	.cfi_remember_state
	.cfi_restore 1
	lw	s0,40(sp)
	.cfi_restore 8
.LVL110:
.LM455:
	lw	s1,36(sp)
	.cfi_restore 9
.LVL111:
.LM456:
	lw	s2,32(sp)
	.cfi_restore 18
.LVL112:
.LM457:
	lw	s3,28(sp)
	.cfi_restore 19
.LVL113:
.LM458:
	lw	s4,24(sp)
	.cfi_restore 20
.LVL114:
.LM459:
	addi	sp,sp,48
	.cfi_def_cfa_offset 0
	jr	ra
.LVL115:
.L53:
	.cfi_restore_state
.LM460:
.LBB433:
.LBI420:
.LM461:
.LBB429:
.LM462:
.LM463:
.LM464:
.LBB427:
.LBI422:
.LM465:
.LBB425:
.LM466:
.LM467:
.LM468:
.LBE425:
.LBE427:
.LM469:
.LM470:
.LBE429:
.LBE433:
.LM471:
	add	a5,a5,s2
	add	a5,a5,a0
	lbu	a1,0(a5)
.LVL116:
.LM472:
.LM473:
	bne	a1,zero,.L54
.LVL117:
.L52:
.LM474:
	addi	s2,s2,1
.LVL118:
.LM475:
	j	.L48
.LVL119:
.L51:
.LBB434:
.LM476:
.LBB435:
.LBI435:
.LM477:
.LBB436:
.LM478:
.LM479:
.LM480:
.LBB437:
.LBI437:
.LM481:
.LBB438:
.LM482:
.LM483:
.LM484:
.LBE438:
.LBE437:
.LM485:
.LM486:
.LBE436:
.LBE435:
.LM487:
	lw	a5,4(s4)
.LBB442:
.LBB441:
.LBB440:
.LBB439:
.LM488:
	lhu	a4,2(s4)
.LBE439:
.LBE440:
.LBE441:
.LBE442:
.LM489:
	add	a5,a5,s1
	add	a5,a5,a4
	lbu	a0,0(a5)
.LM490:
	beq	a0,zero,.L50
.LM491:
.LVL120:
.LM492:
	sw	a1,12(sp)
	call	gf_mul
.LVL121:
.LBB443:
.LBI443:
.LM493:
.LBB444:
.LM494:
.LM495:
.LM496:
.LBB445:
.LBI445:
.LM497:
.LBB446:
.LM498:
.LM499:
.LM500:
.LBE446:
.LBE445:
.LM501:
.LBB448:
.LBB447:
.LM502:
	lhu	a4,2(s0)
.LBE447:
.LBE448:
.LBE444:
.LBE443:
.LM503:
	add	a5,s1,s2
.LBB451:
.LBB449:
.LM504:
	andi	a5,a5,0xff
	add	a4,a4,a5
	lw	a5,4(s0)
.LBE449:
.LBE451:
.LM505:
	lw	a1,12(sp)
.LBB452:
.LBB450:
.LM506:
	add	a5,a5,a4
.LVL122:
.LM507:
.LBE450:
.LBE452:
.LM508:
	lbu	a4,0(a5)
	xor	a0,a0,a4
	sb	a0,0(a5)
.LVL123:
.L50:
.LM509:
	addi	s1,s1,1
.LVL124:
.LM510:
	andi	s1,s1,0xff
.LVL125:
.L49:
.LM511:
	lbu	a5,8(s4)
	bgtu	a5,s1,.L51
	j	.L52
.LVL126:
.L54:
.LM512:
	li	s1,1
	j	.L49
.LBE434:
	.cfi_endproc
.LFE23:
	.size	poly_div, .-poly_div
	.section	.text.poly_eval,"ax",@progbits
	.align	1
	.globl	poly_eval
	.type	poly_eval, @function
poly_eval:
.LVL127:
.LFB24:
.LM513:
	.cfi_startproc
.LM514:
.LBB453:
.LBI453:
.LM515:
.LBB454:
.LM516:
.LM517:
.LM518:
.LBB455:
.LBI455:
.LM519:
.LBB456:
.LM520:
.LM521:
.LM522:
.LBE456:
.LBE455:
.LM523:
.LBE454:
.LBE453:
.LM524:
	addi	sp,sp,-32
	.cfi_def_cfa_offset 32
	sw	s0,24(sp)
.LVL128:
.LM525:
	sw	ra,28(sp)
	sw	s1,20(sp)
	sw	s2,16(sp)
	.cfi_offset 8, -8
	.cfi_offset 1, -4
	.cfi_offset 9, -12
	.cfi_offset 18, -16
.LBB461:
.LBB459:
.LBB458:
.LBB457:
.LM526:
	lhu	a4,2(a0)
.LBE457:
.LBE458:
.LM527:
	lw	s1,4(a0)
.LBE459:
.LBE461:
.LM528:
	mv	a5,a0
.LBB462:
.LM529:
	lbu	s2,8(a5)
.LBE462:
.LBB463:
.LBB460:
.LM530:
	add	s1,s1,a4
.LVL129:
.LM531:
.LBE460:
.LBE463:
.LM532:
	lbu	a0,0(s1)
.LVL130:
.LM533:
.LBB464:
.LM534:
.LM535:
	li	s0,0
.LVL131:
.L60:
.LM536:
	addi	s0,s0,1
.LVL132:
.LM537:
	andi	a5,s0,0xff
	bgtu	s2,a5,.L61
.LM538:
.LBE464:
.LM539:
.LM540:
	lw	ra,28(sp)
	.cfi_remember_state
	.cfi_restore 1
	lw	s0,24(sp)
	.cfi_restore 8
.LVL133:
.LM541:
	slli	a0,a0,24
.LVL134:
.LM542:
	lw	s1,20(sp)
	.cfi_restore 9
	lw	s2,16(sp)
	.cfi_restore 18
	srai	a0,a0,24
	addi	sp,sp,32
	.cfi_def_cfa_offset 0
	jr	ra
.LVL135:
.L61:
	.cfi_restore_state
.LBB465:
.LM543:
.LM544:
	sw	a1,12(sp)
	call	gf_mul
.LVL136:
.LM545:
	add	a5,s1,s0
.LM546:
	lbu	a5,0(a5)
	lw	a1,12(sp)
	xor	a0,a0,a5
	andi	a0,a0,0xff
.LVL137:
.LM547:
	j	.L60
.LBE465:
	.cfi_endproc
.LFE24:
	.size	poly_eval, .-poly_eval
	.section	.text.generator_poly,"ax",@progbits
	.align	1
	.globl	generator_poly
	.type	generator_poly, @function
generator_poly:
.LVL138:
.LFB25:
.LM548:
	.cfi_startproc
.LM549:
.LM550:
.LM551:
.LM552:
.LM553:
.LBB466:
.LBI466:
.LM554:
.LBB467:
.LM555:
.LM556:
.LM557:
.LBB468:
.LBI468:
.LM558:
.LBB469:
.LM559:
.LM560:
.LM561:
.LBE469:
.LBE468:
.LM562:
.LM563:
.LBE467:
.LBE466:
.LM564:
	addi	sp,sp,-48
	.cfi_def_cfa_offset 48
	sw	s0,40(sp)
.LVL139:
.LM565:
	sw	s1,36(sp)
	sw	s2,32(sp)
	sw	s3,28(sp)
	sw	s5,20(sp)
	sw	ra,44(sp)
	sw	s4,24(sp)
	sw	s6,16(sp)
	sw	s7,12(sp)
	sw	s8,8(sp)
	.cfi_offset 8, -8
	.cfi_offset 9, -12
	.cfi_offset 18, -16
	.cfi_offset 19, -20
	.cfi_offset 21, -28
	.cfi_offset 1, -4
	.cfi_offset 20, -24
	.cfi_offset 22, -32
	.cfi_offset 23, -36
	.cfi_offset 24, -40
.LBB473:
.LBB472:
.LBB471:
.LBB470:
.LM566:
	lhu	a4,26(a0)
.LBE470:
.LBE471:
.LBE472:
.LBE473:
.LM567:
	lw	a5,28(a0)
	li	s3,1
.LM568:
	mv	s0,a0
.LM569:
	add	a5,a5,a4
	sb	s3,0(a5)
.LM570:
.LM571:
	li	a5,2
.LM572:
	sb	s3,32(a0)
.LM573:
.LM574:
	sb	a5,44(a0)
.LM575:
.LVL140:
.LM576:
.LM577:
	li	s1,0
	li	s2,0
.LM578:
	li	s5,126
.LVL141:
.L65:
.LM579:
.LBB474:
.LBI474:
.LM580:
.LBB475:
.LM581:
.LM582:
.LM583:
.LBB476:
.LBI476:
.LM584:
.LBB477:
.LM585:
.LM586:
.LM587:
.LBE477:
.LBE476:
.LM588:
.LBB479:
.LBB478:
.LM589:
	lhu	a4,38(s0)
.LBE478:
.LBE479:
.LBE475:
.LBE474:
.LM590:
	lw	a5,40(s0)
.LM591:
	mv	a1,s1
	mv	a2,s2
.LM592:
	add	a5,a5,a4
.LVL142:
.LM593:
	sb	s3,0(a5)
.LM594:
.LVL143:
.LBB480:
.LBI480:
.LM595:
.LBB481:
.LM596:
.LM597:
.LM598:
.LBB482:
.LBI482:
.LM599:
.LBB483:
.LM600:
.LM601:
.LM602:
.LBE483:
.LBE482:
.LM603:
.LBB485:
.LBB484:
.LM604:
	lhu	a5,38(s0)
.LVL144:
.LM605:
.LBE484:
.LBE485:
.LM606:
	lw	s4,40(s0)
.LBE481:
.LBE480:
.LM607:
	li	a0,2
.LBB487:
.LBB486:
.LM608:
	addi	a5,a5,1
	add	s4,s4,a5
.LVL145:
.LM609:
.LBE486:
.LBE487:
.LM610:
	call	gf_pow
.LVL146:
.LM611:
	sb	a0,0(s4)
.LM612:
	addi	a2,s0,48
	addi	a1,s0,36
	addi	a0,s0,24
	call	poly_mul
.LVL147:
.LM613:
	addi	a1,s0,48
	addi	a0,s0,24
	call	poly_copy
.LVL148:
.LM614:
.LM615:
	addi	a5,s1,1
	sltu	a4,a5,s1
	add	s2,a4,s2
	mv	s1,a5
.LVL149:
.LM616:
	bne	a5,s5,.L65
	bne	s2,zero,.L65
.LM617:
	lw	ra,44(sp)
	.cfi_restore 1
	lw	s0,40(sp)
	.cfi_restore 8
.LVL150:
.LM618:
	lw	s1,36(sp)
	.cfi_restore 9
.LVL151:
.LM619:
	lw	s2,32(sp)
	.cfi_restore 18
	lw	s3,28(sp)
	.cfi_restore 19
	lw	s4,24(sp)
	.cfi_restore 20
	lw	s5,20(sp)
	.cfi_restore 21
	lw	s6,16(sp)
	.cfi_restore 22
	lw	s7,12(sp)
	.cfi_restore 23
	lw	s8,8(sp)
	.cfi_restore 24
	addi	sp,sp,48
	.cfi_def_cfa_offset 0
	jr	ra
	.cfi_endproc
.LFE25:
	.size	generator_poly, .-generator_poly
	.section	.text.calc_syndromes,"ax",@progbits
	.align	1
	.globl	calc_syndromes
	.type	calc_syndromes, @function
calc_syndromes:
.LVL152:
.LFB26:
.LM620:
	.cfi_startproc
.LM621:
.LM622:
.LM623:
.LM624:
	addi	sp,sp,-48
	.cfi_def_cfa_offset 48
	sw	s0,40(sp)
	sw	s1,36(sp)
	sw	s2,32(sp)
	sw	s3,28(sp)
	sw	ra,44(sp)
	.cfi_offset 8, -8
	.cfi_offset 9, -12
	.cfi_offset 18, -16
	.cfi_offset 19, -20
	.cfi_offset 1, -4
.LM625:
	li	a5,127
.LBB488:
.LBB489:
.LBB490:
.LBB491:
.LM626:
	lhu	a4,98(a0)
.LBE491:
.LBE490:
.LBE489:
.LBE488:
.LM627:
	sb	a5,104(a0)
.LM628:
.LVL153:
.LBB495:
.LBI488:
.LM629:
.LBB494:
.LM630:
.LM631:
.LM632:
.LBB493:
.LBI490:
.LM633:
.LBB492:
.LM634:
.LM635:
.LM636:
.LBE492:
.LBE493:
.LM637:
.LM638:
.LBE494:
.LBE495:
.LM639:
	lw	a5,100(a0)
.LM640:
	mv	s1,a0
	mv	s3,a1
.LM641:
	add	a5,a5,a4
.LVL154:
.LM642:
	sb	zero,0(a5)
.LM643:
.LVL155:
.LM644:
.LM645:
	li	s0,0
	li	a2,0
.LM646:
	li	s2,126
.LVL156:
.L69:
.LM647:
.LM648:
	mv	a1,s0
	li	a0,2
	sw	a2,12(sp)
	call	gf_pow
.LVL157:
	mv	a1,a0
.LM649:
	mv	a0,s3
	call	poly_eval
.LVL158:
.LBB496:
.LBI496:
.LM650:
.LBB497:
.LM651:
.LM652:
.LM653:
.LBB498:
.LBI498:
.LM654:
.LBB499:
.LM655:
.LM656:
.LM657:
.LBE499:
.LBE498:
.LM658:
.LBB501:
.LBB500:
.LM659:
	lhu	a4,98(s1)
.LBE500:
.LBE501:
.LBE497:
.LBE496:
.LM660:
	lw	a5,100(s1)
.LM661:
	lw	a2,12(sp)
.LM662:
	add	a5,a5,a4
.LVL159:
.LM663:
	add	a5,a5,s0
.LVL160:
.LM664:
	sb	a0,1(a5)
.LVL161:
.LM665:
.LM666:
	addi	a5,s0,1
	sltu	a4,a5,s0
.LM667:
	add	a2,a4,a2
	mv	s0,a5
.LVL162:
.LM668:
	bne	a5,s2,.L69
	bne	a2,zero,.L69
.LM669:
	lw	ra,44(sp)
	.cfi_restore 1
	lw	s0,40(sp)
	.cfi_restore 8
.LVL163:
.LM670:
	lw	s1,36(sp)
	.cfi_restore 9
.LVL164:
.LM671:
	lw	s2,32(sp)
	.cfi_restore 18
	lw	s3,28(sp)
	.cfi_restore 19
.LVL165:
.LM672:
	addi	sp,sp,48
	.cfi_def_cfa_offset 0
	jr	ra
	.cfi_endproc
.LFE26:
	.size	calc_syndromes, .-calc_syndromes
	.section	.text.find_errata_locator,"ax",@progbits
	.align	1
	.globl	find_errata_locator
	.type	find_errata_locator, @function
find_errata_locator:
.LVL166:
.LFB27:
.LM673:
	.cfi_startproc
.LM674:
.LM675:
.LM676:
.LM677:
.LM678:
.LM679:
.LM680:
	addi	sp,sp,-48
	.cfi_def_cfa_offset 48
	sw	s0,40(sp)
	sw	s1,36(sp)
	sw	s2,32(sp)
	sw	s3,28(sp)
	sw	ra,44(sp)
	sw	s4,24(sp)
	sw	s5,20(sp)
	sw	s6,16(sp)
	sw	s7,12(sp)
	sw	s8,8(sp)
	sw	s9,4(sp)
	.cfi_offset 8, -8
	.cfi_offset 9, -12
	.cfi_offset 18, -16
	.cfi_offset 19, -20
	.cfi_offset 1, -4
	.cfi_offset 20, -24
	.cfi_offset 21, -28
	.cfi_offset 22, -32
	.cfi_offset 23, -36
	.cfi_offset 24, -40
	.cfi_offset 25, -44
.LBB502:
.LBB503:
.LBB504:
.LBB505:
.LM681:
	lhu	a4,122(a0)
.LBE505:
.LBE504:
.LBE503:
.LBE502:
.LM682:
	lw	a5,124(a0)
.LM683:
	li	s2,1
	sb	s2,128(a0)
.LM684:
.LVL167:
.LBB509:
.LBI502:
.LM685:
.LBB508:
.LM686:
.LM687:
.LM688:
.LBB507:
.LBI504:
.LM689:
.LBB506:
.LM690:
.LM691:
.LM692:
.LBE506:
.LBE507:
.LM693:
.LM694:
.LBE508:
.LBE509:
.LM695:
	add	a5,a5,a4
.LVL168:
.LM696:
	sb	s2,0(a5)
.LM697:
.LM698:
	li	a5,2
.LVL169:
.LM699:
	mv	s0,a0
	mv	s3,a1
.LM700:
	sb	s2,44(a0)
.LM701:
.LM702:
	sb	a5,56(a0)
.LM703:
.LBB510:
.LM704:
.LVL170:
.LM705:
	li	s1,0
.LVL171:
.L72:
.LM706:
	lbu	a5,8(s3)
	bgtu	a5,s1,.L73
.LBE510:
.LM707:
	lw	ra,44(sp)
	.cfi_remember_state
	.cfi_restore 1
	lw	s0,40(sp)
	.cfi_restore 8
.LVL172:
.LM708:
	lw	s1,36(sp)
	.cfi_restore 9
.LVL173:
.LM709:
	lw	s2,32(sp)
	.cfi_restore 18
	lw	s3,28(sp)
	.cfi_restore 19
.LVL174:
.LM710:
	lw	s4,24(sp)
	.cfi_restore 20
	lw	s5,20(sp)
	.cfi_restore 21
	lw	s6,16(sp)
	.cfi_restore 22
	lw	s7,12(sp)
	.cfi_restore 23
	lw	s8,8(sp)
	.cfi_restore 24
	lw	s9,4(sp)
	.cfi_restore 25
	addi	sp,sp,48
	.cfi_def_cfa_offset 0
	jr	ra
.LVL175:
.L73:
	.cfi_restore_state
.LBB539:
.LM711:
.LBB511:
.LBI511:
.LM712:
.LBB512:
.LM713:
.LM714:
.LM715:
.LBB513:
.LBI513:
.LM716:
.LBB514:
.LM717:
.LM718:
.LM719:
.LBE514:
.LBE513:
.LM720:
.LBB516:
.LBB515:
.LM721:
	lhu	a4,38(s0)
.LBE515:
.LBE516:
.LBE512:
.LBE511:
.LM722:
	lw	a5,40(s0)
.LM723:
	li	a2,0
	li	a0,2
.LM724:
	add	a5,a5,a4
.LVL176:
.LM725:
	sb	s2,0(a5)
.LM726:
.LVL177:
.LBB517:
.LBI517:
.LM727:
.LBB518:
.LM728:
.LM729:
.LM730:
.LBB519:
.LBI519:
.LM731:
.LBB520:
.LM732:
.LM733:
.LM734:
.LBE520:
.LBE519:
.LM735:
.LM736:
.LBE518:
.LBE517:
.LBB524:
.LBI524:
.LM737:
.LBB525:
.LM738:
.LM739:
.LM740:
.LBB526:
.LBI526:
.LM741:
.LBB527:
.LM742:
.LM743:
.LM744:
.LBE527:
.LBE526:
.LM745:
.LBB529:
.LBB528:
.LM746:
	lhu	a5,50(s0)
.LVL178:
.LM747:
.LBE528:
.LBE529:
.LM748:
	lw	s4,52(s0)
.LBE525:
.LBE524:
.LBB531:
.LBB523:
.LBB522:
.LBB521:
.LM749:
	lhu	a4,2(s3)
.LM750:
.LBE521:
.LBE522:
.LBE523:
.LBE531:
.LBB532:
.LBB530:
.LM751:
	add	s4,s4,a5
.LVL179:
.LM752:
.LBE530:
.LBE532:
.LM753:
	lw	a5,4(s3)
	add	a5,a5,s1
	add	a5,a5,a4
.LM754:
	lbu	a1,0(a5)
.LM755:
	addi	s1,s1,1
.LVL180:
.LM756:
	andi	s1,s1,0xff
.LVL181:
.LM757:
	call	gf_pow
.LVL182:
.LM758:
	sb	a0,0(s4)
.LM759:
.LVL183:
.LBB533:
.LBI533:
.LM760:
.LBB534:
.LM761:
.LM762:
.LM763:
.LBB535:
.LBI535:
.LM764:
.LBB536:
.LM765:
.LM766:
.LM767:
.LBE536:
.LBE535:
.LM768:
.LBB538:
.LBB537:
.LM769:
	lhu	a4,50(s0)
.LBE537:
.LBE538:
.LBE534:
.LBE533:
.LM770:
	lw	a5,52(s0)
.LM771:
	addi	a2,s0,72
	addi	a1,s0,48
.LM772:
	add	a5,a5,a4
.LVL184:
.LM773:
	sb	zero,1(a5)
.LM774:
	addi	a0,s0,36
	call	poly_add
.LVL185:
.LM775:
	addi	a2,s0,84
	addi	a1,s0,72
	addi	a0,s0,120
	call	poly_mul
.LVL186:
.LM776:
	addi	a1,s0,84
	addi	a0,s0,120
	call	poly_copy
.LVL187:
.LM777:
	j	.L72
.LBE539:
	.cfi_endproc
.LFE27:
	.size	find_errata_locator, .-find_errata_locator
	.section	.text.find_error_evaluator,"ax",@progbits
	.align	1
	.globl	find_error_evaluator
	.type	find_error_evaluator, @function
find_error_evaluator:
.LVL188:
.LFB28:
.LM778:
	.cfi_startproc
.LM779:
.LM780:
	addi	sp,sp,-32
	.cfi_def_cfa_offset 32
	sw	s0,24(sp)
	.cfi_offset 8, -8
	mv	s0,a0
.LVL189:
.LM781:
.LM782:
	mv	a0,a1
.LVL190:
.LM783:
	mv	a1,a2
.LVL191:
.LM784:
	addi	a2,s0,36
.LVL192:
.LM785:
	sw	ra,28(sp)
	sw	s1,20(sp)
	.cfi_offset 1, -4
	.cfi_offset 9, -12
.LM786:
	sw	a3,12(sp)
	sw	a4,8(sp)
.LM787:
	call	poly_mul
.LVL193:
.LM788:
.LM789:
	lw	a4,8(sp)
.LM790:
	addi	a1,s0,48
.LVL194:
.LM791:
.LM792:
	mv	a0,a1
.LM793:
	addi	a4,a4,2
.LM794:
	sb	a4,56(s0)
.LM795:
	sw	a1,8(sp)
.LVL195:
.LM796:
	call	poly_reset
.LVL196:
.LM797:
.LBB540:
.LBI540:
.LM798:
.LBB541:
.LM799:
.LM800:
.LM801:
.LBB542:
.LBI542:
.LM802:
.LBB543:
.LM803:
.LM804:
.LM805:
.LBE543:
.LBE542:
.LM806:
.LBB545:
.LBB544:
.LM807:
	lhu	a4,50(s0)
.LBE544:
.LBE545:
.LBE541:
.LBE540:
.LM808:
	lw	a5,52(s0)
.LM809:
	addi	a0,s0,36
.LVL197:
.LM810:
	lw	a2,12(sp)
.LM811:
	add	a5,a5,a4
.LVL198:
.LM812:
	li	a4,1
	sb	a4,0(a5)
.LM813:
.LM814:
	lw	s0,24(sp)
	.cfi_restore 8
.LVL199:
.LM815:
	lw	a1,8(sp)
.LM816:
	lw	ra,28(sp)
	.cfi_restore 1
	lw	s1,20(sp)
	.cfi_restore 9
	addi	sp,sp,32
	.cfi_def_cfa_offset 0
.LVL200:
.LM817:
	tail	poly_div
.LVL201:
.LM818:
	.cfi_endproc
.LFE28:
	.size	find_error_evaluator, .-find_error_evaluator
	.section	.text.correct_errata,"ax",@progbits
	.align	1
	.globl	correct_errata
	.type	correct_errata, @function
correct_errata:
.LVL202:
.LFB29:
.LM819:
	.cfi_startproc
.LM820:
.LM821:
.LM822:
.LM823:
.LM824:
.LM825:
.LM826:
.LM827:
.LM828:
	addi	sp,sp,-80
	.cfi_def_cfa_offset 80
	sw	s0,72(sp)
	sw	s2,64(sp)
	sw	s3,60(sp)
	sw	s5,52(sp)
	sw	ra,76(sp)
	sw	s1,68(sp)
	sw	s4,56(sp)
	sw	s6,48(sp)
	sw	s7,44(sp)
	sw	s8,40(sp)
	sw	s9,36(sp)
	sw	s10,32(sp)
	sw	s11,28(sp)
	.cfi_offset 8, -8
	.cfi_offset 18, -16
	.cfi_offset 19, -20
	.cfi_offset 21, -28
	.cfi_offset 1, -4
	.cfi_offset 9, -12
	.cfi_offset 20, -24
	.cfi_offset 22, -32
	.cfi_offset 23, -36
	.cfi_offset 24, -40
	.cfi_offset 25, -44
	.cfi_offset 26, -48
	.cfi_offset 27, -52
.LM829:
	mv	s2,a2
.LM830:
	lbu	a5,8(s2)
.LM831:
	mv	s5,a1
	mv	s0,a0
.LM832:
	sb	a5,176(a0)
.LM833:
	mv	s3,a3
.LM834:
	addi	a1,a0,168
.LVL203:
.LM835:
.LM836:
.LM837:
	addi	a2,a0,120
.LVL204:
.LM838:
.LM839:
.LM840:
.LM841:
.LM842:
.LM843:
.LM844:
.LM845:
.LM846:
	li	a5,0
.LVL205:
.L78:
.LM847:
	lbu	a4,8(s2)
	bgtu	a4,a5,.L79
.LM848:
	mv	a0,s0
	sw	a2,12(sp)
.LM849:
	call	find_errata_locator
.LVL206:
.LM850:
.LM851:
	lbu	a5,8(s5)
.LM852:
	lw	a2,12(sp)
	li	a3,0
.LM853:
	sb	a5,80(s0)
.LM854:
.LVL207:
.LM855:
	addi	a5,a5,-1
.LVL208:
.LM856:
	slli	a5,a5,24
.LVL209:
.LM857:
	srai	a5,a5,24
.LVL210:
.L80:
.LM858:
	slli	a4,a5,24
	srai	a4,a4,24
	bge	a4,zero,.L81
.LM859:
	lbu	a4,128(s0)
	addi	a3,s0,84
.LVL211:
.LM860:
	addi	a1,s0,72
	addi	a4,a4,-1
	andi	a4,a4,0xff
	mv	a0,s0
	call	find_error_evaluator
.LVL212:
.LM861:
.LM862:
	lbu	a5,92(s0)
.LM863:
	li	a3,0
.LM864:
	sb	a5,188(s0)
.LM865:
.LVL213:
.LM866:
	addi	a5,a5,-1
.LVL214:
.LM867:
	slli	a5,a5,24
.LVL215:
.LM868:
	srai	a5,a5,24
.LVL216:
.L82:
.LM869:
	slli	a4,a5,24
	srai	a4,a4,24
	bge	a4,zero,.L83
.LM870:
.LM871:
	sb	zero,44(s0)
.LM872:
.LVL217:
.LM873:
	li	s4,0
.LM874:
	li	s5,255
.LVL218:
.L84:
.LM875:
	lbu	a5,176(s0)
	bgtu	a5,s4,.L85
.LM876:
	addi	a0,s0,60
	call	poly_reset
.LVL219:
.LM877:
.LM878:
	lbu	a5,8(s3)
.LM879:
	li	s1,0
.LM880:
	sb	a5,68(s0)
.LM881:
.LVL220:
.L86:
.LM882:
	lbu	a5,44(s0)
	bgtu	a5,s1,.L92
.LM883:
	addi	a2,s0,12
	addi	a1,s0,60
.LM884:
	lw	s0,72(sp)
	.cfi_remember_state
	.cfi_restore 8
.LVL221:
.LM885:
	lw	ra,76(sp)
	.cfi_restore 1
	lw	s1,68(sp)
	.cfi_restore 9
.LVL222:
.LM886:
	lw	s2,64(sp)
	.cfi_restore 18
.LVL223:
.LM887:
	lw	s4,56(sp)
	.cfi_restore 20
	lw	s5,52(sp)
	.cfi_restore 21
	lw	s6,48(sp)
	.cfi_restore 22
	lw	s7,44(sp)
	.cfi_restore 23
	lw	s8,40(sp)
	.cfi_restore 24
	lw	s9,36(sp)
	.cfi_restore 25
	lw	s10,32(sp)
	.cfi_restore 26
	lw	s11,28(sp)
	.cfi_restore 27
.LM888:
	mv	a0,s3
.LM889:
	lw	s3,60(sp)
	.cfi_restore 19
.LVL224:
.LM890:
	addi	sp,sp,80
	.cfi_def_cfa_offset 0
.LVL225:
.LM891:
	tail	poly_add
.LVL226:
.L79:
	.cfi_restore_state
.LM892:
.LBB546:
.LBI546:
.LM893:
.LBB547:
.LM894:
.LM895:
.LM896:
.LBB548:
.LBI548:
.LM897:
.LBB549:
.LM898:
.LM899:
.LM900:
.LBE549:
.LBE548:
.LM901:
.LM902:
.LBE547:
.LBE546:
.LBB553:
.LBI553:
.LM903:
.LBB554:
.LM904:
.LM905:
.LM906:
.LBB555:
.LBI555:
.LM907:
.LBB556:
.LM908:
.LM909:
.LM910:
.LBE556:
.LBE555:
.LM911:
.LM912:
.LBE554:
.LBE553:
.LM913:
	lw	a4,172(s0)
.LM914:
	lw	a0,4(s2)
.LBB560:
.LBB559:
.LBB558:
.LBB557:
.LM915:
	lhu	a3,170(s0)
.LBE557:
.LBE558:
.LBE559:
.LBE560:
.LBB561:
.LBB552:
.LBB551:
.LBB550:
	lhu	a6,2(s2)
.LBE550:
.LBE551:
.LBE552:
.LBE561:
.LM916:
	add	a4,a4,a5
.LM917:
	add	a0,a0,a5
.LM918:
	add	a4,a4,a3
.LM919:
	add	a0,a0,a6
.LM920:
	lbu	a3,8(s3)
	lbu	a0,0(a0)
.LM921:
	addi	a5,a5,1
.LVL227:
.LM922:
	addi	a3,a3,-1
	sub	a3,a3,a0
.LM923:
	sb	a3,0(a4)
.LVL228:
.LM924:
	andi	a5,a5,0xff
.LVL229:
.LM925:
	j	.L78
.LVL230:
.L81:
.LM926:
.LBB562:
.LBI562:
.LM927:
.LBB563:
.LM928:
.LM929:
.LM930:
.LBB564:
.LBI564:
.LM931:
.LBB565:
.LM932:
.LM933:
.LM934:
.LBE565:
.LBE564:
.LM935:
.LM936:
.LBE563:
.LBE562:
.LBB569:
.LBI569:
.LM937:
.LBB570:
.LM938:
.LM939:
.LM940:
.LBB571:
.LBI571:
.LM941:
.LBB572:
.LM942:
.LM943:
.LM944:
.LBE572:
.LBE571:
.LM945:
.LM946:
.LBE570:
.LBE569:
.LM947:
	lw	a4,4(s5)
.LBB576:
.LBB568:
.LBB567:
.LBB566:
.LM948:
	lhu	a1,2(s5)
.LBE566:
.LBE567:
.LBE568:
.LBE576:
.LBB577:
.LBB575:
.LBB574:
.LBB573:
	lhu	a0,74(s0)
.LBE573:
.LBE574:
.LBE575:
.LBE577:
.LM949:
	add	a4,a4,a5
	add	a4,a4,a1
	lbu	a1,0(a4)
.LM950:
	lw	a4,76(s0)
	addi	a5,a5,-1
	add	a4,a4,a3
	add	a4,a4,a0
	sb	a1,0(a4)
.LVL231:
.LM951:
.LM952:
	addi	a3,a3,1
.LVL232:
.LM953:
	j	.L80
.LVL233:
.L83:
.LM954:
.LBB578:
.LBI578:
.LM955:
.LBB579:
.LM956:
.LM957:
.LM958:
.LBB580:
.LBI580:
.LM959:
.LBB581:
.LM960:
.LM961:
.LM962:
.LBE581:
.LBE580:
.LM963:
.LM964:
.LBE579:
.LBE578:
.LBB585:
.LBI585:
.LM965:
.LBB586:
.LM966:
.LM967:
.LM968:
.LBB587:
.LBI587:
.LM969:
.LBB588:
.LM970:
.LM971:
.LM972:
.LBE588:
.LBE587:
.LM973:
.LM974:
.LBE586:
.LBE585:
.LM975:
	lw	a4,88(s0)
.LBB592:
.LBB584:
.LBB583:
.LBB582:
.LM976:
	lhu	a2,86(s0)
.LBE582:
.LBE583:
.LBE584:
.LBE592:
.LBB593:
.LBB591:
.LBB590:
.LBB589:
	lhu	a1,182(s0)
.LBE589:
.LBE590:
.LBE591:
.LBE593:
.LM977:
	add	a4,a4,a5
	add	a4,a4,a2
	lbu	a2,0(a4)
.LM978:
	lw	a4,184(s0)
	addi	a5,a5,-1
	add	a4,a4,a3
	add	a4,a4,a1
	sb	a2,0(a4)
.LVL234:
.LM979:
.LM980:
	addi	a3,a3,1
.LVL235:
.LM981:
	j	.L82
.LVL236:
.L85:
.LM982:
.LBB594:
.LBI594:
.LM983:
.LBB595:
.LM984:
.LM985:
.LM986:
.LBB596:
.LBI596:
.LM987:
.LBB597:
.LM988:
.LM989:
.LM990:
.LBE597:
.LBE596:
.LM991:
.LM992:
.LBE595:
.LBE594:
.LM993:
.LM994:
	lw	a5,172(s0)
.LBB601:
.LBB600:
.LBB599:
.LBB598:
.LM995:
	lhu	a4,170(s0)
.LBE598:
.LBE599:
.LBE600:
.LBE601:
.LM996:
	li	a0,2
.LM997:
	add	a5,a5,s4
	add	a5,a5,a4
	lbu	a1,0(a5)
.LM998:
	addi	s4,s4,1
.LVL237:
.LM999:
	andi	s4,s4,0xff
.LVL238:
.LM1000:
	sub	a1,s5,a1
.LM1001:
	slli	a1,a1,16
	srli	a1,a1,16
	neg	a1,a1
.LM1002:
	srai	a2,a1,31
	call	gf_pow
.LVL239:
.LM1003:
	mv	a1,a0
.LM1004:
	addi	a0,s0,36
	call	poly_append
.LVL240:
.LM1005:
	j	.L84
.LVL241:
.L92:
.LM1006:
.LBB602:
.LBI602:
.LM1007:
.LBB603:
.LM1008:
.LM1009:
.LM1010:
.LBB604:
.LBI604:
.LM1011:
.LBB605:
.LM1012:
.LM1013:
.LM1014:
.LBE605:
.LBE604:
.LM1015:
.LM1016:
.LBE603:
.LBE602:
.LM1017:
	lw	a5,40(s0)
.LBB609:
.LBB608:
.LBB607:
.LBB606:
.LM1018:
	lhu	a4,38(s0)
.LBE606:
.LBE607:
.LBE608:
.LBE609:
.LM1019:
	li	s4,0
.LM1020:
	add	a5,a5,s1
	add	a5,a5,a4
	lbu	a0,0(a5)
	call	gf_inverse
.LVL242:
.LM1021:
	mv	s9,a0
.LVL243:
.LM1022:
.LM1023:
	sb	zero,56(s0)
.LM1024:
.LVL244:
.L87:
.LM1025:
	lbu	a5,44(s0)
	bgtu	a5,s4,.L89
.LM1026:
	lbu	s6,56(s0)
	li	s5,0
.LM1027:
	li	s4,1
.LVL245:
.L90:
.LM1028:
	andi	a5,s5,0xff
	bgtu	s6,a5,.L91
.LM1029:
.LM1030:
	mv	a1,s9
	addi	a0,s0,84
	call	poly_eval
.LVL246:
.LM1031:
	lw	a5,40(s0)
.LBB610:
.LBB611:
.LBB612:
.LBB613:
.LM1032:
	lhu	a4,38(s0)
.LBE613:
.LBE612:
.LBE611:
.LBE610:
.LM1033:
	mv	s5,a0
.LVL247:
.LM1034:
.LBB617:
.LBI610:
.LM1035:
.LBB616:
.LM1036:
.LM1037:
.LM1038:
.LBB615:
.LBI612:
.LM1039:
.LBB614:
.LM1040:
.LM1041:
.LM1042:
.LBE614:
.LBE615:
.LM1043:
.LM1044:
.LBE616:
.LBE617:
.LM1045:
	add	a5,a5,s1
.LVL248:
.LM1046:
	add	a5,a5,a4
	lbu	a0,0(a5)
	li	a2,0
	li	a1,1
	call	gf_pow
.LVL249:
.LM1047:
	andi	a1,s5,0xff
	call	gf_mul
.LVL250:
.LM1048:
.LBB618:
.LBI618:
.LM1049:
.LBB619:
.LM1050:
.LM1051:
.LM1052:
.LBB620:
.LBI620:
.LM1053:
.LBB621:
.LM1054:
.LM1055:
.LM1056:
.LBE621:
.LBE620:
.LM1057:
.LM1058:
.LBE619:
.LBE618:
.LBB625:
.LBI625:
.LM1059:
.LBB626:
.LM1060:
.LM1061:
.LM1062:
.LBB627:
.LBI627:
.LM1063:
.LBB628:
.LM1064:
.LM1065:
.LM1066:
.LBE628:
.LBE627:
.LM1067:
.LBE626:
.LBE625:
.LM1068:
	lw	a5,4(s2)
.LBB634:
.LBB624:
.LBB623:
.LBB622:
.LM1069:
	lhu	a4,2(s2)
.LBE622:
.LBE623:
.LBE624:
.LBE634:
.LBB635:
.LBB631:
.LM1070:
	lw	s5,64(s0)
.LBE631:
.LBE635:
.LM1071:
	add	a5,a5,s1
	add	a5,a5,a4
.LBB636:
.LBB632:
.LM1072:
	lbu	a5,0(a5)
.LBB630:
.LBB629:
.LM1073:
	lhu	a4,62(s0)
.LBE629:
.LBE630:
.LBE632:
.LBE636:
.LM1074:
	mv	a1,s4
.LM1075:
	addi	s1,s1,1
.LVL251:
.LBB637:
.LBB633:
.LM1076:
	add	a5,a5,a4
	add	s5,s5,a5
.LVL252:
.LM1077:
.LBE633:
.LBE637:
.LM1078:
	call	gf_div
.LVL253:
.LM1079:
	sb	a0,0(s5)
.LM1080:
	andi	s1,s1,0xff
.LVL254:
.LM1081:
	j	.L86
.LVL255:
.L89:
.LM1082:
.LM1083:
	beq	s1,s4,.L88
.LM1084:
.LVL256:
.LBB638:
.LBI638:
.LM1085:
.LBB639:
.LM1086:
.LM1087:
.LM1088:
.LBB640:
.LBI640:
.LM1089:
.LBB641:
.LM1090:
.LM1091:
.LM1092:
.LBE641:
.LBE640:
.LM1093:
.LM1094:
.LBE639:
.LBE638:
.LM1095:
	lw	a5,40(s0)
.LBB645:
.LBB644:
.LBB643:
.LBB642:
.LM1096:
	lhu	a4,38(s0)
.LBE642:
.LBE643:
.LBE644:
.LBE645:
.LM1097:
	mv	a0,s9
.LM1098:
	add	a5,a5,s4
	add	a5,a5,a4
.LM1099:
	lbu	a1,0(a5)
	call	gf_mul
.LVL257:
.LBB646:
.LBI646:
.LM1100:
.LBB647:
.LM1101:
.LM1102:
	xori	a1,a0,1
.LBE647:
.LBE646:
.LM1103:
	andi	a1,a1,0xff
	addi	a0,s0,48
	call	poly_append
.LVL258:
.L88:
.LM1104:
	addi	s4,s4,1
.LVL259:
.LM1105:
	andi	s4,s4,0xff
	j	.L87
.LVL260:
.L91:
.LM1106:
.LBB648:
.LBI648:
.LM1107:
.LBB649:
.LM1108:
.LM1109:
.LM1110:
.LBB650:
.LBI650:
.LM1111:
.LBB651:
.LM1112:
.LM1113:
.LM1114:
.LBE651:
.LBE650:
.LM1115:
.LM1116:
.LBE649:
.LBE648:
.LM1117:
	lw	a5,52(s0)
.LBB655:
.LBB654:
.LBB653:
.LBB652:
.LM1118:
	lhu	a4,50(s0)
.LBE652:
.LBE653:
.LBE654:
.LBE655:
.LM1119:
	mv	a0,s4
.LM1120:
	add	a5,a5,s5
	add	a5,a5,a4
.LM1121:
	lbu	a1,0(a5)
	addi	s5,s5,1
.LVL261:
.LM1122:
	call	gf_mul
.LVL262:
.LM1123:
	mv	s4,a0
.LVL263:
.LM1124:
.LM1125:
	j	.L90
	.cfi_endproc
.LFE29:
	.size	correct_errata, .-correct_errata
	.section	.text.find_error_locator,"ax",@progbits
	.align	1
	.globl	find_error_locator
	.type	find_error_locator, @function
find_error_locator:
.LVL264:
.LFB30:
.LM1126:
	.cfi_startproc
.LM1127:
.LM1128:
.LM1129:
.LM1130:
.LM1131:
.LM1132:
.LM1133:
.LM1134:
.LM1135:
.LM1136:
.LM1137:
	addi	sp,sp,-80
	.cfi_def_cfa_offset 80
.LM1138:
	addi	a5,a0,36
	sw	a5,0(sp)
.LVL265:
.LM1139:
.LM1140:
	addi	a5,a0,48
.LVL266:
.LM1141:
	sw	a5,4(sp)
.LVL267:
.LM1142:
.LM1143:
	addi	a5,a0,72
.LVL268:
.LM1144:
	sw	a5,8(sp)
.LVL269:
.LM1145:
.LM1146:
	addi	a5,a0,84
.LVL270:
.LM1147:
	sw	s0,72(sp)
	sw	s3,60(sp)
	sw	s6,48(sp)
	sw	s7,44(sp)
	sw	ra,76(sp)
	sw	s1,68(sp)
	sw	s2,64(sp)
	sw	s4,56(sp)
	sw	s5,52(sp)
	sw	s8,40(sp)
	sw	s9,36(sp)
	sw	s10,32(sp)
	sw	s11,28(sp)
	.cfi_offset 8, -8
	.cfi_offset 19, -20
	.cfi_offset 22, -32
	.cfi_offset 23, -36
	.cfi_offset 1, -4
	.cfi_offset 9, -12
	.cfi_offset 18, -16
	.cfi_offset 20, -24
	.cfi_offset 21, -28
	.cfi_offset 24, -40
	.cfi_offset 25, -44
	.cfi_offset 26, -48
	.cfi_offset 27, -52
.LM1148:
	sw	a5,12(sp)
.LVL271:
.LM1149:
.LM1150:
	mv	s0,a0
	mv	s7,a1
	mv	s6,a2
	mv	s3,a3
.LM1151:
	beq	a2,zero,.L95
.LM1152:
	mv	a1,a2
.LVL272:
.LM1153:
	addi	a0,a0,36
.LVL273:
.LM1154:
	call	poly_copy
.LVL274:
.LM1155:
	mv	a1,s6
	addi	a0,s0,48
	call	poly_copy
.LVL275:
.L96:
.LM1156:
.LM1157:
	lbu	s1,8(s7)
.LM1158:
	li	a5,126
	mv	s5,s1
	bgeu	s1,a5,.L97
	mv	s5,a5
.L97:
	addi	a5,s1,-126
	sltiu	s1,s1,126
	addi	s1,s1,-1
.LM1159:
	li	s4,126
.LM1160:
	and	s1,s1,a5
.LM1161:
	sub	s5,s4,s5
.LM1162:
	andi	s1,s1,0xff
.LVL276:
.LM1163:
.LM1164:
	sub	s4,s4,s3
.LVL277:
.L98:
.LM1165:
	add	a5,s1,s5
	andi	a5,a5,0xff
	lbu	s8,44(s0)
	bltu	a5,s4,.L104
.LM1166:
	li	s1,0
.LM1167:
	bne	s8,zero,.L105
.LVL278:
.L106:
.LM1168:
.LM1169:
	sub	a2,s8,s1
.LVL279:
.LM1170:
.LM1171:
	sub	a5,a2,s3
	addi	a5,a5,-1
.LM1172:
	slli	a5,a5,1
.LM1173:
	add	a5,a5,s3
.LM1174:
	li	a4,126
.LM1175:
	li	a0,0
.LM1176:
	bgtu	a5,a4,.L108
.LM1177:
.LVL280:
.LBB656:
.LBI656:
.LM1178:
.LBB657:
.LM1179:
.LM1180:
.LM1181:
.LBE657:
.LBE656:
.LBB659:
.LBI659:
.LM1182:
.LBB660:
.LM1183:
.LM1184:
.LM1185:
	lhu	a5,38(s0)
.LBE660:
.LBE659:
.LM1186:
	lw	a1,40(s0)
.LBB661:
.LBB658:
.LM1187:
	lhu	a4,134(s0)
.LM1188:
	lw	a0,136(s0)
.LBE658:
.LBE661:
.LM1189:
	add	a5,a5,s1
.LM1190:
	add	a1,a1,a5
	add	a0,a0,a4
	call	memcpy
.LVL281:
.LM1191:
.LM1192:
	lbu	a5,44(s0)
.LM1193:
	li	a0,1
.LM1194:
	sub	a5,a5,s1
.LM1195:
	sb	a5,140(s0)
.LM1196:
.L108:
.LM1197:
	lw	ra,76(sp)
	.cfi_remember_state
	.cfi_restore 1
	lw	s0,72(sp)
	.cfi_restore 8
.LVL282:
.LM1198:
	lw	s1,68(sp)
	.cfi_restore 9
.LVL283:
.LM1199:
	lw	s2,64(sp)
	.cfi_restore 18
	lw	s3,60(sp)
	.cfi_restore 19
.LVL284:
.LM1200:
	lw	s4,56(sp)
	.cfi_restore 20
	lw	s5,52(sp)
	.cfi_restore 21
	lw	s6,48(sp)
	.cfi_restore 22
.LVL285:
.LM1201:
	lw	s7,44(sp)
	.cfi_restore 23
.LVL286:
.LM1202:
	lw	s8,40(sp)
	.cfi_restore 24
.LM1203:
	lw	s9,36(sp)
	.cfi_restore 25
	lw	s10,32(sp)
	.cfi_restore 26
	lw	s11,28(sp)
	.cfi_restore 27
	addi	sp,sp,80
	.cfi_def_cfa_offset 0
.LVL287:
.LM1204:
	jr	ra
.LVL288:
.L95:
	.cfi_restore_state
.LM1205:
.LBB662:
.LBB663:
.LBB664:
.LBB665:
.LM1206:
	lhu	a3,38(a0)
.LVL289:
.LM1207:
.LBE665:
.LBE664:
.LBE663:
.LBE662:
.LM1208:
	lw	a4,40(a0)
.LM1209:
	li	a5,1
.LVL290:
.LM1210:
	sb	a5,44(a0)
.LM1211:
.LM1212:
	add	a4,a4,a3
.LM1213:
	sb	a5,56(a0)
.LM1214:
.LVL291:
.LBB669:
.LBI662:
.LM1215:
.LBB668:
.LM1216:
.LM1217:
.LM1218:
.LBB667:
.LBI664:
.LM1219:
.LBB666:
.LM1220:
.LM1221:
.LM1222:
.LBE666:
.LBE667:
.LM1223:
.LM1224:
.LBE668:
.LBE669:
.LM1225:
	sb	a5,0(a4)
.LM1226:
.LVL292:
.LBB670:
.LBI670:
.LM1227:
.LBB671:
.LM1228:
.LM1229:
.LM1230:
.LBB672:
.LBI672:
.LM1231:
.LBB673:
.LM1232:
.LM1233:
.LM1234:
.LBE673:
.LBE672:
.LM1235:
.LBB675:
.LBB674:
.LM1236:
	lhu	a3,50(a0)
.LBE674:
.LBE675:
.LBE671:
.LBE670:
.LM1237:
	lw	a4,52(a0)
.LVL293:
.LM1238:
	add	a4,a4,a3
.LVL294:
.LM1239:
	sb	a5,0(a4)
	j	.L96
.LVL295:
.L104:
.LM1240:
.LM1241:
	mv	s9,s1
.LM1242:
	beq	s6,zero,.L99
.LM1243:
.LM1244:
	add	s9,s1,s3
	andi	s9,s9,0xff
.L99:
.LVL296:
.LM1245:
.LBB676:
.LBI676:
.LM1246:
.LBB677:
.LM1247:
.LM1248:
.LM1249:
.LBB678:
.LBI678:
.LM1250:
.LBB679:
.LM1251:
.LM1252:
.LM1253:
	lw	s10,4(s7)
.LM1254:
	lhu	a4,2(s7)
.LVL297:
.LM1255:
.LBE679:
.LBE678:
.LM1256:
.LM1257:
.LBE677:
.LBE676:
.LM1258:
	add	a5,s10,s9
	add	a5,a5,a4
	lbu	s2,0(a5)
.LVL298:
.LM1259:
.LM1260:
	add	s10,s10,a4
.LVL299:
.LM1261:
	li	a5,1
.LVL300:
.L100:
.LM1262:
	bgtu	s8,a5,.L101
.LM1263:
	lw	a0,4(sp)
	li	a1,0
	call	poly_append
.LVL301:
.LM1264:
.LM1265:
	beq	s2,zero,.L102
.LM1266:
.LM1267:
	lbu	a4,56(s0)
	lbu	a5,44(s0)
	bleu	a4,a5,.L103
.LM1268:
	lw	a1,8(sp)
	lw	a0,4(sp)
	mv	a2,s2
	call	poly_scale
.LVL302:
.LM1269:
.LM1270:
	mv	a0,s2
	call	gf_inverse
.LVL303:
.LM1271:
	lw	a1,4(sp)
.LM1272:
	mv	a2,a0
.LM1273:
	lw	a0,0(sp)
	call	poly_scale
.LVL304:
.LM1274:
	lw	a1,8(sp)
	lw	a0,0(sp)
	call	poly_copy
.LVL305:
.L103:
.LM1275:
	lw	a1,8(sp)
	lw	a0,4(sp)
	mv	a2,s2
	call	poly_scale
.LVL306:
.LM1276:
	lw	a1,8(sp)
	lw	a0,0(sp)
	lw	a2,12(sp)
	call	poly_add
.LVL307:
.LM1277:
	lw	a1,12(sp)
	lw	a0,0(sp)
	call	poly_copy
.LVL308:
.L102:
.LM1278:
.LM1279:
	addi	s1,s1,1
.LM1280:
	andi	s1,s1,0xff
.LM1281:
	j	.L98
.L101:
.LBB680:
.LBB681:
.LBB682:
.LBB683:
.LM1282:
	lhu	a2,38(s0)
.LBE683:
.LBE682:
.LBE681:
.LBE680:
.LM1283:
	addi	s11,a5,1
.LM1284:
	lw	a4,40(s0)
.LM1285:
	andi	s11,s11,0xff
.LM1286:
.LVL309:
.LM1287:
.LBB688:
.LBI680:
.LM1288:
.LBB686:
.LM1289:
.LM1290:
.LM1291:
.LBB685:
.LBI682:
.LM1292:
.LBB684:
.LM1293:
.LM1294:
.LM1295:
.LBE684:
.LBE685:
.LM1296:
.LM1297:
.LBE686:
.LBE688:
.LBB689:
.LBI689:
.LM1298:
.LBB690:
.LM1299:
.LM1300:
.LM1301:
.LM1302:
.LM1303:
	sub	a5,s9,a5
.LBE690:
.LBE689:
.LM1304:
	sub	a3,s8,s11
.LBB692:
.LBB687:
.LM1305:
	andi	a3,a3,0xff
.LBE687:
.LBE692:
.LM1306:
	add	a4,a4,a2
.LVL310:
.LBB693:
.LBB691:
.LM1307:
	andi	a5,a5,0xff
.LBE691:
.LBE693:
.LM1308:
	add	a5,s10,a5
.LM1309:
	add	a4,a4,a3
.LVL311:
.LM1310:
	lbu	a1,0(a5)
	lbu	a0,0(a4)
	call	gf_mul
.LVL312:
.LM1311:
	xor	a0,s2,a0
	andi	s2,a0,0xff
.LVL313:
.LM1312:
.LM1313:
	mv	a5,s11
	j	.L100
.LVL314:
.L107:
.LM1314:
.LM1315:
	addi	s1,s1,1
.LVL315:
.LM1316:
.L105:
.LBB694:
.LBI694:
.LM1317:
.LBB695:
.LM1318:
.LM1319:
.LM1320:
.LBB696:
.LBI696:
.LM1321:
.LBB697:
.LM1322:
.LM1323:
.LM1324:
.LBE697:
.LBE696:
.LM1325:
.LBB699:
.LBB698:
.LM1326:
	lhu	a3,38(s0)
.LBE698:
.LBE699:
.LBE695:
.LBE694:
.LM1327:
	lw	a5,40(s0)
.LBB701:
.LBB700:
.LM1328:
	andi	a4,s1,255
.LBE700:
.LBE701:
.LM1329:
	add	a5,a5,a3
.LVL316:
.LM1330:
	add	a5,a5,a4
.LVL317:
.LM1331:
	lbu	a5,0(a5)
	beq	a5,zero,.L107
	j	.L106
	.cfi_endproc
.LFE30:
	.size	find_error_locator, .-find_error_locator
	.section	.text.find_errors,"ax",@progbits
	.align	1
	.globl	find_errors
	.type	find_errors, @function
find_errors:
.LVL318:
.LFB31:
.LM1332:
	.cfi_startproc
.LM1333:
.LM1334:
.LM1335:
.LM1336:
	addi	sp,sp,-32
	.cfi_def_cfa_offset 32
	sw	s0,24(sp)
	sw	s2,16(sp)
	sw	s3,12(sp)
	sw	s4,8(sp)
	sw	s5,4(sp)
	sw	ra,28(sp)
	sw	s1,20(sp)
	sw	s6,0(sp)
	.cfi_offset 8, -8
	.cfi_offset 18, -16
	.cfi_offset 19, -20
	.cfi_offset 20, -24
	.cfi_offset 21, -28
	.cfi_offset 1, -4
	.cfi_offset 9, -12
	.cfi_offset 22, -32
.LM1337:
	lbu	s1,8(a1)
.LM1338:
	mv	s2,a0
	mv	s5,a1
.LM1339:
	addi	s1,s1,-1
.LM1340:
	mv	s3,a2
.LM1341:
	andi	s1,s1,0xff
.LVL319:
.LM1342:
.LM1343:
	sb	zero,164(a0)
.LM1344:
.LVL320:
.LM1345:
	li	s0,0
.LM1346:
	addi	s4,a2,-1
.LVL321:
.L117:
.LM1347:
	bltu	s0,s3,.L119
.LM1348:
.LM1349:
	lbu	a0,164(s2)
.LM1350:
	lw	ra,28(sp)
	.cfi_remember_state
	.cfi_restore 1
	lw	s0,24(sp)
	.cfi_restore 8
.LVL322:
.LM1351:
	sub	a0,a0,s1
.LM1352:
	lw	s2,16(sp)
	.cfi_restore 18
.LVL323:
.LM1353:
	lw	s1,20(sp)
	.cfi_restore 9
.LVL324:
.LM1354:
	lw	s3,12(sp)
	.cfi_restore 19
.LVL325:
.LM1355:
	lw	s4,8(sp)
	.cfi_restore 20
.LVL326:
.LM1356:
	lw	s5,4(sp)
	.cfi_restore 21
.LVL327:
.LM1357:
	lw	s6,0(sp)
	.cfi_restore 22
	seqz	a0,a0
	addi	sp,sp,32
	.cfi_def_cfa_offset 0
	jr	ra
.LVL328:
.L119:
	.cfi_restore_state
.LM1358:
.LM1359:
	mv	a1,s0
	li	a2,0
	li	a0,2
	call	gf_pow
.LVL329:
	mv	a1,a0
.LM1360:
	mv	a0,s5
	call	poly_eval
.LVL330:
.LM1361:
	bne	a0,zero,.L118
.LM1362:
	sub	a1,s4,s0
	andi	a1,a1,0xff
	addi	a0,s2,156
	call	poly_append
.LVL331:
.L118:
.LM1363:
	addi	s0,s0,1
.LVL332:
.LM1364:
	andi	s0,s0,0xff
	j	.L117
	.cfi_endproc
.LFE31:
	.size	find_errors, .-find_errors
	.section	.text.calc_forney_syndromes,"ax",@progbits
	.align	1
	.globl	calc_forney_syndromes
	.type	calc_forney_syndromes, @function
calc_forney_syndromes:
.LVL333:
.LFB32:
.LM1365:
	.cfi_startproc
.LM1366:
.LM1367:
.LM1368:
.LM1369:
.LM1370:
.LM1371:
.LM1372:
	addi	sp,sp,-48
	.cfi_def_cfa_offset 48
	sw	s0,40(sp)
	sw	s1,36(sp)
	sw	s2,32(sp)
	sw	s4,24(sp)
	sw	s5,20(sp)
	sw	ra,44(sp)
	sw	s3,28(sp)
	sw	s6,16(sp)
	sw	s7,12(sp)
	.cfi_offset 8, -8
	.cfi_offset 9, -12
	.cfi_offset 18, -16
	.cfi_offset 20, -24
	.cfi_offset 21, -28
	.cfi_offset 1, -4
	.cfi_offset 19, -20
	.cfi_offset 22, -32
	.cfi_offset 23, -36
.LM1373:
	mv	s0,a0
	mv	s2,a1
	mv	s4,a2
.LM1374:
	sb	zero,44(a0)
.LM1375:
.LVL334:
.LM1376:
	li	s1,0
.LM1377:
	addi	s5,a3,-1
.LVL335:
.L122:
.LM1378:
	lbu	a5,8(s4)
	bgtu	a5,s1,.L123
.LM1379:
	addi	a0,s0,108
	call	poly_reset
.LVL336:
.LM1380:
.LBB702:
.LBI702:
.LM1381:
.LBB703:
.LM1382:
.LM1383:
.LM1384:
.LBE703:
.LBE702:
.LM1385:
	lbu	a2,8(s2)
.LBB705:
.LBB704:
.LM1386:
	lhu	a5,2(s2)
.LBE704:
.LBE705:
.LM1387:
	lw	a1,4(s2)
	addi	a2,a2,-1
	addi	a5,a5,1
	li	a3,0
	andi	a2,a2,0xff
	add	a1,a1,a5
	addi	a0,s0,108
	call	poly_set
.LVL337:
.LM1388:
.LM1389:
	li	s1,0
.LVL338:
.L124:
.LM1390:
	lbu	a5,8(s4)
	bgtu	a5,s1,.L127
.LM1391:
	lw	ra,44(sp)
	.cfi_remember_state
	.cfi_restore 1
	lw	s0,40(sp)
	.cfi_restore 8
.LVL339:
.LM1392:
	lw	s1,36(sp)
	.cfi_restore 9
.LVL340:
.LM1393:
	lw	s2,32(sp)
	.cfi_restore 18
	lw	s3,28(sp)
	.cfi_restore 19
	lw	s4,24(sp)
	.cfi_restore 20
.LVL341:
.LM1394:
	lw	s5,20(sp)
	.cfi_restore 21
	lw	s6,16(sp)
	.cfi_restore 22
	lw	s7,12(sp)
	.cfi_restore 23
	addi	sp,sp,48
	.cfi_def_cfa_offset 0
	jr	ra
.LVL342:
.L123:
	.cfi_restore_state
.LM1395:
.LBB706:
.LBI706:
.LM1396:
.LBB707:
.LM1397:
.LM1398:
.LM1399:
.LBB708:
.LBI708:
.LM1400:
.LBB709:
.LM1401:
.LM1402:
.LM1403:
.LBE709:
.LBE708:
.LM1404:
.LM1405:
.LBE707:
.LBE706:
.LM1406:
	lw	a5,4(s4)
.LBB713:
.LBB712:
.LBB711:
.LBB710:
.LM1407:
	lhu	a4,2(s4)
.LBE710:
.LBE711:
.LBE712:
.LBE713:
.LM1408:
	addi	a0,s0,36
.LM1409:
	add	a5,a5,s1
	add	a5,a5,a4
.LM1410:
	lbu	a1,0(a5)
.LM1411:
	addi	s1,s1,1
.LVL343:
.LM1412:
	andi	s1,s1,0xff
.LVL344:
.LM1413:
	sub	a1,s5,a1
	andi	a1,a1,0xff
	call	poly_append
.LVL345:
.LM1414:
	j	.L122
.LVL346:
.L127:
.LM1415:
.LBB714:
.LBI714:
.LM1416:
.LBB715:
.LM1417:
.LM1418:
.LM1419:
.LBB716:
.LBI716:
.LM1420:
.LBB717:
.LM1421:
.LM1422:
.LM1423:
.LBE717:
.LBE716:
.LM1424:
.LM1425:
.LBE715:
.LBE714:
.LM1426:
	lw	a5,40(s0)
.LBB721:
.LBB720:
.LBB719:
.LBB718:
.LM1427:
	lhu	a4,38(s0)
.LBE718:
.LBE719:
.LBE720:
.LBE721:
.LM1428:
	li	a2,0
.LM1429:
	add	a5,a5,s1
	add	a5,a5,a4
.LM1430:
	lbu	a1,0(a5)
	li	a0,2
.LM1431:
	li	s3,0
.LM1432:
	call	gf_pow
.LVL347:
.LM1433:
	mv	s7,a0
.LVL348:
.LM1434:
.L125:
.LM1435:
.LM1436:
	lbu	a5,116(s0)
.LM1437:
	addi	a5,a5,-1
.LM1438:
	bgt	a5,s3,.L126
.LM1439:
	addi	s1,s1,1
.LVL349:
.LM1440:
	andi	s1,s1,0xff
.LVL350:
.LM1441:
	j	.L124
.LVL351:
.L126:
.LM1442:
.LBB722:
.LBI722:
.LM1443:
.LBB723:
.LM1444:
.LM1445:
.LM1446:
.LBB724:
.LBI724:
.LM1447:
.LBB725:
.LM1448:
.LM1449:
.LM1450:
	lhu	s6,110(s0)
.LVL352:
.LM1451:
	lw	s2,112(s0)
.LVL353:
.LM1452:
.LBE725:
.LBE724:
.LM1453:
.LBE723:
.LBE722:
.LM1454:
	mv	a1,s7
.LBB727:
.LBB726:
.LM1455:
	add	s5,s3,s6
	add	s5,s2,s5
.LVL354:
.LM1456:
.LBE726:
.LBE727:
.LM1457:
	lbu	a0,0(s5)
	addi	s3,s3,1
.LVL355:
.LM1458:
	add	s2,s2,s3
.LVL356:
.LM1459:
	call	gf_mul
.LVL357:
.LBB728:
.LBI728:
.LM1460:
.LBB729:
.LM1461:
.LM1462:
.LM1463:
.LM1464:
.LM1465:
.LBE729:
.LBE728:
.LM1466:
	add	s2,s2,s6
.LM1467:
	lbu	a5,0(s2)
	xor	a0,a0,a5
	sb	a0,0(s5)
.LM1468:
	j	.L125
	.cfi_endproc
.LFE32:
	.size	calc_forney_syndromes, .-calc_forney_syndromes
	.section	.rodata.reedsolomon_init.str1.4,"aMS",@progbits,1
	.align	2
.LC0:
	.string	"utils_fec.c"
	.align	2
.LC1:
	.string	"\033[32mINFO  \033[0m"
	.align	2
.LC2:
	.string	"[%10u][%s: %s:%4d] reedsolomon_init.\r\n"
	.section	.text.reedsolomon_init,"ax",@progbits
	.align	1
	.globl	reedsolomon_init
	.type	reedsolomon_init, @function
reedsolomon_init:
.LVL358:
.LFB33:
.LM1469:
	.cfi_startproc
.LM1470:
.LM1471:
.LM1472:
.LM1473:
.LM1474:
.LM1475:
.LM1476:
.LM1477:
.LM1478:
.LBB730:
.LBI730:
.LM1479:
.LBB731:
.LM1480:
.LM1481:
	lui	a5,%hi(TrapNetCounter)
.LBE731:
.LBE730:
.LM1482:
	lw	a5,%lo(TrapNetCounter)(a5)
.LM1483:
	addi	sp,sp,-16
	.cfi_def_cfa_offset 16
	sw	s0,8(sp)
	sw	ra,12(sp)
	.cfi_offset 8, -8
	.cfi_offset 1, -4
.LM1484:
	mv	s0,a0
.LM1485:
	beq	a5,zero,.L130
.LM1486:
	call	xTaskGetTickCountFromISR
.LVL359:
.L135:
.LM1487:
	mv	a1,a0
.LM1488:
	lui	a3,%hi(.LC0)
	lui	a2,%hi(.LC1)
	lui	a0,%hi(.LC2)
	li	a4,657
	addi	a2,a2,%lo(.LC1)
	addi	a0,a0,%lo(.LC2)
	addi	a3,a3,%lo(.LC0)
	call	bl_printk
.LVL360:
.LM1489:
.LM1490:
.LM1491:
.LBB732:
.LBB733:
.LM1492:
	li	a4,65536
	addi	a4,a4,-512
	sw	a4,0(s0)
.LBE733:
.LBE732:
.LBB736:
.LBB737:
	li	a4,16711680
	addi	a4,a4,-511
	sw	a4,12(s0)
.LBE737:
.LBE736:
.LBB739:
.LBB740:
	li	a4,33357824
	addi	a4,a4,-1022
	sw	a4,24(s0)
	li	a4,49872896
	addi	a4,a4,-1021
	sw	a4,36(s0)
	li	a4,66387968
	addi	a4,a4,-1020
	sw	a4,48(s0)
.LBE740:
.LBE739:
.LBB744:
.LBB745:
	li	a4,82903040
.LBE745:
.LBE744:
.LM1493:
	addi	a5,s0,204
.LVL361:
.LBB749:
.LBI732:
.LM1494:
.LBB734:
.LM1495:
.LM1496:
.LM1497:
.LM1498:
.LM1499:
.LBE734:
.LBE749:
.LBB750:
.LBB746:
.LM1500:
	addi	a4,a4,-507
	sw	a4,60(s0)
.LBE746:
.LBE750:
.LBB751:
.LBB735:
.LM1501:
	sw	a5,4(s0)
.LM1502:
.LM1503:
	sb	zero,8(s0)
.LVL362:
.LM1504:
.LBE735:
.LBE751:
.LM1505:
.LM1506:
.LBB752:
.LBI736:
.LM1507:
.LBB738:
.LM1508:
.LM1509:
.LM1510:
.LM1511:
.LM1512:
.LM1513:
	sw	a5,16(s0)
.LM1514:
.LM1515:
	sb	zero,20(s0)
.LVL363:
.LM1516:
.LBE738:
.LBE752:
.LM1517:
.LM1518:
.LM1519:
.LM1520:
.LBB753:
.LBI739:
.LM1521:
.LBB741:
.LM1522:
.LM1523:
.LM1524:
.LM1525:
.LM1526:
.LM1527:
	sw	a5,28(s0)
.LM1528:
.LM1529:
	sb	zero,32(s0)
.LBE741:
.LBE753:
.LM1530:
.LM1531:
.LM1532:
.LVL364:
.LM1533:
.LBB754:
.LM1534:
.LBB742:
.LM1535:
.LM1536:
.LM1537:
.LM1538:
.LM1539:
.LM1540:
	sw	a5,40(s0)
.LM1541:
.LM1542:
	sb	zero,44(s0)
.LBE742:
.LBE754:
.LM1543:
.LM1544:
.LM1545:
.LVL365:
.LM1546:
.LBB755:
.LM1547:
.LBB743:
.LM1548:
.LM1549:
.LM1550:
.LM1551:
.LM1552:
.LM1553:
	sw	a5,52(s0)
.LM1554:
.LM1555:
	sb	zero,56(s0)
.LVL366:
.LM1556:
.LBE743:
.LBE755:
.LM1557:
.LM1558:
.LM1559:
.LM1560:
.LBB756:
.LBI744:
.LM1561:
.LBB747:
.LM1562:
.LM1563:
.LM1564:
.LM1565:
.LM1566:
.LM1567:
	sw	a5,64(s0)
.LM1568:
.LM1569:
	sb	zero,68(s0)
.LVL367:
.LM1570:
.LBE747:
.LBE756:
.LM1571:
.LM1572:
.LM1573:
.LBB757:
.LBB748:
.LM1574:
	li	a4,6
	addi	s0,s0,72
.LVL368:
.LM1575:
.LBE748:
.LBE757:
.LBB758:
.LBB759:
.LM1576:
	li	a0,-4
.LM1577:
	li	a1,252
.LBE759:
.LBE758:
.LM1578:
	li	a2,17
.LVL369:
.L132:
.LM1579:
.LBB762:
.LBI758:
.LM1580:
.LBB760:
.LM1581:
.LM1582:
.LM1583:
	mul	a3,a4,a1
.LM1584:
	sb	a4,0(s0)
.LM1585:
.LM1586:
	sb	a0,1(s0)
.LM1587:
.LM1588:
	sw	a5,4(s0)
.LM1589:
	sb	zero,8(s0)
.LBE760:
.LBE762:
.LM1590:
	addi	a4,a4,1
.LVL370:
.LM1591:
	addi	s0,s0,12
.LVL371:
.LBB763:
.LBB761:
.LM1592:
	addi	a3,a3,6
	sh	a3,-10(s0)
.LM1593:
.LM1594:
.LVL372:
.LM1595:
.LBE761:
.LBE763:
.LM1596:
.LM1597:
.LM1598:
	bne	a4,a2,.L132
.LM1599:
	lw	ra,12(sp)
	.cfi_remember_state
	.cfi_restore 1
	lw	s0,8(sp)
	.cfi_restore 8
	addi	sp,sp,16
	.cfi_def_cfa_offset 0
	jr	ra
.LVL373:
.L130:
	.cfi_restore_state
.LM1600:
	call	xTaskGetTickCount
.LVL374:
	j	.L135
	.cfi_endproc
.LFE33:
	.size	reedsolomon_init, .-reedsolomon_init
	.section	.text.encode_block,"ax",@progbits
	.align	1
	.globl	encode_block
	.type	encode_block, @function
encode_block:
.LVL375:
.LFB34:
.LM1601:
	.cfi_startproc
.LM1602:
.LM1603:
.LM1604:
.LM1605:
.LM1606:
	addi	sp,sp,-48
	.cfi_def_cfa_offset 48
	sw	ra,44(sp)
	sw	s0,40(sp)
	sw	s1,36(sp)
	.cfi_offset 1, -4
	.cfi_offset 8, -8
	.cfi_offset 9, -12
	mv	s0,a0
	sw	s3,28(sp)
	sw	s5,20(sp)
	.cfi_offset 19, -20
	.cfi_offset 21, -28
	mv	s3,a1
.LVL376:
.LM1607:
.LM1608:
	mv	s5,a2
.LVL377:
.LM1609:
.LM1610:
.LM1611:
.LM1612:
.LM1613:
.LM1614:
	sw	s2,32(sp)
	sw	s4,24(sp)
	.cfi_offset 18, -16
	.cfi_offset 20, -24
.LM1615:
	call	poly_reset
.LVL378:
.LM1616:
	addi	a0,s0,12
.LVL379:
.LM1617:
	li	s1,4096
.LM1618:
	call	poly_reset
.LVL380:
.LM1619:
.LM1620:
	add	s1,s0,s1
.LM1621:
	lbu	a5,147(s1)
	beq	a5,zero,.L137
.LM1622:
	li	a1,4096
	addi	a1,a1,20
	li	a3,0
	li	a2,127
	add	a1,s0,a1
	addi	a0,s0,24
.LVL381:
.LM1623:
	call	poly_set
.LVL382:
.L138:
.LM1624:
	mv	a1,s3
	li	a3,0
	li	a2,128
	mv	a0,s0
	call	poly_set
.LVL383:
.LM1625:
	mv	a1,s3
	li	a3,0
	li	a2,128
	addi	a0,s0,12
	call	poly_set
.LVL384:
.LM1626:
.LM1627:
	lbu	a5,8(s0)
.LM1628:
	li	s1,0
.LM1629:
	li	s3,128
.LVL385:
.LM1630:
	addi	a5,a5,126
.LM1631:
	sb	a5,20(s0)
.LM1632:
.LVL386:
.LM1633:
.L141:
.LM1634:
.LBB764:
.LBI764:
.LM1635:
.LBB765:
.LM1636:
.LM1637:
.LM1638:
.LBB766:
.LBI766:
.LM1639:
.LBB767:
.LM1640:
.LM1641:
.LM1642:
.LBE767:
.LBE766:
.LM1643:
.LM1644:
.LBE765:
.LBE764:
.LM1645:
	lw	a5,16(s0)
.LBB771:
.LBB770:
.LBB769:
.LBB768:
.LM1646:
	lhu	a4,14(s0)
.LBE768:
.LBE769:
.LBE770:
.LBE771:
.LM1647:
	add	a5,a5,s1
	add	a5,a5,a4
	lbu	a1,0(a5)
.LVL387:
.LM1648:
.LM1649:
	beq	a1,zero,.L139
	mv	s4,s1
.LM1650:
	li	s2,1
.LVL388:
.L140:
.LM1651:
.LM1652:
	lbu	a5,32(s0)
.LM1653:
	bgtu	a5,s2,.L143
.LVL389:
.L139:
.LM1654:
.LM1655:
	addi	s1,s1,1
.LVL390:
.LM1656:
	bne	s1,s3,.L141
.LM1657:
.LVL391:
.LBB772:
.LBI772:
.LM1658:
.LBB773:
.LM1659:
.LM1660:
.LM1661:
	lhu	a5,14(s0)
.LBE773:
.LBE772:
.LM1662:
	lw	a1,16(s0)
.LVL392:
.LM1663:
	lw	s0,40(sp)
	.cfi_remember_state
	.cfi_restore 8
.LVL393:
.LM1664:
	lw	ra,44(sp)
	.cfi_restore 1
	lw	s1,36(sp)
	.cfi_restore 9
.LVL394:
.LM1665:
	lw	s2,32(sp)
	.cfi_restore 18
	lw	s3,28(sp)
	.cfi_restore 19
	lw	s4,24(sp)
	.cfi_restore 20
.LM1666:
	mv	a0,s5
.LM1667:
	lw	s5,20(sp)
	.cfi_restore 21
.LVL395:
.LM1668:
	addi	a5,a5,128
.LM1669:
.LM1670:
	li	a2,126
	add	a1,a1,a5
.LM1671:
	addi	sp,sp,48
	.cfi_def_cfa_offset 0
.LM1672:
	tail	memcpy
.LVL396:
.L137:
	.cfi_restore_state
.LM1673:
	mv	a0,s0
	call	generator_poly
.LVL397:
.LM1674:
.LBB774:
.LBI774:
.LM1675:
.LBB775:
.LM1676:
.LM1677:
.LM1678:
	lhu	a5,26(s0)
.LM1679:
	lw	a1,28(s0)
.LBE775:
.LBE774:
.LM1680:
	lbu	a2,32(s0)
	li	a0,4096
	addi	a0,a0,20
	add	a1,a1,a5
	add	a0,s0,a0
	call	memcpy
.LVL398:
.LM1681:
.LM1682:
	li	a5,1
	sb	a5,147(s1)
	j	.L138
.LVL399:
.L143:
.LM1683:
.LBB776:
.LBI776:
.LM1684:
.LBB777:
.LM1685:
.LM1686:
.LM1687:
.LBB778:
.LBI778:
.LM1688:
.LBB779:
.LM1689:
.LM1690:
.LM1691:
.LBE779:
.LBE778:
.LM1692:
.LM1693:
.LBE777:
.LBE776:
.LM1694:
	lw	a5,28(s0)
.LBB783:
.LBB782:
.LBB781:
.LBB780:
.LM1695:
	lhu	a4,26(s0)
.LBE780:
.LBE781:
.LBE782:
.LBE783:
.LM1696:
	sw	a1,12(sp)
.LM1697:
	add	a5,a5,s2
	add	a5,a5,a4
.LM1698:
	lbu	a0,0(a5)
	call	gf_mul
.LVL400:
.LBB784:
.LBI784:
.LM1699:
.LBB785:
.LM1700:
.LM1701:
.LM1702:
.LBB786:
.LBI786:
.LM1703:
.LBB787:
.LM1704:
.LM1705:
.LM1706:
.LBE787:
.LBE786:
.LM1707:
.LBB789:
.LBB788:
.LM1708:
	lhu	a4,14(s0)
.LBE788:
.LBE789:
.LBE785:
.LBE784:
.LM1709:
	add	a5,s4,s2
.LBB792:
.LBB790:
.LM1710:
	andi	a5,a5,0xff
	add	a4,a4,a5
	lw	a5,16(s0)
.LBE790:
.LBE792:
.LM1711:
	lw	a1,12(sp)
	addi	s2,s2,1
.LVL401:
.LBB793:
.LBB791:
.LM1712:
	add	a5,a5,a4
.LVL402:
.LM1713:
.LBE791:
.LBE793:
.LM1714:
	lbu	a4,0(a5)
	xor	a0,a0,a4
	sb	a0,0(a5)
.LVL403:
.LM1715:
	j	.L140
	.cfi_endproc
.LFE34:
	.size	encode_block, .-encode_block
	.section	.text.reedsolomon_encode,"ax",@progbits
	.align	1
	.globl	reedsolomon_encode
	.type	reedsolomon_encode, @function
reedsolomon_encode:
.LVL404:
.LFB35:
.LM1716:
	.cfi_startproc
.LM1717:
.LM1718:
	addi	sp,sp,-32
	.cfi_def_cfa_offset 32
	sw	s0,24(sp)
	.cfi_offset 8, -8
	mv	s0,a2
	sw	s1,20(sp)
.LM1719:
	li	a2,128
.LVL405:
	.cfi_offset 9, -12
.LM1720:
	mv	s1,a0
.LVL406:
.LM1721:
.LM1722:
	mv	a0,s0
.LVL407:
.LM1723:
	sw	ra,28(sp)
	.cfi_offset 1, -4
.LM1724:
	sw	a1,12(sp)
.LM1725:
	call	memcpy
.LVL408:
.LM1726:
	addi	a2,s0,128
.LM1727:
	lw	s0,24(sp)
	.cfi_restore 8
.LVL409:
.LM1728:
	lw	a1,12(sp)
.LM1729:
	lw	ra,28(sp)
	.cfi_restore 1
.LM1730:
	mv	a0,s1
.LM1731:
	lw	s1,20(sp)
	.cfi_restore 9
.LVL410:
.LM1732:
	addi	sp,sp,32
	.cfi_def_cfa_offset 0
.LVL411:
.LM1733:
	tail	encode_block
.LVL412:
.LM1734:
	.cfi_endproc
.LFE35:
	.size	reedsolomon_encode, .-reedsolomon_encode
	.section	.text.decode_block,"ax",@progbits
	.align	1
	.globl	decode_block
	.type	decode_block, @function
decode_block:
.LVL413:
.LFB36:
.LM1735:
	.cfi_startproc
.LM1736:
	addi	sp,sp,-48
	.cfi_def_cfa_offset 48
	sw	s1,36(sp)
	sw	s4,24(sp)
	.cfi_offset 9, -12
	.cfi_offset 20, -24
	mv	s1,a2
	mv	s4,a3
.LM1737:
	li	a2,128
.LVL414:
.LM1738:
	li	a3,0
.LVL415:
.LM1739:
	sw	a4,12(sp)
	sw	ra,44(sp)
	sw	a5,8(sp)
	sw	s0,40(sp)
	sw	s2,32(sp)
	.cfi_offset 1, -4
	.cfi_offset 8, -8
	.cfi_offset 18, -16
	mv	s0,a0
.LM1740:
.LM1741:
.LM1742:
.LM1743:
.LVL416:
.LM1744:
.LM1745:
.LM1746:
.LM1747:
.LM1748:
.LM1749:
.LM1750:
.LM1751:
.LM1752:
.LM1753:
.LM1754:
.LM1755:
.LM1756:
.LM1757:
.LM1758:
.LM1759:
	sw	s3,28(sp)
	.cfi_offset 19, -20
.LM1760:
	call	poly_set
.LVL417:
.LM1761:
	li	a3,128
	li	a2,126
	mv	a1,s1
	mv	a0,s0
	call	poly_set
.LVL418:
.LM1762:
	mv	a1,s0
	addi	a0,s0,12
.LVL419:
.LM1763:
	call	poly_copy
.LVL420:
.LM1764:
.LM1765:
	lw	a4,12(sp)
	bne	a4,zero,.L153
.LM1766:
.LM1767:
	sb	zero,152(s0)
.LM1768:
.L154:
.LM1769:
	mv	a1,s0
	mv	a0,s0
	call	calc_syndromes
.LVL421:
.LM1770:
.LM1771:
.LM1772:
	lbu	a3,104(s0)
.LM1773:
	li	a4,0
.LVL422:
.L158:
.LM1774:
	andi	a5,a4,0xff
	bgtu	a3,a5,.L160
.LVL423:
.L161:
.LM1775:
.LM1776:
	li	a5,-128
.LBB794:
.LBB795:
.LM1777:
	lw	a1,16(s0)
.LBE795:
.LBE794:
.LM1778:
	sb	a5,20(s0)
.LM1779:
.LVL424:
.LBB797:
.LBI794:
.LM1780:
.LBB796:
.LM1781:
.LM1782:
.LM1783:
	lhu	a5,14(s0)
.LBE796:
.LBE797:
.LM1784:
	li	a2,128
	mv	a0,s4
	add	a1,a1,a5
	call	memcpy
.LVL425:
.LM1785:
.LM1786:
	li	a0,0
	j	.L173
.LVL426:
.L153:
.LM1787:
	lbu	a2,8(sp)
	li	a3,0
	mv	a1,a4
	addi	a0,s0,144
	call	poly_set
.LVL427:
.LM1788:
.LM1789:
	li	a5,0
.LVL428:
.L155:
.LM1790:
.LM1791:
	lbu	a4,152(s0)
.LM1792:
	bgtu	a4,a5,.L156
.LM1793:
.LM1794:
	li	a5,126
.LVL429:
.LM1795:
	bleu	a4,a5,.L154
.LVL430:
.L163:
.LM1796:
	li	a0,1
.L173:
.LM1797:
	lw	ra,44(sp)
	.cfi_remember_state
	.cfi_restore 1
	lw	s0,40(sp)
	.cfi_restore 8
.LVL431:
.LM1798:
	lw	s1,36(sp)
	.cfi_restore 9
	lw	s2,32(sp)
	.cfi_restore 18
	lw	s3,28(sp)
	.cfi_restore 19
	lw	s4,24(sp)
	.cfi_restore 20
.LVL432:
.LM1799:
	addi	sp,sp,48
	.cfi_def_cfa_offset 0
.LVL433:
.LM1800:
	jr	ra
.LVL434:
.L156:
	.cfi_restore_state
.LM1801:
.LBB798:
.LBI798:
.LM1802:
.LBB799:
.LM1803:
.LM1804:
.LM1805:
.LBB800:
.LBI800:
.LM1806:
.LBB801:
.LM1807:
.LM1808:
.LM1809:
.LBE801:
.LBE800:
.LM1810:
.LM1811:
.LBE799:
.LBE798:
.LBB805:
.LBI805:
.LM1812:
.LBB806:
.LM1813:
.LM1814:
.LM1815:
.LBB807:
.LBI807:
.LM1816:
.LBB808:
.LM1817:
.LM1818:
.LM1819:
.LBE808:
.LBE807:
.LM1820:
.LM1821:
.LBE806:
.LBE805:
.LM1822:
	lw	a4,148(s0)
.LBB813:
.LBB804:
.LBB803:
.LBB802:
.LM1823:
	lhu	a3,146(s0)
.LBE802:
.LBE803:
.LBE804:
.LBE813:
.LM1824:
	add	a4,a4,a5
	add	a4,a4,a3
.LBB814:
.LBB811:
.LM1825:
	lbu	a2,0(a4)
.LBE811:
.LBE814:
.LM1826:
	lw	a4,4(s0)
.LBB815:
.LBB812:
.LBB810:
.LBB809:
.LM1827:
	lhu	a3,2(s0)
.LBE809:
.LBE810:
.LBE812:
.LBE815:
.LM1828:
	addi	a5,a5,1
.LVL435:
.LM1829:
	add	a4,a4,a2
	add	a4,a4,a3
	sb	zero,0(a4)
.LVL436:
.LM1830:
	andi	a5,a5,0xff
.LVL437:
.LM1831:
	j	.L155
.LVL438:
.L160:
.LM1832:
.LBB816:
.LBI816:
.LM1833:
.LBB817:
.LM1834:
.LM1835:
.LM1836:
.LBB818:
.LBI818:
.LM1837:
.LBB819:
.LM1838:
.LM1839:
.LM1840:
.LBE819:
.LBE818:
.LM1841:
.LM1842:
.LBE817:
.LBE816:
.LM1843:
	lw	a5,100(s0)
.LBB823:
.LBB822:
.LBB821:
.LBB820:
.LM1844:
	lhu	a2,98(s0)
.LBE820:
.LBE821:
.LBE822:
.LBE823:
.LM1845:
	add	a5,a5,a4
	add	a5,a5,a2
	lbu	a5,0(a5)
.LM1846:
	addi	a4,a4,1
.LVL439:
.LM1847:
	beq	a5,zero,.L158
.LM1848:
.LVL440:
.LM1849:
	li	a3,254
	addi	a2,s0,144
	addi	a1,s0,96
	mv	a0,s0
	call	calc_forney_syndromes
.LVL441:
.LM1850:
	lbu	a3,152(s0)
	li	a2,0
	addi	a1,s0,108
	mv	a0,s0
	call	find_error_locator
.LVL442:
.LM1851:
.LM1852:
	lbu	a5,140(s0)
.LM1853:
	li	a3,0
.LM1854:
	sb	a5,44(s0)
.LM1855:
.LVL443:
.LM1856:
	addi	a5,a5,-1
.LVL444:
.LM1857:
	slli	a5,a5,24
.LVL445:
.LM1858:
	srai	a5,a5,24
.LM1859:
	j	.L166
.LVL446:
.L162:
.LM1860:
.LBB824:
.LBI824:
.LM1861:
.LBB825:
.LM1862:
.LM1863:
.LM1864:
.LBB826:
.LBI826:
.LM1865:
.LBB827:
.LM1866:
.LM1867:
.LM1868:
.LBE827:
.LBE826:
.LM1869:
.LM1870:
.LBE825:
.LBE824:
.LBB831:
.LBI831:
.LM1871:
.LBB832:
.LM1872:
.LM1873:
.LM1874:
.LBB833:
.LBI833:
.LM1875:
.LBB834:
.LM1876:
.LM1877:
.LM1878:
.LBE834:
.LBE833:
.LM1879:
.LM1880:
.LBE832:
.LBE831:
.LM1881:
	lw	a4,136(s0)
.LBB838:
.LBB830:
.LBB829:
.LBB828:
.LM1882:
	lhu	a2,134(s0)
.LBE828:
.LBE829:
.LBE830:
.LBE838:
.LBB839:
.LBB837:
.LBB836:
.LBB835:
	lhu	a1,38(s0)
.LBE835:
.LBE836:
.LBE837:
.LBE839:
.LM1883:
	add	a4,a4,a5
	add	a4,a4,a2
	lbu	a2,0(a4)
.LM1884:
	lw	a4,40(s0)
	addi	a5,a5,-1
	add	a4,a4,a3
	add	a4,a4,a1
	sb	a2,0(a4)
.LVL447:
.LM1885:
.LM1886:
	addi	a3,a3,1
.LVL448:
.L166:
.LM1887:
	slli	a4,a5,24
	srai	a4,a4,24
	bge	a4,zero,.L162
.LM1888:
.LM1889:
	li	a2,254
	addi	a1,s0,36
	mv	a0,s0
	call	find_errors
.LVL449:
.LM1890:
.LM1891:
	beq	a0,zero,.L163
.LM1892:
.LM1893:
	lbu	a5,164(s0)
.LBB840:
.LM1894:
	li	s1,0
.LVL450:
.LM1895:
.LBE840:
.LM1896:
	beq	a5,zero,.L163
.LVL451:
.L164:
.LBB849:
.LM1897:
	lbu	a5,164(s0)
	bgtu	a5,s1,.L165
.LBE849:
.LM1898:
	mv	a3,s0
	addi	a2,s0,144
	addi	a1,s0,96
	mv	a0,s0
	call	correct_errata
.LVL452:
	j	.L161
.L165:
.LBB850:
.LM1899:
.LVL453:
.LBB841:
.LBI841:
.LM1900:
.LBB842:
.LM1901:
.LM1902:
.LM1903:
.LBB843:
.LBI843:
.LM1904:
.LBB844:
.LM1905:
.LM1906:
.LM1907:
.LBE844:
.LBE843:
.LM1908:
.LM1909:
.LBE842:
.LBE841:
.LM1910:
	lw	a5,160(s0)
.LBB848:
.LBB847:
.LBB846:
.LBB845:
.LM1911:
	lhu	a4,158(s0)
.LBE845:
.LBE846:
.LBE847:
.LBE848:
.LM1912:
	addi	a0,s0,144
	add	a5,a5,s1
	add	a5,a5,a4
	lbu	a1,0(a5)
.LM1913:
	addi	s1,s1,1
.LVL454:
.LM1914:
	andi	s1,s1,0xff
.LVL455:
.LM1915:
	call	poly_append
.LVL456:
.LM1916:
	j	.L164
.LBE850:
	.cfi_endproc
.LFE36:
	.size	decode_block, .-decode_block
	.section	.text.reedsolomon_decode,"ax",@progbits
	.align	1
	.globl	reedsolomon_decode
	.type	reedsolomon_decode, @function
reedsolomon_decode:
.LVL457:
.LFB37:
.LM1917:
	.cfi_startproc
.LM1918:
.LM1919:
.LM1920:
.LM1921:
.LM1922:
	mv	a3,a2
.LM1923:
	li	a5,0
	li	a4,0
	addi	a2,a1,128
.LVL458:
.LM1924:
	tail	decode_block
.LVL459:
.LM1925:
	.cfi_endproc
.LFE37:
	.size	reedsolomon_decode, .-reedsolomon_decode
	.section	.rodata.reedsolomon_getmemsize.str1.4,"aMS",@progbits,1
	.align	2
.LC3:
	.string	"[%10u][%s: %s:%4d] sizeof(fec_t) = %d   sizeof(fec_context_t) = %d\r\n"
	.section	.text.reedsolomon_getmemsize,"ax",@progbits
	.align	1
	.globl	reedsolomon_getmemsize
	.type	reedsolomon_getmemsize, @function
reedsolomon_getmemsize:
.LFB38:
.LM1926:
	.cfi_startproc
.LM1927:
.LM1928:
.LM1929:
.LM1930:
.LBB851:
.LBI851:
.LM1931:
.LBB852:
.LM1932:
.LM1933:
	lui	a5,%hi(TrapNetCounter)
.LBE852:
.LBE851:
.LM1934:
	lw	a5,%lo(TrapNetCounter)(a5)
.LM1935:
	addi	sp,sp,-16
	.cfi_def_cfa_offset 16
	sw	ra,12(sp)
	.cfi_offset 1, -4
.LM1936:
	beq	a5,zero,.L177
.LM1937:
	call	xTaskGetTickCountFromISR
.LVL460:
.L180:
.LM1938:
	mv	a1,a0
.LM1939:
	li	a6,4096
	li	a5,4096
	lui	a3,%hi(.LC0)
	lui	a2,%hi(.LC1)
	lui	a0,%hi(.LC3)
	addi	a0,a0,%lo(.LC3)
	addi	a6,a6,148
	addi	a5,a5,384
	li	a4,868
	addi	a3,a3,%lo(.LC0)
	addi	a2,a2,%lo(.LC1)
	call	bl_printk
.LVL461:
.LM1940:
.LM1941:
.LM1942:
.LM1943:
	lw	ra,12(sp)
	.cfi_remember_state
	.cfi_restore 1
	li	a0,4096
	addi	a0,a0,148
	addi	sp,sp,16
	.cfi_def_cfa_offset 0
	jr	ra
.L177:
	.cfi_restore_state
.LM1944:
	call	xTaskGetTickCount
.LVL462:
	j	.L180
	.cfi_endproc
.LFE38:
	.size	reedsolomon_getmemsize, .-reedsolomon_getmemsize
	.globl	code_log
	.section	.rodata.code_log,"a"
	.align	2
	.type	code_log, @object
	.size	code_log, 256
code_log:
	.base64	"AAABGQIyGsYD3zPuG2jHSwRk4A40je+BHMFp+MgITHEFimUv4SQPITWTjtrwEoJFHbXCfWon+bnJmgl4TeRypga/i2Jm3TD94pglsxCRIog20JTOj5bbvfHSE1yDOEZAHkK2o8NIfm5rOihU+oW6Pcpem58KFXkrTtTlrHPzp1cHcMD3jIBjDWdK3u0xxf4Y46WZdya4tHwRRJLZIyCJLjc/0VuVvM/NkIeXstz8vmHyVtOrFCpdnoQ8OVNHbUGiHy1D2Ld7pHbEF0nsfwxv9myhO1IpnVWq+2CGsbvMPlrLWV+wnKmgUQv1Fut6dSzXT67V6ebnreh01vTqqFBY"
	.ascii	"\257"
	.globl	code_exp
	.section	.rodata.code_exp,"a"
	.align	2
	.type	code_exp, @object
	.size	code_exp, 512
code_exp:
	.base64	"AQIECBAgQIAdOnTozYcTJkyYLVq0derJjwMGDBgwYMCdJ06cJUqUNWrUtXfuwZ8jRowFChQoUKBdumnSuW/eoV++YcKZL168ZcqJDx48ePD959O7a9axf/7h36NbtnHi2a9DhhEiRIgNGjRo0L1nzoEfPnz47ceTO3bsxZczZsyFFy5cuG3aqU+eIUKEFSpUqE2aKVKkVapJkjly5NW3c+bRv2PGkT9+/OXXs3v28f/j26tLljFixJU3btylV65BghkyZMiNBw4cOHDg3adTplGiWbJ58vnvw5srVqxFigkSJEiQPXr09ffz++vLiwsWLFiwffrpz4MbNmzYrUeO"
	.base64	"AQIECBAgQIAdOnTozYcTJkyYLVq0derJjwMGDBgwYMCdJ06cJUqUNWrUtXfuwZ8jRowFChQoUKBdumnSuW/eoV++YcKZL168ZcqJDx48ePD959O7a9axf/7h36NbtnHi2a9DhhEiRIgNGjRo0L1nzoEfPnz47ceTO3bsxZczZsyFFy5cuG3aqU+eIUKEFSpUqE2aKVKkVapJkjly5NW3c+bRv2PGkT9+/OXXs3v28f/j26tLljFixJU3btylV65BghkyZMiNBw4cOHDg3adTplGiWbJ58vnvw5srVqxFigkSJEiQPXr09ffz++vLiwsWLFiwffrpz4MbNmzYrUeO"
	.ascii	"\001\002"
	.text
.Letext0:
	.section	.note.GNU-stack,"",@progbits
