	.file	"utils_log.c"
	.option nopic
	.attribute arch, "rv32i2p1_m2p0_f2p2_c2p0_zicsr2p0_zmmul1p0_zca1p0_zcf1p0"
	.attribute unaligned_access, 0
	.attribute stack_align, 16
	.text
.Ltext0:
	.cfi_sections	.debug_frame
	.section	.text.bl_printk,"ax",@progbits
	.align	1
	.globl	bl_printk
	.type	bl_printk, @function
bl_printk:
.LVL0:
.LFB6:
.LM1:
	.cfi_startproc
.LM2:
.LM3:
.LM4:
	addi	sp,sp,-64
	.cfi_def_cfa_offset 64
	sw	a5,52(sp)
.LM5:
	lui	a5,%hi(sys_log_all_enable)
	lbu	a5,%lo(sys_log_all_enable)(a5)
.LM6:
	sw	ra,28(sp)
	.cfi_offset 1, -36
.LM7:
	sw	a1,36(sp)
	sw	a2,40(sp)
	sw	a3,44(sp)
	sw	a4,48(sp)
	sw	a6,56(sp)
	sw	a7,60(sp)
.LM8:
	beq	a5,zero,.L1
.LM9:
	addi	a1,sp,36
	sw	a1,12(sp)
.LM10:
	call	vprint
.LVL1:
.LM11:
.L1:
.LM12:
	lw	ra,28(sp)
	.cfi_restore 1
	addi	sp,sp,64
	.cfi_def_cfa_offset 0
	jr	ra
	.cfi_endproc
.LFE6:
	.size	bl_printk, .-bl_printk
	.section	.rodata.log_buf_out.str1.4,"aMS",@progbits,1
	.align	2
.LC0:
	.string	"%3d "
	.align	2
.LC1:
	.string	"%3u "
	.align	2
.LC2:
	.string	"%02x "
	.align	2
.LC3:
	.string	"\033[36mBUF\033[0m"
	.align	2
.LC4:
	.string	"[%10u][%s: %s:%4d] %.*s\r\n"
	.section	.text.log_buf_out,"ax",@progbits
	.align	1
	.globl	log_buf_out
	.type	log_buf_out, @function
log_buf_out:
.LVL2:
.LFB5:
.LM13:
	.cfi_startproc
.LM14:
.LM15:
.LM16:
.LM17:
.LM18:
.LM19:
.LM20:
.LM21:
.LM22:
	ble	a3,zero,.L36
.LM23:
	addi	sp,sp,-96
	.cfi_def_cfa_offset 96
	sw	s5,68(sp)
	.cfi_offset 21, -28
.LM24:
	li	s5,50
.LM25:
	sw	s1,84(sp)
	.cfi_offset 9, -12
.LM26:
	rem	s1,a3,s5
.LM27:
	sw	s0,88(sp)
	sw	s2,80(sp)
	sw	s3,76(sp)
	sw	ra,92(sp)
	sw	s4,72(sp)
	sw	s6,64(sp)
	sw	s7,60(sp)
	sw	s8,56(sp)
	sw	s9,52(sp)
	sw	s10,48(sp)
	sw	s11,44(sp)
	.cfi_offset 8, -8
	.cfi_offset 18, -16
	.cfi_offset 19, -20
	.cfi_offset 1, -4
	.cfi_offset 20, -24
	.cfi_offset 22, -32
	.cfi_offset 23, -36
	.cfi_offset 24, -40
	.cfi_offset 25, -44
	.cfi_offset 26, -48
	.cfi_offset 27, -52
	sw	a1,16(sp)
	sw	a0,12(sp)
.LM28:
	mv	s0,a4
	mv	s3,a2
.LM29:
	div	s2,a3,s5
.LVL3:
.LM30:
.LM31:
.LM32:
	bne	s1,zero,.L9
.LM33:
	lui	s6,%hi(log_buf)
.LM34:
	lui	a5,%hi(.LC0)
	addi	s10,a5,%lo(.LC0)
.LM35:
	addi	s7,s6,%lo(log_buf)
	mul	s2,s2,s5
.LVL4:
.LM36:
	lui	s5,%hi(.LC2)
.LVL5:
.LM37:
	addi	s5,s5,%lo(.LC2)
.LVL6:
.L10:
.LM38:
	beq	s1,s2,.L19
.LM39:
	li	s11,0
.LM40:
	li	s4,0
.LM41:
	addi	s8,s6,%lo(log_buf)
.LM42:
	add	s9,s3,s1
.L32:
.LVL7:
.LM43:
.LM44:
	add	a5,s9,s4
	lbu	a2,0(a5)
.LM45:
	li	a5,1
.LM46:
	add	a0,s11,s8
.LM47:
	beq	s0,a5,.L28
	li	a5,2
	beq	s0,a5,.L29
.LM48:
.LM49:
	mv	a1,s5
	j	.L53
.LVL8:
.L9:
.LM50:
	lui	a5,%hi(.LC0)
	addi	a5,a5,%lo(.LC0)
	sw	a5,24(sp)
.LM51:
	lui	a5,%hi(.LC2)
	lui	s9,%hi(log_buf)
	addi	a5,a5,%lo(.LC2)
.LM52:
	li	s4,0
	addi	s8,s9,%lo(log_buf)
.LM53:
	sw	a5,28(sp)
.LVL9:
.L27:
.LM54:
	mul	s7,s4,s5
.LM55:
	bne	s4,s2,.L11
.LM56:
	lui	s4,%hi(.LC0)
.LVL10:
.LM57:
	lui	s5,%hi(.LC2)
.LM58:
	lui	s6,%hi(.LC1)
.LM59:
	li	s11,0
.LM60:
	li	s2,0
.LM61:
	li	s10,1
.LM62:
	addi	s4,s4,%lo(.LC0)
.LM63:
	addi	s5,s5,%lo(.LC2)
.LM64:
	addi	s6,s6,%lo(.LC1)
.L16:
.LVL11:
.LM65:
.LM66:
	add	a5,s2,s7
	add	a5,s3,a5
	lbu	a2,0(a5)
.LM67:
	add	a0,s8,s11
.LM68:
	beq	s0,s10,.L12
	li	a5,2
.LM69:
	mv	a1,s6
.LM70:
	beq	s0,a5,.L49
.LM71:
.LM72:
	mv	a1,s5
	j	.L49
.L12:
.LM73:
.LM74:
	slli	a2,a2,24
	srai	a2,a2,24
	mv	a1,s4
.L49:
.LM75:
	call	sprintf
.LVL12:
.LM76:
	addi	s2,s2,1
.LVL13:
.LM77:
	add	s11,s11,a0
.LVL14:
.LM78:
.LM79:
	bne	s1,s2,.L16
.LM80:
.LM81:
.LM82:
.LBB8:
.LBI8:
.LM83:
.LBB9:
.LM84:
.LM85:
	lui	a5,%hi(TrapNetCounter)
.LBE9:
.LBE8:
.LM86:
	lw	a5,%lo(TrapNetCounter)(a5)
	beq	a5,zero,.L17
.LM87:
	call	xTaskGetTickCountFromISR
.LVL15:
.L50:
.LM88:
	lw	a4,16(sp)
	lw	a3,12(sp)
.LM89:
	mv	a1,a0
.LM90:
	lui	a2,%hi(.LC3)
	lui	a0,%hi(.LC4)
	addi	a6,s9,%lo(log_buf)
	mv	a5,s11
	addi	a2,a2,%lo(.LC3)
	addi	a0,a0,%lo(.LC4)
	call	bl_printk
.LVL16:
.LM91:
.LM92:
.LM93:
.L19:
.LM94:
	lw	ra,92(sp)
	.cfi_remember_state
	.cfi_restore 1
	lw	s0,88(sp)
	.cfi_restore 8
.LVL17:
.LM95:
	lw	s1,84(sp)
	.cfi_restore 9
	lw	s2,80(sp)
	.cfi_restore 18
	lw	s3,76(sp)
	.cfi_restore 19
.LVL18:
.LM96:
	lw	s4,72(sp)
	.cfi_restore 20
	lw	s5,68(sp)
	.cfi_restore 21
	lw	s6,64(sp)
	.cfi_restore 22
	lw	s7,60(sp)
	.cfi_restore 23
	lw	s8,56(sp)
	.cfi_restore 24
	lw	s9,52(sp)
	.cfi_restore 25
	lw	s10,48(sp)
	.cfi_restore 26
	lw	s11,44(sp)
	.cfi_restore 27
.LM97:
	li	a0,0
.LM98:
	addi	sp,sp,96
	.cfi_def_cfa_offset 0
.LVL19:
.LM99:
	jr	ra
.LVL20:
.L17:
	.cfi_restore_state
.LM100:
	call	xTaskGetTickCount
.LVL21:
	j	.L50
.LVL22:
.L11:
.LM101:
	lui	a5,%hi(.LC1)
	addi	a5,a5,%lo(.LC1)
	add	s7,s3,s7
.LM102:
	li	s11,0
.LM103:
	li	s6,0
.LM104:
	li	s10,1
.LM105:
	sw	a5,20(sp)
.L24:
.LVL23:
.LM106:
.LM107:
	add	a5,s7,s6
	lbu	a2,0(a5)
.LM108:
	add	a0,s8,s11
.LM109:
	beq	s0,s10,.L20
	li	a5,2
	beq	s0,a5,.L21
.LM110:
.LM111:
	lw	a1,28(sp)
	j	.L51
.L20:
.LM112:
.LM113:
	lw	a1,24(sp)
	slli	a2,a2,24
	srai	a2,a2,24
.L51:
.LM114:
	call	sprintf
.LVL24:
.LM115:
	addi	s6,s6,1
.LVL25:
.LM116:
	add	s11,s11,a0
.LVL26:
.LM117:
.LM118:
	bne	s6,s5,.L24
.LM119:
.LM120:
.LM121:
.LBB10:
.LBI10:
.LM122:
.LBB11:
.LM123:
.LM124:
	lui	a5,%hi(TrapNetCounter)
.LBE11:
.LBE10:
.LM125:
	lw	a5,%lo(TrapNetCounter)(a5)
	beq	a5,zero,.L25
.LM126:
	call	xTaskGetTickCountFromISR
.LVL27:
.L52:
.LM127:
	lw	a4,16(sp)
	lw	a3,12(sp)
.LM128:
	mv	a1,a0
.LM129:
	lui	a2,%hi(.LC3)
	lui	a0,%hi(.LC4)
	mv	a6,s8
	mv	a5,s11
	addi	a2,a2,%lo(.LC3)
	addi	a0,a0,%lo(.LC4)
	call	bl_printk
.LVL28:
.LM130:
	beq	s4,s2,.L19
	addi	s4,s4,1
.LVL29:
.LM131:
	j	.L27
.L21:
.LM132:
.LM133:
	lw	a1,20(sp)
	j	.L51
.L25:
.LM134:
	call	xTaskGetTickCount
.LVL30:
	j	.L52
.LVL31:
.L28:
.LM135:
.LM136:
	slli	a2,a2,24
	srai	a2,a2,24
	mv	a1,s10
.L53:
.LM137:
	call	sprintf
.LVL32:
.LM138:
	addi	s4,s4,1
.LVL33:
.LM139:
	li	a5,50
.LVL34:
.LM140:
	add	s11,s11,a0
.LVL35:
.LM141:
.LM142:
	bne	s4,a5,.L32
.LM143:
.LM144:
.LM145:
.LBB12:
.LBI12:
.LM146:
.LBB13:
.LM147:
.LM148:
	lui	a5,%hi(TrapNetCounter)
.LVL36:
.LM149:
.LBE13:
.LBE12:
.LM150:
	lw	a5,%lo(TrapNetCounter)(a5)
	beq	a5,zero,.L33
.LM151:
	call	xTaskGetTickCountFromISR
.LVL37:
.L54:
.LM152:
	lw	a4,16(sp)
	lw	a3,12(sp)
.LM153:
	mv	a1,a0
.LM154:
	lui	a2,%hi(.LC3)
	lui	a0,%hi(.LC4)
	mv	a6,s7
	mv	a5,s11
	addi	a2,a2,%lo(.LC3)
	addi	a0,a0,%lo(.LC4)
	call	bl_printk
.LVL38:
.LM155:
.LM156:
.LM157:
	addi	s1,s1,50
	j	.L10
.L29:
.LM158:
.LM159:
	lui	a1,%hi(.LC1)
	addi	a1,a1,%lo(.LC1)
	j	.L53
.L33:
.LM160:
	call	xTaskGetTickCount
.LVL39:
	j	.L54
.LVL40:
.L36:
	.cfi_def_cfa_offset 0
	.cfi_restore 1
	.cfi_restore 8
	.cfi_restore 9
	.cfi_restore 18
	.cfi_restore 19
	.cfi_restore 20
	.cfi_restore 21
	.cfi_restore 22
	.cfi_restore 23
	.cfi_restore 24
	.cfi_restore 25
	.cfi_restore 26
	.cfi_restore 27
.LM161:
	li	a0,-1
.LVL41:
.LM162:
	ret
	.cfi_endproc
.LFE5:
	.size	log_buf_out, .-log_buf_out
	.section	.bss.log_buf,"aw",@nobits
	.align	2
	.type	log_buf, @object
	.size	log_buf, 512
log_buf:
	.zero	512
	.text
.Letext0:
	.section	.note.GNU-stack,"",@progbits
