	.file	"utils_sha256.c"
	.option nopic
	.attribute arch, "rv32i2p1_m2p0_f2p2_c2p0_zicsr2p0_zmmul1p0_zca1p0_zcf1p0"
	.attribute unaligned_access, 0
	.attribute stack_align, 16
	.text
.Ltext0:
	.cfi_sections	.debug_frame
	.section	.text.utils_sha256_init,"ax",@progbits
	.align	1
	.globl	utils_sha256_init
	.type	utils_sha256_init, @function
utils_sha256_init:
.LVL0:
.LFB2:
.LM1:
	.cfi_startproc
.LM2:
	li	a2,108
	li	a1,0
	tail	memset
.LVL1:
.LM3:
	.cfi_endproc
.LFE2:
	.size	utils_sha256_init, .-utils_sha256_init
	.section	.text.utils_sha256_free,"ax",@progbits
	.align	1
	.globl	utils_sha256_free
	.type	utils_sha256_free, @function
utils_sha256_free:
.LVL2:
.LFB3:
.LM4:
	.cfi_startproc
.LM5:
.LM6:
	beq	a0,zero,.L2
	addi	a5,a0,108
.LVL3:
.L4:
.LBB10:
.LBB11:
.LBB12:
.LM7:
	mv	a4,a0
.LM8:
	sb	zero,0(a4)
.LM9:
	addi	a0,a0,1
.LVL4:
.LM10:
.LM11:
	bne	a0,a5,.L4
.LVL5:
.L2:
.LM12:
.LBE12:
.LBE11:
.LBE10:
.LM13:
	ret
	.cfi_endproc
.LFE3:
	.size	utils_sha256_free, .-utils_sha256_free
	.section	.text.utils_sha256_clone,"ax",@progbits
	.align	1
	.globl	utils_sha256_clone
	.type	utils_sha256_clone, @function
utils_sha256_clone:
.LVL6:
.LFB4:
.LM14:
	.cfi_startproc
.LM15:
.LM16:
	addi	sp,sp,-16
	.cfi_def_cfa_offset 16
.LM17:
	li	a2,108
.LM18:
	sw	ra,12(sp)
	.cfi_offset 1, -4
.LM19:
	call	memcpy
.LVL7:
.LM20:
	lw	ra,12(sp)
	.cfi_restore 1
	addi	sp,sp,16
	.cfi_def_cfa_offset 0
	jr	ra
	.cfi_endproc
.LFE4:
	.size	utils_sha256_clone, .-utils_sha256_clone
	.section	.text.utils_sha256_starts,"ax",@progbits
	.align	1
	.globl	utils_sha256_starts
	.type	utils_sha256_starts, @function
utils_sha256_starts:
.LVL8:
.LFB5:
.LM21:
	.cfi_startproc
.LM22:
.LM23:
.LM24:
	li	a5,1779032064
	addi	a5,a5,1639
	sw	a5,8(a0)
.LM25:
	li	a5,-1150832640
	addi	a5,a5,-379
	sw	a5,12(a0)
.LM26:
	li	a5,1013903360
	addi	a5,a5,882
	sw	a5,16(a0)
.LM27:
	li	a5,-1521487872
	addi	a5,a5,1338
	sw	a5,20(a0)
.LM28:
	li	a5,1359892480
	addi	a5,a5,639
	sw	a5,24(a0)
.LM29:
	li	a5,-1694142464
	addi	a5,a5,-1908
	sw	a5,28(a0)
.LM30:
	li	a5,528736256
	addi	a5,a5,-1621
	sw	a5,32(a0)
.LM31:
	li	a5,1541459968
	addi	a5,a5,-743
.LM32:
	sw	zero,0(a0)
.LM33:
.LM34:
	sw	zero,4(a0)
.LM35:
.LM36:
.LM37:
.LM38:
.LM39:
.LM40:
.LM41:
.LM42:
.LM43:
.LM44:
	sw	a5,36(a0)
.LM45:
.LM46:
	sw	zero,104(a0)
.LM47:
	ret
	.cfi_endproc
.LFE5:
	.size	utils_sha256_starts, .-utils_sha256_starts
	.section	.text.utils_sha256_process,"ax",@progbits
	.align	1
	.globl	utils_sha256_process
	.type	utils_sha256_process, @function
utils_sha256_process:
.LVL9:
.LFB6:
.LM48:
	.cfi_startproc
.LM49:
.LM50:
.LM51:
.LM52:
.LM53:
.LM54:
	addi	sp,sp,-336
	.cfi_def_cfa_offset 336
	sw	s0,332(sp)
	.cfi_offset 8, -4
	addi	s0,a0,8
	sw	s1,328(sp)
	sw	s2,324(sp)
	sw	s3,320(sp)
	sw	s4,316(sp)
	sw	s5,312(sp)
	sw	s6,308(sp)
	sw	s7,304(sp)
	sw	s8,300(sp)
	.cfi_offset 9, -8
	.cfi_offset 18, -12
	.cfi_offset 19, -16
	.cfi_offset 20, -20
	.cfi_offset 21, -24
	.cfi_offset 22, -28
	.cfi_offset 23, -32
	.cfi_offset 24, -36
	mv	s1,sp
	addi	a0,a0,40
.LVL10:
.LM55:
	mv	a4,sp
	mv	a5,s0
.LVL11:
.L13:
.LM56:
.LM57:
	lw	a3,0(a5)
.LM58:
	addi	a5,a5,4
.LM59:
	sw	a3,0(a4)
.LM60:
.LM61:
	addi	a4,a4,4
	bne	a0,a5,.L13
	addi	t3,sp,32
	addi	a2,a1,64
	mv	a4,t3
.LVL12:
.L14:
.LM62:
.LM63:
.LM64:
	lbu	a5,0(a1)
.LM65:
	lbu	a3,1(a1)
.LM66:
	addi	a1,a1,4
.LM67:
	slli	a5,a5,24
.LM68:
	slli	a3,a3,16
.LM69:
	or	a5,a5,a3
.LM70:
	lbu	a3,-1(a1)
.LM71:
	or	a5,a5,a3
.LM72:
	lbu	a3,-2(a1)
.LM73:
	slli	a3,a3,8
.LM74:
	or	a5,a5,a3
.LM75:
	sw	a5,0(a4)
.LM76:
.LM77:
.LM78:
	addi	a4,a4,4
	bne	a2,a1,.L14
	lui	t2,%hi(K)
	lw	a2,28(sp)
.LVL13:
.LM79:
	lw	a4,16(sp)
	lw	a6,24(sp)
	lw	a1,20(sp)
	lw	a5,0(sp)
	lw	a7,4(sp)
	lw	t1,8(sp)
	lw	a3,12(sp)
	addi	t2,t2,%lo(K)
	addi	t0,t2,64
	mv	t6,t3
	mv	t5,t2
.L15:
.LM80:
.LM81:
	slli	s2,a4,26
	srli	t4,a4,6
.LM82:
	slli	s3,a4,21
.LM83:
	add	t4,t4,s2
.LM84:
	srli	s2,a4,11
	add	s2,s2,s3
.LM85:
	xor	t4,t4,s2
.LM86:
	slli	s3,a4,7
	srli	s2,a4,25
	add	s2,s2,s3
.LM87:
	xor	t4,t4,s2
.LM88:
	lw	s3,0(t6)
	lw	s2,0(t5)
.LM89:
	addi	t5,t5,32
	addi	t6,t6,32
.LM90:
	add	s2,s2,s3
	add	t4,t4,s2
.LM91:
	xor	s2,a6,a1
.LM92:
	and	s2,s2,a4
.LM93:
	xor	s2,s2,a6
.LM94:
	add	t4,t4,s2
	add	t4,t4,a2
.LVL14:
.LM95:
.LM96:
.LM97:
	slli	s2,a5,30
	srli	a2,a5,2
.LM98:
	slli	s3,a5,19
.LM99:
	add	a2,a2,s2
.LM100:
	srli	s2,a5,13
	add	s2,s2,s3
.LM101:
	xor	a2,a2,s2
.LM102:
	slli	s3,a5,10
	srli	s2,a5,22
	add	s2,s2,s3
.LM103:
	xor	a2,a2,s2
.LM104:
	add	a3,a3,t4
.LM105:
.LM106:
	add	a2,a2,t4
.LM107:
	or	t4,a5,a7
.LVL15:
.LM108:
	and	s2,a5,a7
.LM109:
	and	t4,t4,t1
.LM110:
	or	t4,t4,s2
.LM111:
	add	a2,a2,t4
.LM112:
.LM113:
.LM114:
	lw	s2,-28(t6)
	lw	t4,-28(t5)
.LM115:
	slli	s3,a3,21
.LM116:
	add	t4,t4,s2
	add	t4,t4,a6
.LM117:
	xor	a6,a4,a1
.LM118:
	and	a6,a6,a3
.LM119:
	xor	a6,a6,a1
.LM120:
	slli	s2,a3,26
.LM121:
	add	t4,t4,a6
.LM122:
	srli	a6,a3,6
	add	a6,a6,s2
.LM123:
	srli	s2,a3,11
	add	s2,s2,s3
.LM124:
	xor	a6,a6,s2
.LM125:
	slli	s3,a3,7
	srli	s2,a3,25
	add	s2,s2,s3
.LM126:
	xor	a6,a6,s2
.LM127:
	add	t4,t4,a6
.LVL16:
.LM128:
.LM129:
.LM130:
	slli	s2,a2,30
	srli	a6,a2,2
.LM131:
	slli	s3,a2,19
.LM132:
	add	a6,a6,s2
.LM133:
	srli	s2,a2,13
	add	s2,s2,s3
.LM134:
	xor	a6,a6,s2
.LM135:
	slli	s3,a2,10
	srli	s2,a2,22
	add	s2,s2,s3
.LM136:
	xor	a6,a6,s2
.LM137:
	add	t1,t1,t4
.LM138:
.LM139:
	add	a6,a6,t4
.LM140:
	or	t4,a2,a5
.LVL17:
.LM141:
	and	s2,a2,a5
.LM142:
	and	t4,t4,a7
.LM143:
	or	t4,t4,s2
.LM144:
	add	a6,a6,t4
.LM145:
.LM146:
.LM147:
	lw	s2,-24(t6)
	lw	t4,-24(t5)
.LM148:
	slli	s3,t1,21
.LM149:
	add	t4,t4,s2
	add	t4,t4,a1
.LM150:
	xor	a1,a3,a4
.LM151:
	and	a1,a1,t1
.LM152:
	xor	a1,a1,a4
.LM153:
	slli	s2,t1,26
.LM154:
	add	t4,t4,a1
.LM155:
	srli	a1,t1,6
	add	a1,a1,s2
.LM156:
	srli	s2,t1,11
	add	s2,s2,s3
.LM157:
	xor	a1,a1,s2
.LM158:
	slli	s3,t1,7
	srli	s2,t1,25
	add	s2,s2,s3
.LM159:
	xor	a1,a1,s2
.LM160:
	add	t4,t4,a1
.LVL18:
.LM161:
.LM162:
.LM163:
	slli	s2,a6,30
	srli	a1,a6,2
.LM164:
	slli	s3,a6,19
.LM165:
	add	a1,a1,s2
.LM166:
	srli	s2,a6,13
	add	s2,s2,s3
.LM167:
	xor	a1,a1,s2
.LM168:
	slli	s3,a6,10
	srli	s2,a6,22
	add	s2,s2,s3
.LM169:
	xor	a1,a1,s2
.LM170:
	add	a7,a7,t4
.LM171:
.LM172:
	add	a1,a1,t4
.LM173:
	or	t4,a2,a6
.LVL19:
.LM174:
	and	s2,a2,a6
.LM175:
	and	t4,t4,a5
.LM176:
	or	t4,t4,s2
.LM177:
	add	a1,a1,t4
.LM178:
.LM179:
.LM180:
	lw	s2,-20(t6)
	lw	t4,-20(t5)
.LM181:
	slli	s3,a7,21
.LM182:
	add	t4,t4,s2
	add	t4,t4,a4
.LM183:
	xor	a4,a3,t1
.LM184:
	and	a4,a4,a7
.LM185:
	xor	a4,a4,a3
.LM186:
	slli	s2,a7,26
.LM187:
	add	t4,t4,a4
.LM188:
	srli	a4,a7,6
	add	a4,a4,s2
.LM189:
	srli	s2,a7,11
	add	s2,s2,s3
.LM190:
	xor	a4,a4,s2
.LM191:
	slli	s3,a7,7
	srli	s2,a7,25
	add	s2,s2,s3
.LM192:
	xor	a4,a4,s2
.LM193:
	add	t4,t4,a4
.LVL20:
.LM194:
.LM195:
.LM196:
	slli	s2,a1,30
	srli	a4,a1,2
.LM197:
	slli	s3,a1,19
.LM198:
	add	a4,a4,s2
.LM199:
	srli	s2,a1,13
	add	s2,s2,s3
.LM200:
	xor	a4,a4,s2
.LM201:
	slli	s3,a1,10
	srli	s2,a1,22
	add	s2,s2,s3
.LM202:
	xor	a4,a4,s2
.LM203:
	add	a5,a5,t4
.LM204:
.LM205:
	add	a4,a4,t4
.LM206:
	or	t4,a6,a1
.LVL21:
.LM207:
	and	s2,a6,a1
.LM208:
	and	t4,t4,a2
.LM209:
	or	t4,t4,s2
.LM210:
	add	a4,a4,t4
.LM211:
.LM212:
.LM213:
	lw	s2,-16(t6)
	lw	t4,-16(t5)
.LM214:
	slli	s3,a5,21
.LM215:
	add	t4,t4,s2
	add	t4,t4,a3
.LM216:
	xor	a3,t1,a7
.LM217:
	and	a3,a3,a5
.LM218:
	xor	a3,a3,t1
.LM219:
	slli	s2,a5,26
.LM220:
	add	t4,t4,a3
.LM221:
	srli	a3,a5,6
	add	a3,a3,s2
.LM222:
	srli	s2,a5,11
	add	s2,s2,s3
.LM223:
	xor	a3,a3,s2
.LM224:
	slli	s3,a5,7
	srli	s2,a5,25
	add	s2,s2,s3
.LM225:
	xor	a3,a3,s2
.LM226:
	add	t4,t4,a3
.LVL22:
.LM227:
.LM228:
.LM229:
	slli	s2,a4,30
	srli	a3,a4,2
.LM230:
	slli	s3,a4,19
.LM231:
	add	a3,a3,s2
.LM232:
	srli	s2,a4,13
	add	s2,s2,s3
.LM233:
	xor	a3,a3,s2
.LM234:
	slli	s3,a4,10
	srli	s2,a4,22
	add	s2,s2,s3
.LM235:
	xor	a3,a3,s2
.LM236:
	add	a2,a2,t4
.LM237:
.LM238:
	add	a3,a3,t4
.LM239:
	or	t4,a1,a4
.LVL23:
.LM240:
	and	s2,a1,a4
.LM241:
	and	t4,t4,a6
.LM242:
	or	t4,t4,s2
.LM243:
	add	a3,a3,t4
.LM244:
.LM245:
.LM246:
	lw	s2,-12(t6)
	lw	t4,-12(t5)
.LM247:
	slli	s3,a2,21
.LM248:
	add	t4,t4,s2
	add	t4,t4,t1
.LM249:
	xor	t1,a7,a5
.LM250:
	and	t1,t1,a2
.LM251:
	xor	t1,t1,a7
.LM252:
	add	t4,t4,t1
.LM253:
	slli	s2,a2,26
	srli	t1,a2,6
	add	t1,t1,s2
.LM254:
	srli	s2,a2,11
	add	s2,s2,s3
.LM255:
	xor	t1,t1,s2
.LM256:
	slli	s3,a2,7
	srli	s2,a2,25
	add	s2,s2,s3
.LM257:
	xor	t1,t1,s2
.LM258:
	add	t4,t4,t1
.LVL24:
.LM259:
.LM260:
.LM261:
	slli	s2,a3,30
	srli	t1,a3,2
	add	t1,t1,s2
.LM262:
	slli	s3,a3,19
	srli	s2,a3,13
	add	s2,s2,s3
.LM263:
	xor	t1,t1,s2
.LM264:
	slli	s3,a3,10
	srli	s2,a3,22
	add	s2,s2,s3
.LM265:
	xor	t1,t1,s2
.LM266:
	add	a6,a6,t4
.LM267:
.LM268:
	add	t1,t1,t4
.LM269:
	or	t4,a4,a3
.LVL25:
.LM270:
	and	s2,a4,a3
.LM271:
	and	t4,t4,a1
.LM272:
	or	t4,t4,s2
.LM273:
	add	t1,t1,t4
.LM274:
.LM275:
.LM276:
	lw	s2,-8(t6)
	lw	t4,-8(t5)
.LM277:
	slli	s3,a6,21
.LM278:
	add	t4,t4,s2
	add	t4,t4,a7
.LM279:
	xor	a7,a5,a2
.LM280:
	and	a7,a7,a6
.LM281:
	xor	a7,a7,a5
.LM282:
	add	t4,t4,a7
.LM283:
	slli	s2,a6,26
	srli	a7,a6,6
	add	a7,a7,s2
.LM284:
	srli	s2,a6,11
	add	s2,s2,s3
.LM285:
	xor	a7,a7,s2
.LM286:
	slli	s3,a6,7
	srli	s2,a6,25
	add	s2,s2,s3
.LM287:
	xor	a7,a7,s2
.LM288:
	add	t4,t4,a7
.LVL26:
.LM289:
.LM290:
.LM291:
	slli	s2,t1,30
	srli	a7,t1,2
	add	a7,a7,s2
.LM292:
	slli	s3,t1,19
	srli	s2,t1,13
	add	s2,s2,s3
.LM293:
	xor	a7,a7,s2
.LM294:
	slli	s3,t1,10
	srli	s2,t1,22
	add	s2,s2,s3
.LM295:
	xor	a7,a7,s2
.LM296:
	add	a1,a1,t4
.LM297:
.LM298:
	add	a7,a7,t4
.LM299:
	or	t4,a3,t1
.LVL27:
.LM300:
	and	t4,t4,a4
.LM301:
	and	s2,a3,t1
.LM302:
	or	t4,t4,s2
.LM303:
	add	a7,a7,t4
.LM304:
.LM305:
.LM306:
	lw	s2,-4(t6)
	lw	t4,-4(t5)
.LM307:
	slli	s3,a1,21
.LM308:
	add	t4,t4,s2
	add	t4,t4,a5
.LM309:
	xor	a5,a2,a6
.LM310:
	and	a5,a5,a1
.LM311:
	xor	a5,a5,a2
.LM312:
	add	t4,t4,a5
.LM313:
	slli	s2,a1,26
	srli	a5,a1,6
	add	a5,a5,s2
.LM314:
	srli	s2,a1,11
	add	s2,s2,s3
.LM315:
	xor	a5,a5,s2
.LM316:
	slli	s3,a1,7
	srli	s2,a1,25
	add	s2,s2,s3
.LM317:
	xor	a5,a5,s2
.LM318:
	add	t4,t4,a5
.LVL28:
.LM319:
.LM320:
.LM321:
	slli	s2,a7,30
	srli	a5,a7,2
	add	a5,a5,s2
.LM322:
	slli	s3,a7,19
	srli	s2,a7,13
	add	s2,s2,s3
.LM323:
	xor	a5,a5,s2
.LM324:
	slli	s3,a7,10
	srli	s2,a7,22
	add	s2,s2,s3
.LM325:
	xor	a5,a5,s2
.LM326:
	add	a5,a5,t4
.LM327:
	add	a4,a4,t4
.LM328:
.LM329:
	or	t4,t1,a7
.LVL29:
.LM330:
	and	t4,t4,a3
.LM331:
	and	s2,t1,a7
.LM332:
	or	t4,t4,s2
.LM333:
	add	a5,a5,t4
.LM334:
.LM335:
.LM336:
	bne	t0,t5,.L15
	addi	s2,t3,192
.LVL30:
.L16:
.LM337:
.LM338:
	lw	s3,56(t3)
.LM339:
	lw	t0,4(t3)
.LM340:
	lw	s5,8(t3)
.LM341:
	slli	t5,s3,15
	srli	t4,s3,17
.LM342:
	slli	t6,s3,13
.LM343:
	add	t4,t4,t5
.LM344:
	srli	t5,s3,19
	add	t5,t5,t6
.LM345:
	xor	t4,t4,t5
.LM346:
	srli	t5,s3,10
.LM347:
	lw	t6,0(t3)
.LM348:
	xor	t4,t4,t5
.LM349:
	lw	t5,36(t3)
.LM350:
	slli	s4,t0,14
.LM351:
	addi	t3,t3,32
.LM352:
	add	t5,t5,t6
	add	t4,t4,t5
.LM353:
	slli	t6,t0,25
	srli	t5,t0,7
	add	t5,t5,t6
.LM354:
	srli	t6,t0,18
	add	t6,t6,s4
.LM355:
	xor	t5,t5,t6
.LM356:
	srli	t6,t0,3
.LM357:
	xor	t5,t5,t6
.LM358:
	add	t4,t4,t5
.LM359:
	slli	t6,a4,26
	srli	t5,a4,6
.LM360:
	slli	s4,a4,21
.LM361:
	add	t5,t5,t6
.LM362:
	srli	t6,a4,11
	add	t6,t6,s4
.LM363:
	xor	t5,t5,t6
.LM364:
	slli	s4,a4,7
	srli	t6,a4,25
	add	t6,t6,s4
.LM365:
	xor	t5,t5,t6
.LM366:
	xor	t6,a6,a1
.LM367:
	and	t6,t6,a4
.LM368:
	xor	t6,t6,a6
	add	t5,t5,t6
	lw	t6,64(t2)
.LM369:
	slli	s4,a5,19
.LM370:
	slli	s7,t4,13
	add	t5,t5,t6
	add	t5,t5,t4
.LM371:
	add	t5,a2,t5
.LVL31:
.LM372:
.LM373:
.LM374:
	slli	t6,a5,30
	srli	a2,a5,2
	add	a2,a2,t6
.LM375:
	srli	t6,a5,13
	add	t6,t6,s4
.LM376:
	xor	a2,a2,t6
.LM377:
	slli	s4,a5,10
	srli	t6,a5,22
	add	t6,t6,s4
.LM378:
	xor	a2,a2,t6
.LM379:
	or	t6,a5,a7
.LM380:
	and	s4,a5,a7
.LM381:
	and	t6,t6,t1
.LM382:
	or	t6,t6,s4
.LM383:
	lw	s4,28(t3)
.LM384:
	add	a2,a2,t6
.LM385:
	add	a3,a3,t5
.LM386:
.LM387:
	add	a2,a2,t5
.LM388:
.LM389:
.LM390:
	srli	t6,s4,17
	slli	t5,s4,15
.LVL32:
.LM391:
	slli	s6,s4,13
.LM392:
	add	t6,t6,t5
.LM393:
	srli	t5,s4,19
	add	t5,t5,s6
.LM394:
	xor	t6,t6,t5
.LM395:
	srli	t5,s4,10
.LM396:
	xor	t6,t6,t5
.LM397:
	lw	t5,8(t3)
.LM398:
	slli	s6,s5,14
.LM399:
	sw	t4,32(t3)
.LM400:
	add	t0,t0,t5
	add	t6,t6,t0
.LM401:
	srli	t5,s5,7
	slli	t0,s5,25
	add	t5,t5,t0
.LM402:
	srli	t0,s5,18
	add	t0,t0,s6
.LM403:
	xor	t5,t5,t0
.LM404:
	srli	t0,s5,3
.LM405:
	xor	t5,t5,t0
.LM406:
	add	t6,t6,t5
	lw	t5,68(t2)
.LM407:
	xor	t0,a4,a1
.LM408:
	and	t0,t0,a3
	add	t5,a6,t5
.LM409:
	xor	t0,t0,a1
	add	t5,t5,t6
	add	a6,t0,t5
.LM410:
	slli	t0,a3,26
	srli	t5,a3,6
.LM411:
	slli	s6,a3,21
.LM412:
	add	t5,t5,t0
.LM413:
	srli	t0,a3,11
	add	t0,t0,s6
.LM414:
	xor	t5,t5,t0
.LM415:
	slli	s6,a3,7
	srli	t0,a3,25
	add	t0,t0,s6
.LM416:
	xor	t5,t5,t0
.LM417:
	add	t5,t5,a6
.LVL33:
.LM418:
.LM419:
.LM420:
	slli	t0,a2,30
	srli	a6,a2,2
.LM421:
	slli	s6,a2,19
.LM422:
	add	a6,a6,t0
.LM423:
	srli	t0,a2,13
	add	t0,t0,s6
.LM424:
	xor	a6,a6,t0
.LM425:
	slli	s6,a2,10
	srli	t0,a2,22
	add	t0,t0,s6
.LM426:
	xor	a6,a6,t0
.LM427:
	or	t0,a5,a2
.LM428:
	and	s6,a5,a2
.LM429:
	and	t0,t0,a7
.LM430:
	or	t0,t0,s6
.LM431:
	add	a6,a6,t0
.LM432:
	add	t1,t1,t5
.LM433:
.LM434:
	add	a6,a6,t5
.LM435:
.LM436:
.LM437:
	slli	t0,t4,15
	srli	t5,t4,17
.LVL34:
.LM438:
	add	t5,t5,t0
.LM439:
	srli	t0,t4,19
	add	t0,t0,s7
.LM440:
	xor	t5,t5,t0
.LM441:
	srli	t0,t4,10
.LM442:
	xor	t5,t5,t0
.LM443:
	lw	t0,12(t3)
.LM444:
	lw	s6,-20(t3)
.LM445:
	slli	s8,t6,13
.LM446:
	add	s5,s5,t0
	add	t5,t5,s5
.LM447:
	srli	t0,s6,7
	slli	s5,s6,25
.LM448:
	slli	s7,s6,14
.LM449:
	add	t0,t0,s5
.LM450:
	srli	s5,s6,18
	add	s5,s5,s7
.LM451:
	xor	t0,t0,s5
.LM452:
	srli	s5,s6,3
.LM453:
	xor	t0,t0,s5
.LM454:
	add	t5,t5,t0
	lw	t0,72(t2)
.LM455:
	xor	s5,a4,a3
.LM456:
	and	s5,s5,t1
	add	t0,a1,t0
.LM457:
	xor	s5,s5,a4
	add	t0,t0,t5
	add	a1,s5,t0
.LM458:
	slli	s5,t1,26
	srli	t0,t1,6
.LM459:
	slli	s7,t1,21
.LM460:
	add	t0,t0,s5
.LM461:
	srli	s5,t1,11
	add	s5,s5,s7
.LM462:
	xor	t0,t0,s5
.LM463:
	slli	s7,t1,7
	srli	s5,t1,25
	add	s5,s5,s7
.LM464:
	xor	t0,t0,s5
.LM465:
	add	t0,t0,a1
.LVL35:
.LM466:
.LM467:
.LM468:
	slli	s5,a6,30
	srli	a1,a6,2
.LM469:
	slli	s7,a6,19
.LM470:
	add	a1,a1,s5
.LM471:
	srli	s5,a6,13
	add	s5,s5,s7
.LM472:
	xor	a1,a1,s5
.LM473:
	slli	s7,a6,10
	srli	s5,a6,22
	add	s5,s5,s7
.LM474:
	xor	a1,a1,s5
.LM475:
	or	s5,a2,a6
.LM476:
	and	s7,a2,a6
.LM477:
	and	s5,s5,a5
.LM478:
	or	s5,s5,s7
.LM479:
	add	a1,a1,s5
.LM480:
	add	a7,a7,t0
.LM481:
.LM482:
	add	a1,a1,t0
.LM483:
.LM484:
.LM485:
	slli	s7,t6,15
	srli	t0,t6,17
.LVL36:
.LM486:
	add	t0,t0,s7
.LM487:
	srli	s7,t6,19
	add	s7,s7,s8
.LM488:
	xor	t0,t0,s7
.LM489:
	sw	t6,36(t3)
.LM490:
	srli	t6,t6,10
.LM491:
	xor	t0,t0,t6
.LM492:
	lw	t6,16(t3)
.LM493:
	lw	s5,-16(t3)
.LM494:
	slli	s8,t5,13
.LM495:
	add	s6,s6,t6
	add	t0,t0,s6
.LM496:
	srli	t6,s5,7
	slli	s6,s5,25
.LM497:
	slli	s7,s5,14
.LM498:
	add	t6,t6,s6
.LM499:
	srli	s6,s5,18
	add	s6,s6,s7
.LM500:
	xor	t6,t6,s6
.LM501:
	srli	s6,s5,3
.LM502:
	xor	t6,t6,s6
.LM503:
	add	t0,t0,t6
	lw	t6,76(t2)
.LM504:
	xor	s6,a3,t1
.LM505:
	and	s6,s6,a7
	add	t6,a4,t6
.LM506:
	xor	s6,s6,a3
	add	t6,t6,t0
	add	a4,s6,t6
.LM507:
	slli	s6,a7,26
	srli	t6,a7,6
.LM508:
	slli	s7,a7,21
.LM509:
	add	t6,t6,s6
.LM510:
	srli	s6,a7,11
	add	s6,s6,s7
.LM511:
	xor	t6,t6,s6
.LM512:
	slli	s7,a7,7
	srli	s6,a7,25
	add	s6,s6,s7
.LM513:
	xor	t6,t6,s6
.LM514:
	add	t6,t6,a4
.LVL37:
.LM515:
.LM516:
.LM517:
	slli	s6,a1,30
	srli	a4,a1,2
.LM518:
	slli	s7,a1,19
.LM519:
	add	a4,a4,s6
.LM520:
	srli	s6,a1,13
	add	s6,s6,s7
.LM521:
	xor	a4,a4,s6
.LM522:
	slli	s7,a1,10
	srli	s6,a1,22
	add	s6,s6,s7
.LM523:
	xor	a4,a4,s6
.LM524:
	or	s6,a6,a1
.LM525:
	and	s7,a6,a1
.LM526:
	and	s6,s6,a2
.LM527:
	or	s6,s6,s7
.LM528:
	add	a4,a4,s6
.LM529:
	add	a4,a4,t6
.LM530:
	add	a5,a5,t6
.LM531:
.LM532:
.LM533:
.LM534:
	slli	s7,t5,15
	srli	t6,t5,17
.LVL38:
.LM535:
	add	t6,t6,s7
.LM536:
	srli	s7,t5,19
	add	s7,s7,s8
.LM537:
	xor	t6,t6,s7
.LM538:
	sw	t5,40(t3)
.LM539:
	srli	t5,t5,10
.LM540:
	xor	t6,t6,t5
.LM541:
	lw	t5,20(t3)
.LM542:
	lw	s6,-12(t3)
.LM543:
	slli	s8,t0,13
.LM544:
	add	s5,s5,t5
	add	t6,t6,s5
.LM545:
	srli	t5,s6,7
	slli	s5,s6,25
.LM546:
	slli	s7,s6,14
.LM547:
	add	t5,t5,s5
.LM548:
	srli	s5,s6,18
	add	s5,s5,s7
.LM549:
	xor	t5,t5,s5
.LM550:
	srli	s5,s6,3
.LM551:
	xor	t5,t5,s5
.LM552:
	add	t6,t6,t5
	lw	t5,80(t2)
.LM553:
	xor	s5,t1,a7
.LM554:
	and	s5,s5,a5
	add	t5,t6,t5
.LM555:
	xor	s5,s5,t1
	add	t5,t5,a3
	add	a3,s5,t5
.LM556:
	slli	s5,a5,26
	srli	t5,a5,6
.LM557:
	slli	s7,a5,21
.LM558:
	add	t5,t5,s5
.LM559:
	srli	s5,a5,11
	add	s5,s5,s7
.LM560:
	xor	t5,t5,s5
.LM561:
	slli	s7,a5,7
	srli	s5,a5,25
	add	s5,s5,s7
.LM562:
	xor	t5,t5,s5
.LM563:
	add	t5,t5,a3
.LVL39:
.LM564:
.LM565:
.LM566:
	slli	s5,a4,30
	srli	a3,a4,2
.LM567:
	slli	s7,a4,19
.LM568:
	add	a3,a3,s5
.LM569:
	srli	s5,a4,13
	add	s5,s5,s7
.LM570:
	xor	a3,a3,s5
.LM571:
	slli	s7,a4,10
	srli	s5,a4,22
	add	s5,s5,s7
.LM572:
	xor	a3,a3,s5
.LM573:
	or	s5,a1,a4
.LM574:
	and	s7,a1,a4
.LM575:
	and	s5,s5,a6
.LM576:
	or	s5,s5,s7
.LM577:
	add	a3,a3,s5
.LM578:
	add	a3,a3,t5
.LM579:
	add	a2,a2,t5
.LM580:
.LM581:
.LM582:
.LM583:
	slli	s7,t0,15
	srli	t5,t0,17
.LVL40:
.LM584:
	add	t5,t5,s7
.LM585:
	srli	s7,t0,19
.LM586:
	lw	s5,-8(t3)
.LM587:
	add	s7,s7,s8
.LM588:
	xor	t5,t5,s7
.LM589:
	sw	t0,44(t3)
.LM590:
	srli	t0,t0,10
.LM591:
	add	s3,s3,s6
.LM592:
	xor	t5,t5,t0
.LM593:
	add	t5,t5,s3
.LM594:
	srli	t0,s5,7
	slli	s3,s5,25
.LM595:
	slli	s6,s5,14
.LM596:
	add	t0,t0,s3
.LM597:
	srli	s3,s5,18
	add	s3,s3,s6
.LM598:
	xor	t0,t0,s3
.LM599:
	srli	s3,s5,3
.LM600:
	xor	t0,t0,s3
.LM601:
	add	t5,t5,t0
	lw	t0,84(t2)
.LM602:
	xor	s3,a7,a5
.LM603:
	and	s3,s3,a2
	add	t0,t5,t0
.LM604:
	xor	s3,s3,a7
	add	t0,t0,t1
	add	t1,s3,t0
.LM605:
	slli	s3,a2,26
	srli	t0,a2,6
	add	t0,t0,s3
.LM606:
	slli	s6,a2,21
	srli	s3,a2,11
	add	s3,s3,s6
.LM607:
	xor	t0,t0,s3
.LM608:
	slli	s6,a2,7
	srli	s3,a2,25
	add	s3,s3,s6
.LM609:
	xor	t0,t0,s3
.LM610:
	add	t0,t0,t1
.LVL41:
.LM611:
.LM612:
.LM613:
	slli	s3,a3,30
	srli	t1,a3,2
	add	t1,t1,s3
.LM614:
	slli	s6,a3,19
	srli	s3,a3,13
	add	s3,s3,s6
.LM615:
	xor	t1,t1,s3
.LM616:
	slli	s6,a3,10
	srli	s3,a3,22
	add	s3,s3,s6
.LM617:
	xor	t1,t1,s3
.LM618:
	or	s3,a4,a3
.LM619:
	and	s6,a4,a3
.LM620:
	and	s3,s3,a1
.LM621:
	or	s3,s3,s6
.LM622:
	add	t1,t1,s3
.LM623:
	slli	s6,t6,15
	srli	s3,t6,17
	add	s3,s3,s6
.LM624:
	slli	s7,t6,13
	srli	s6,t6,19
.LM625:
	add	t1,t1,t0
.LM626:
	add	a6,a6,t0
.LM627:
.LM628:
.LM629:
.LM630:
	add	s6,s6,s7
.LM631:
	lw	t0,-4(t3)
.LVL42:
.LM632:
	xor	s3,s3,s6
.LM633:
	sw	t6,48(t3)
.LM634:
	srli	t6,t6,10
.LM635:
	add	s4,s4,s5
.LM636:
	xor	t6,s3,t6
.LM637:
	add	t6,t6,s4
.LM638:
	srli	s3,t0,7
	slli	s4,t0,25
.LM639:
	slli	s5,t0,14
.LM640:
	add	s3,s3,s4
.LM641:
	srli	s4,t0,18
	add	s4,s4,s5
.LM642:
	xor	s3,s3,s4
.LM643:
	srli	s4,t0,3
.LM644:
	xor	s3,s3,s4
.LM645:
	add	t6,t6,s3
	lw	s3,88(t2)
.LM646:
	xor	s4,a5,a2
.LM647:
	and	s4,s4,a6
	add	s3,t6,s3
.LM648:
	xor	s4,s4,a5
	add	s3,s3,a7
	add	a7,s4,s3
.LM649:
	sw	t6,56(t3)
.LM650:
	slli	s3,a6,26
	srli	t6,a6,6
	add	t6,t6,s3
.LM651:
	slli	s4,a6,21
	srli	s3,a6,11
	add	s3,s3,s4
.LM652:
	xor	t6,t6,s3
.LM653:
	slli	s4,a6,7
	srli	s3,a6,25
	add	s3,s3,s4
.LM654:
	xor	t6,t6,s3
.LM655:
	add	t6,t6,a7
.LVL43:
.LM656:
.LM657:
.LM658:
	slli	s3,t1,30
	srli	a7,t1,2
	add	a7,a7,s3
.LM659:
	slli	s4,t1,19
	srli	s3,t1,13
	add	s3,s3,s4
.LM660:
	xor	a7,a7,s3
.LM661:
	slli	s4,t1,10
	srli	s3,t1,22
	add	s3,s3,s4
.LM662:
	xor	a7,a7,s3
.LM663:
	or	s3,a3,t1
.LM664:
	and	s3,s3,a4
.LM665:
	and	s4,a3,t1
.LM666:
	or	s3,s3,s4
.LM667:
	add	a7,a7,s3
.LM668:
	add	a7,a7,t6
.LM669:
	add	a1,a1,t6
.LM670:
.LM671:
.LM672:
.LM673:
	slli	s4,t5,15
	srli	t6,t5,17
.LVL44:
.LM674:
	add	t6,t6,s4
.LM675:
	slli	s5,t5,13
	srli	s4,t5,19
.LM676:
	lw	s3,0(t3)
.LM677:
	add	s4,s4,s5
.LM678:
	xor	t6,t6,s4
.LM679:
	sw	t5,52(t3)
.LM680:
	srli	t5,t5,10
.LM681:
	xor	t5,t6,t5
.LM682:
	add	t4,t4,t0
.LM683:
	slli	t6,s3,25
.LM684:
	add	t4,t5,t4
.LM685:
	srli	t5,s3,7
	add	t5,t5,t6
.LM686:
	slli	t0,s3,14
	srli	t6,s3,18
	add	t6,t6,t0
.LM687:
	xor	t5,t5,t6
.LM688:
	srli	s3,s3,3
	lw	t6,92(t2)
.LM689:
	xor	t5,t5,s3
.LM690:
	add	t4,t4,t5
.LM691:
	xor	t5,a2,a6
	add	t6,t4,t6
.LM692:
	and	t5,t5,a1
.LM693:
	xor	t5,t5,a2
	add	a5,t6,a5
.LM694:
	add	a5,t5,a5
.LM695:
	sw	t4,60(t3)
.LM696:
	slli	t5,a1,26
	srli	t4,a1,6
	add	t4,t4,t5
.LM697:
	slli	t6,a1,21
	srli	t5,a1,11
	add	t5,t5,t6
.LM698:
	xor	t4,t4,t5
.LM699:
	slli	t6,a1,7
	srli	t5,a1,25
	add	t5,t5,t6
.LM700:
	xor	t4,t4,t5
.LM701:
	add	t4,t4,a5
.LVL45:
.LM702:
.LM703:
.LM704:
	slli	t5,a7,30
	srli	a5,a7,2
	add	a5,a5,t5
.LM705:
	slli	t6,a7,19
	srli	t5,a7,13
	add	t5,t5,t6
.LM706:
	xor	a5,a5,t5
.LM707:
	slli	t6,a7,10
	srli	t5,a7,22
	add	t5,t5,t6
.LM708:
	xor	a5,a5,t5
.LM709:
	or	t5,t1,a7
.LM710:
	and	t5,t5,a3
.LM711:
	and	t6,t1,a7
.LM712:
	or	t5,t5,t6
.LM713:
	add	a5,a5,t5
.LM714:
	add	a4,a4,t4
.LM715:
.LM716:
	add	a5,a5,t4
.LM717:
.LM718:
.LM719:
	addi	t2,t2,32
	bne	s2,t3,.L16
	sw	a2,28(sp)
	sw	a3,12(sp)
	sw	a6,24(sp)
	sw	t1,8(sp)
	sw	a1,20(sp)
	sw	a7,4(sp)
	sw	a4,16(sp)
	sw	a5,0(sp)
.L17:
.LM720:
.LM721:
	lw	a5,0(s0)
	lw	a4,0(s1)
.LM722:
	addi	s1,s1,4
.LM723:
	add	a5,a5,a4
	sw	a5,0(s0)
.LM724:
.LM725:
	addi	s0,s0,4
	bne	a0,s0,.L17
.LM726:
	lw	s0,332(sp)
	.cfi_restore 8
	lw	s1,328(sp)
	.cfi_restore 9
	lw	s2,324(sp)
	.cfi_restore 18
	lw	s3,320(sp)
	.cfi_restore 19
	lw	s4,316(sp)
	.cfi_restore 20
	lw	s5,312(sp)
	.cfi_restore 21
	lw	s6,308(sp)
	.cfi_restore 22
	lw	s7,304(sp)
	.cfi_restore 23
	lw	s8,300(sp)
	.cfi_restore 24
	addi	sp,sp,336
	.cfi_def_cfa_offset 0
	jr	ra
	.cfi_endproc
.LFE6:
	.size	utils_sha256_process, .-utils_sha256_process
	.section	.text.utils_sha256_update.part.0,"ax",@progbits
	.align	1
	.type	utils_sha256_update.part.0, @function
utils_sha256_update.part.0:
.LVL46:
.LFB11:
.LM727:
	.cfi_startproc
.LM728:
.LM729:
	addi	sp,sp,-32
	.cfi_def_cfa_offset 32
	sw	s0,24(sp)
	sw	s1,20(sp)
	sw	s2,16(sp)
	sw	s3,12(sp)
	sw	ra,28(sp)
	sw	s4,8(sp)
	sw	s5,4(sp)
	sw	s6,0(sp)
	.cfi_offset 8, -8
	.cfi_offset 9, -12
	.cfi_offset 18, -16
	.cfi_offset 19, -20
	.cfi_offset 1, -4
	.cfi_offset 20, -24
	.cfi_offset 21, -28
	.cfi_offset 22, -32
.LM730:
	lw	a5,0(a0)
.LM731:
	mv	s1,a0
	mv	s2,a1
	add	a4,a5,a2
.LM732:
	sw	a4,0(a0)
.LM733:
	mv	s0,a2
.LM734:
	andi	s3,a5,63
.LVL47:
.LM735:
.LM736:
.LM737:
.LM738:
.LM739:
	bgeu	a4,a5,.L27
.LM740:
.LM741:
	lw	a5,4(a0)
	addi	a5,a5,1
	sw	a5,4(a0)
.L27:
.LM742:
.LM743:
	beq	s3,zero,.L28
.LM744:
	li	a2,64
.LVL48:
.LM745:
	sub	s5,a2,s3
.LM746:
	bgtu	s5,s0,.L28
.LM747:
.LM748:
	addi	s4,s1,40
.LM749:
	mv	a1,s2
.LVL49:
.LM750:
	mv	a2,s5
	add	a0,s4,s3
.LVL50:
.LM751:
	call	memcpy
.LVL51:
.LM752:
	mv	a1,s4
	mv	a0,s1
	addi	s0,s0,-64
.LVL52:
.LM753:
	add	s0,s3,s0
.LVL53:
.LM754:
	call	utils_sha256_process
.LVL54:
.LM755:
.LM756:
	add	s2,s2,s5
.LVL55:
.LM757:
.LM758:
.LM759:
	li	s3,0
.LVL56:
.L28:
.LM760:
	mv	s4,s0
.LM761:
	li	s5,63
.LM762:
	add	s6,s0,s2
	j	.L29
.LVL57:
.L30:
.LM763:
	sub	a1,s6,s4
	mv	a0,s1
	call	utils_sha256_process
.LVL58:
.LM764:
.LM765:
.LM766:
	addi	s4,s4,-64
.LVL59:
.L29:
.LM767:
	bgtu	s4,s5,.L30
.LM768:
	srli	a1,s0,6
	li	a5,-64
	mul	a1,a1,a5
	add	a2,s0,a1
.LVL60:
.LM769:
.LM770:
	beq	a2,zero,.L24
.LM771:
.LM772:
	lw	s0,24(sp)
	.cfi_remember_state
	.cfi_restore 8
.LM773:
	addi	a0,s1,40
.LM774:
	lw	ra,28(sp)
	.cfi_restore 1
	lw	s1,20(sp)
	.cfi_restore 9
.LVL61:
.LM775:
	lw	s4,8(sp)
	.cfi_restore 20
	lw	s5,4(sp)
	.cfi_restore 21
	lw	s6,0(sp)
	.cfi_restore 22
.LM776:
	sub	a1,s2,a1
.LVL62:
.LM777:
	add	a0,a0,s3
.LVL63:
.LM778:
	lw	s2,16(sp)
	.cfi_restore 18
	lw	s3,12(sp)
	.cfi_restore 19
.LVL64:
.LM779:
	addi	sp,sp,32
	.cfi_def_cfa_offset 0
.LM780:
	tail	memcpy
.LVL65:
.L24:
	.cfi_restore_state
.LM781:
	lw	ra,28(sp)
	.cfi_restore 1
	lw	s0,24(sp)
	.cfi_restore 8
	lw	s1,20(sp)
	.cfi_restore 9
.LVL66:
.LM782:
	lw	s2,16(sp)
	.cfi_restore 18
.LVL67:
.LM783:
	lw	s3,12(sp)
	.cfi_restore 19
.LVL68:
.LM784:
	lw	s4,8(sp)
	.cfi_restore 20
	lw	s5,4(sp)
	.cfi_restore 21
	lw	s6,0(sp)
	.cfi_restore 22
	addi	sp,sp,32
	.cfi_def_cfa_offset 0
	jr	ra
	.cfi_endproc
.LFE11:
	.size	utils_sha256_update.part.0, .-utils_sha256_update.part.0
	.section	.text.utils_sha256_update,"ax",@progbits
	.align	1
	.globl	utils_sha256_update
	.type	utils_sha256_update, @function
utils_sha256_update:
.LVL69:
.LFB7:
.LM785:
	.cfi_startproc
.LM786:
.LM787:
.LM788:
.LM789:
	beq	a2,zero,.L38
	tail	utils_sha256_update.part.0
.LVL70:
.L38:
.LM790:
	ret
	.cfi_endproc
.LFE7:
	.size	utils_sha256_update, .-utils_sha256_update
	.section	.text.utils_sha256_finish,"ax",@progbits
	.align	1
	.globl	utils_sha256_finish
	.type	utils_sha256_finish, @function
utils_sha256_finish:
.LVL71:
.LFB8:
.LM791:
	.cfi_startproc
.LM792:
.LM793:
.LM794:
.LM795:
.LM796:
	addi	sp,sp,-48
	.cfi_def_cfa_offset 48
	sw	s0,40(sp)
	sw	ra,44(sp)
	.cfi_offset 8, -8
	.cfi_offset 1, -4
.LM797:
	lw	a5,4(a0)
.LM798:
	lw	a2,0(a0)
.LM799:
	mv	s0,a1
.LM800:
	slli	a5,a5,3
.LM801:
	srli	a1,a5,24
.LVL72:
.LM802:
	srli	a3,a2,29
.LM803:
	sb	a1,24(sp)
.LM804:
	srli	a1,a5,16
.LM805:
	or	a3,a5,a3
.LVL73:
.LM806:
.LM807:
	sb	a1,25(sp)
.LM808:
	slli	a1,a5,16
	srli	a5,a1,24
	slli	a3,a3,8
.LVL74:
.LM809:
	slli	a4,a2,3
.LVL75:
.LM810:
.LM811:
.LM812:
.LM813:
.LM814:
.LM815:
	add	a5,a5,a3
	sh	a5,26(sp)
.LM816:
.LM817:
.LM818:
.LM819:
	srli	a5,a4,24
.LM820:
	sb	a5,28(sp)
.LM821:
.LM822:
	srli	a5,a4,16
.LM823:
	sb	a5,29(sp)
.LM824:
.LM825:
.LM826:
	slli	a5,a4,16
	srli	a4,a5,24
.LVL76:
.LM827:
	slli	a5,a2,11
	add	a4,a4,a5
	sh	a4,30(sp)
.LM828:
.LM829:
.LM830:
	andi	a2,a2,63
.LVL77:
.LM831:
.LM832:
	li	a5,55
	bgtu	a2,a5,.L41
.LM833:
	li	a5,56
.L45:
.LM834:
	lui	a1,%hi(sha256_padding)
.LM835:
	sub	a2,a5,a2
.LVL78:
.LM836:
	addi	a1,a1,%lo(sha256_padding)
	sw	a0,12(sp)
	call	utils_sha256_update
.LVL79:
.LM837:
.LBB13:
.LBI13:
.LM838:
.LBB14:
.LM839:
.LM840:
.LM841:
	lw	a0,12(sp)
	li	a2,8
	addi	a1,sp,24
.LVL80:
.LM842:
	call	utils_sha256_update.part.0
.LVL81:
.LM843:
.LBE14:
.LBE13:
.LM844:
.LM845:
.LM846:
	lw	a0,12(sp)
	lbu	a5,11(a0)
.LM847:
	sb	a5,0(s0)
.LM848:
.LM849:
	lhu	a5,10(a0)
.LM850:
	sb	a5,1(s0)
.LM851:
.LM852:
	lw	a5,8(a0)
	srli	a5,a5,8
.LM853:
	sb	a5,2(s0)
.LM854:
.LM855:
	lw	a5,8(a0)
	sb	a5,3(s0)
.LM856:
.LM857:
.LM858:
.LM859:
	lbu	a5,15(a0)
.LM860:
	sb	a5,4(s0)
.LM861:
.LM862:
	lhu	a5,14(a0)
.LM863:
	sb	a5,5(s0)
.LM864:
.LM865:
	lw	a5,12(a0)
	srli	a5,a5,8
.LM866:
	sb	a5,6(s0)
.LM867:
.LM868:
	lw	a5,12(a0)
	sb	a5,7(s0)
.LM869:
.LM870:
.LM871:
.LM872:
	lbu	a5,19(a0)
.LM873:
	sb	a5,8(s0)
.LM874:
.LM875:
	lhu	a5,18(a0)
.LM876:
	sb	a5,9(s0)
.LM877:
.LM878:
	lw	a5,16(a0)
	srli	a5,a5,8
.LM879:
	sb	a5,10(s0)
.LM880:
.LM881:
	lw	a5,16(a0)
	sb	a5,11(s0)
.LM882:
.LM883:
.LM884:
.LM885:
	lbu	a5,23(a0)
.LM886:
	sb	a5,12(s0)
.LM887:
.LM888:
	lhu	a5,22(a0)
.LM889:
	sb	a5,13(s0)
.LM890:
.LM891:
	lw	a5,20(a0)
	srli	a5,a5,8
.LM892:
	sb	a5,14(s0)
.LM893:
.LM894:
	lw	a5,20(a0)
	sb	a5,15(s0)
.LM895:
.LM896:
.LM897:
.LM898:
	lbu	a5,27(a0)
.LM899:
	sb	a5,16(s0)
.LM900:
.LM901:
	lhu	a5,26(a0)
.LM902:
	sb	a5,17(s0)
.LM903:
.LM904:
	lw	a5,24(a0)
	srli	a5,a5,8
.LM905:
	sb	a5,18(s0)
.LM906:
.LM907:
	lw	a5,24(a0)
	sb	a5,19(s0)
.LM908:
.LM909:
.LM910:
.LM911:
	lbu	a5,31(a0)
.LM912:
	sb	a5,20(s0)
.LM913:
.LM914:
	lhu	a5,30(a0)
.LM915:
	sb	a5,21(s0)
.LM916:
.LM917:
	lw	a5,28(a0)
	srli	a5,a5,8
.LM918:
	sb	a5,22(s0)
.LM919:
.LM920:
	lw	a5,28(a0)
	sb	a5,23(s0)
.LM921:
.LM922:
.LM923:
.LM924:
	lbu	a5,35(a0)
.LM925:
	sb	a5,24(s0)
.LM926:
.LM927:
	lhu	a5,34(a0)
.LM928:
	sb	a5,25(s0)
.LM929:
.LM930:
	lw	a5,32(a0)
	srli	a5,a5,8
.LM931:
	sb	a5,26(s0)
.LM932:
.LM933:
	lw	a5,32(a0)
	sb	a5,27(s0)
.LM934:
.LM935:
.LM936:
	lw	a5,104(a0)
	bne	a5,zero,.L40
.LM937:
.LM938:
.LM939:
	lbu	a5,39(a0)
.LM940:
	sb	a5,28(s0)
.LM941:
.LM942:
	lhu	a5,38(a0)
.LM943:
	sb	a5,29(s0)
.LM944:
.LM945:
	lw	a5,36(a0)
	srli	a5,a5,8
.LM946:
	sb	a5,30(s0)
.LM947:
.LM948:
	lw	a5,36(a0)
	sb	a5,31(s0)
.LM949:
.L40:
.LM950:
	lw	ra,44(sp)
	.cfi_remember_state
	.cfi_restore 1
	lw	s0,40(sp)
	.cfi_restore 8
.LVL82:
.LM951:
	addi	sp,sp,48
	.cfi_def_cfa_offset 0
.LVL83:
.LM952:
	jr	ra
.LVL84:
.L41:
	.cfi_restore_state
.LM953:
	li	a5,120
	j	.L45
	.cfi_endproc
.LFE8:
	.size	utils_sha256_finish, .-utils_sha256_finish
	.section	.text.utils_sha256,"ax",@progbits
	.align	1
	.globl	utils_sha256
	.type	utils_sha256, @function
utils_sha256:
.LVL85:
.LFB9:
.LM954:
	.cfi_startproc
.LM955:
.LM956:
.LM957:
	addi	sp,sp,-144
	.cfi_def_cfa_offset 144
	sw	s0,136(sp)
	.cfi_offset 8, -8
	mv	s0,a0
.LM958:
	addi	a0,sp,20
.LVL86:
.LM959:
	sw	ra,140(sp)
	sw	s1,132(sp)
	.cfi_offset 1, -4
	.cfi_offset 9, -12
.LM960:
	sw	a1,12(sp)
	mv	s1,a2
.LM961:
	call	utils_sha256_init
.LVL87:
.LM962:
.LBB23:
.LBI23:
.LM963:
.LBB24:
.LM964:
.LM965:
.LM966:
	li	a5,1779032064
	addi	a5,a5,1639
	sw	a5,28(sp)
.LM967:
	li	a5,-1150832640
	addi	a5,a5,-379
	sw	a5,32(sp)
.LM968:
	li	a5,1013903360
	addi	a5,a5,882
	sw	a5,36(sp)
.LM969:
	li	a5,-1521487872
	addi	a5,a5,1338
	sw	a5,40(sp)
.LM970:
	li	a5,1359892480
	addi	a5,a5,639
	sw	a5,44(sp)
.LM971:
	li	a5,-1694142464
	addi	a5,a5,-1908
	sw	a5,48(sp)
.LM972:
	li	a5,528736256
.LBE24:
.LBE23:
.LM973:
	lw	a2,12(sp)
.LBB27:
.LBB25:
.LM974:
	addi	a5,a5,-1621
	sw	a5,52(sp)
.LM975:
	li	a5,1541459968
	addi	a5,a5,-743
.LBE25:
.LBE27:
.LM976:
	mv	a1,s0
	addi	a0,sp,20
.LVL88:
.LBB28:
.LBB26:
.LM977:
	sw	a5,56(sp)
.LM978:
	sw	zero,20(sp)
.LM979:
.LM980:
	sw	zero,24(sp)
.LM981:
.LM982:
.LM983:
.LM984:
.LM985:
.LM986:
.LM987:
.LM988:
.LM989:
.LM990:
.LM991:
	sw	zero,124(sp)
.LVL89:
.LM992:
.LBE26:
.LBE28:
.LM993:
	call	utils_sha256_update
.LVL90:
.LM994:
	mv	a1,s1
	addi	a0,sp,20
	call	utils_sha256_finish
.LVL91:
.LM995:
.LBB29:
.LBI29:
.LM996:
.LM997:
.LBB30:
.LBI30:
.LM998:
.LM999:
.LBB31:
.LBI31:
.LM1000:
.LBB32:
.LM1001:
.LM1002:
.LM1003:
.LM1004:
	addi	a5,sp,20
.LVL92:
.L47:
.LM1005:
	mv	a4,a5
.LM1006:
	sb	zero,0(a4)
.LM1007:
	addi	a5,a5,1
.LVL93:
.LM1008:
.LM1009:
	addi	a4,sp,128
	bne	a5,a4,.L47
.LBE32:
.LBE31:
.LBE30:
.LBE29:
.LM1010:
	lw	ra,140(sp)
	.cfi_restore 1
	lw	s0,136(sp)
	.cfi_restore 8
.LVL94:
.LM1011:
	lw	s1,132(sp)
	.cfi_restore 9
.LVL95:
.LM1012:
	addi	sp,sp,144
	.cfi_def_cfa_offset 0
.LVL96:
.LM1013:
	jr	ra
	.cfi_endproc
.LFE9:
	.size	utils_sha256, .-utils_sha256
	.section	.rodata.sha256_padding,"a"
	.align	2
	.type	sha256_padding, @object
	.size	sha256_padding, 64
sha256_padding:
	.string	"\200"
	.zero	62
	.section	.rodata.K,"a"
	.align	2
	.type	K, @object
	.size	K, 256
K:
	.word	1116352408
	.word	1899447441
	.word	-1245643825
	.word	-373957723
	.word	961987163
	.word	1508970993
	.word	-1841331548
	.word	-1424204075
	.word	-670586216
	.word	310598401
	.word	607225278
	.word	1426881987
	.word	1925078388
	.word	-2132889090
	.word	-1680079193
	.word	-1046744716
	.word	-459576895
	.word	-272742522
	.word	264347078
	.word	604807628
	.word	770255983
	.word	1249150122
	.word	1555081692
	.word	1996064986
	.word	-1740746414
	.word	-1473132947
	.word	-1341970488
	.word	-1084653625
	.word	-958395405
	.word	-710438585
	.word	113926993
	.word	338241895
	.word	666307205
	.word	773529912
	.word	1294757372
	.word	1396182291
	.word	1695183700
	.word	1986661051
	.word	-2117940946
	.word	-1838011259
	.word	-1564481375
	.word	-1474664885
	.word	-1035236496
	.word	-949202525
	.word	-778901479
	.word	-694614492
	.word	-200395387
	.word	275423344
	.word	430227734
	.word	506948616
	.word	659060556
	.word	883997877
	.word	958139571
	.word	1322822218
	.word	1537002063
	.word	1747873779
	.word	1955562222
	.word	2024104815
	.word	-2067236844
	.word	-1933114872
	.word	-1866530822
	.word	-1538233109
	.word	-1090935817
	.word	-965641998
	.text
.Letext0:
	.section	.note.GNU-stack,"",@progbits
