	.file	"utils_psk_fast.c"
	.option nopic
	.attribute arch, "rv32i2p1_m2p0_f2p2_c2p0_zicsr2p0_zmmul1p0_zca1p0_zcf1p0"
	.attribute unaligned_access, 0
	.attribute stack_align, 16
	.text
.Ltext0:
	.cfi_sections	.debug_frame
	.section	.text.Bl_F_fast.constprop.0,"ax",@progbits
	.align	1
	.type	Bl_F_fast.constprop.0, @function
Bl_F_fast.constprop.0:
.LVL0:
.LFB5:
.LM1:
	.cfi_startproc
.LM2:
.LM3:
.LM4:
	addi	sp,sp,-64
	.cfi_def_cfa_offset 64
	sw	s1,52(sp)
	.cfi_offset 9, -12
	mv	s1,a0
.LM5:
	mv	a0,a2
.LVL1:
.LM6:
	sw	ra,60(sp)
	sw	a3,12(sp)
	sw	a5,8(sp)
	sw	s0,56(sp)
	sw	s2,48(sp)
	.cfi_offset 1, -4
	.cfi_offset 8, -8
	.cfi_offset 18, -16
	mv	s0,a4
	sw	s3,44(sp)
	sw	s4,40(sp)
	.cfi_offset 19, -20
	.cfi_offset 20, -24
	mv	s3,a1
	mv	s4,a2
	sw	s5,36(sp)
	sw	s6,32(sp)
	.cfi_offset 21, -28
	.cfi_offset 22, -32
.LM7:
	mv	s5,a6
.LM8:
	call	strlen
.LVL2:
.LM9:
	lw	a1,12(sp)
.LM10:
	addi	a4,s0,4
.LM11:
	mv	a2,s0
.LM12:
	mv	s6,a0
.LVL3:
.LM13:
.LM14:
	mv	a0,s1
.LVL4:
.LM15:
	sw	a4,24(sp)
.LM16:
.LM17:
	sw	s1,28(sp)
.LM18:
	call	memcpy
.LVL5:
.LM19:
.LM20:
	lw	a5,8(sp)
.LM21:
	add	a4,s1,s0
	sb	zero,0(a4)
.LM22:
.LM23:
	sb	a5,3(a4)
.LM24:
	sb	zero,1(a4)
.LM25:
.LM26:
	sb	zero,2(a4)
.LM27:
.LM28:
	call	bl_sha_mutex_take
.LVL6:
.LM29:
	li	a6,20
	mv	a5,s3
	mv	a4,s6
	mv	a3,s4
	li	a2,1
	addi	a1,sp,24
	addi	a0,sp,28
	call	utils_hmac_sha1_fast
.LVL7:
.LM30:
	li	a2,20
	mv	a1,s3
	mv	a0,s5
.LM31:
	li	s0,4096
.LVL8:
.LM32:
	call	memcpy
.LVL9:
.LM33:
.LM34:
	addi	s0,s0,-1
	sw	s3,28(sp)
.LM35:
.LVL10:
.LM36:
.LM37:
	li	s2,20
.LVL11:
.L3:
.LM38:
.LM39:
	mv	a5,s1
	li	a6,20
	mv	a4,s6
	mv	a3,s4
	li	a2,1
	addi	a1,sp,24
	addi	a0,sp,28
.LM40:
	sw	s2,24(sp)
.LM41:
	call	utils_hmac_sha1_fast
.LVL12:
.LM42:
	li	a2,20
	mv	a1,s1
	mv	a0,s3
	call	memcpy
.LVL13:
.LM43:
.LM44:
.LM45:
	li	a5,0
.LVL14:
.L2:
.LM46:
	add	a3,s5,a5
.LM47:
	add	a4,s1,a5
.LM48:
	lbu	a4,0(a4)
	lbu	a2,0(a3)
.LM49:
	addi	a5,a5,1
.LVL15:
.LM50:
	xor	a4,a4,a2
	sb	a4,0(a3)
.LM51:
.LVL16:
.LM52:
	bne	a5,s2,.L2
.LM53:
.LVL17:
.LM54:
	addi	s0,s0,-1
.LVL18:
.LM55:
	bne	s0,zero,.L3
.LM56:
	call	bl_sha_mutex_give
.LVL19:
.LM57:
	lw	ra,60(sp)
	.cfi_restore 1
	lw	s0,56(sp)
	.cfi_restore 8
.LVL20:
.LM58:
	lw	s1,52(sp)
	.cfi_restore 9
.LVL21:
.LM59:
	lw	s2,48(sp)
	.cfi_restore 18
	lw	s3,44(sp)
	.cfi_restore 19
.LVL22:
.LM60:
	lw	s4,40(sp)
	.cfi_restore 20
.LVL23:
.LM61:
	lw	s5,36(sp)
	.cfi_restore 21
.LVL24:
.LM62:
	lw	s6,32(sp)
	.cfi_restore 22
.LVL25:
.LM63:
	addi	sp,sp,64
	.cfi_def_cfa_offset 0
.LVL26:
.LM64:
	jr	ra
	.cfi_endproc
.LFE5:
	.size	Bl_F_fast.constprop.0, .-Bl_F_fast.constprop.0
	.section	.text.utils_wifi_psk_cal_fast_bin,"ax",@progbits
	.align	1
	.globl	utils_wifi_psk_cal_fast_bin
	.type	utils_wifi_psk_cal_fast_bin, @function
utils_wifi_psk_cal_fast_bin:
.LVL27:
.LFB3:
.LM65:
	.cfi_startproc
.LM66:
.LM67:
.LM68:
	addi	sp,sp,-96
	.cfi_def_cfa_offset 96
	sw	s0,88(sp)
	sw	s1,84(sp)
	sw	s2,80(sp)
	sw	ra,92(sp)
	.cfi_offset 8, -8
	.cfi_offset 9, -12
	.cfi_offset 18, -16
	.cfi_offset 1, -4
.LM69:
	mv	s1,a0
	mv	s2,a1
	sw	a2,12(sp)
	mv	s0,a3
.LM70:
	call	strlen
.LVL28:
.LM71:
	lw	a4,12(sp)
	slti	a5,a4,33
	beq	a5,zero,.L9
.LM72:
	sltiu	a0,a0,64
.LM73:
	beq	a0,zero,.L9
.LM74:
	mv	a6,s0
	li	a5,2
	mv	a3,s2
	mv	a2,s1
	addi	a1,sp,24
	addi	a0,sp,44
	call	Bl_F_fast.constprop.0
.LVL29:
.LM75:
	li	a2,12
	mv	a1,s0
	addi	a0,s0,20
	call	memcpy
.LVL30:
.LM76:
	lw	a4,12(sp)
	addi	a0,sp,44
	mv	a6,s0
	li	a5,1
	mv	a3,s2
	mv	a2,s1
	addi	a1,sp,24
	call	Bl_F_fast.constprop.0
.LVL31:
.LM77:
.LM78:
	li	a0,0
.L7:
.LM79:
	lw	ra,92(sp)
	.cfi_remember_state
	.cfi_restore 1
	lw	s0,88(sp)
	.cfi_restore 8
.LVL32:
.LM80:
	lw	s1,84(sp)
	.cfi_restore 9
.LVL33:
.LM81:
	lw	s2,80(sp)
	.cfi_restore 18
.LVL34:
.LM82:
	addi	sp,sp,96
	.cfi_def_cfa_offset 0
.LVL35:
.LM83:
	jr	ra
.LVL36:
.L9:
	.cfi_restore_state
.LM84:
	li	a0,-1
	j	.L7
	.cfi_endproc
.LFE3:
	.size	utils_wifi_psk_cal_fast_bin, .-utils_wifi_psk_cal_fast_bin
	.section	.text.utils_wifi_psk_cal_fast,"ax",@progbits
	.align	1
	.globl	utils_wifi_psk_cal_fast
	.type	utils_wifi_psk_cal_fast, @function
utils_wifi_psk_cal_fast:
.LVL37:
.LFB4:
.LM85:
	.cfi_startproc
.LM86:
.LM87:
.LM88:
.LM89:
	addi	sp,sp,-48
	.cfi_def_cfa_offset 48
	sw	s1,36(sp)
	.cfi_offset 9, -12
	mv	s1,a3
.LM90:
	mv	a3,sp
.LVL38:
.LM91:
	sw	s0,40(sp)
	sw	ra,44(sp)
	.cfi_offset 8, -8
	.cfi_offset 1, -4
.LM92:
	call	utils_wifi_psk_cal_fast_bin
.LVL39:
.LM93:
	mv	s0,a0
.LVL40:
.LM94:
.LM95:
	bne	a0,zero,.L11
.LM96:
	li	a2,32
	mv	a1,sp
	mv	a0,s1
	call	utils_bin2hex
.LVL41:
.LM97:
.L11:
.LM98:
	lw	ra,44(sp)
	.cfi_restore 1
	mv	a0,s0
	lw	s0,40(sp)
	.cfi_restore 8
.LVL42:
.LM99:
	lw	s1,36(sp)
	.cfi_restore 9
.LVL43:
.LM100:
	addi	sp,sp,48
	.cfi_def_cfa_offset 0
	jr	ra
	.cfi_endproc
.LFE4:
	.size	utils_wifi_psk_cal_fast, .-utils_wifi_psk_cal_fast
	.text
.Letext0:
	.section	.note.GNU-stack,"",@progbits
