	.file	"utils_time.c"
	.option nopic
	.attribute arch, "rv32i2p1_m2p0_f2p2_c2p0_zicsr2p0_zmmul1p0_zca1p0_zcf1p0"
	.attribute unaligned_access, 0
	.attribute stack_align, 16
	.text
.Ltext0:
	.cfi_sections	.debug_frame
	.section	.rodata.utils_time_date_from_epoch.str1.4,"aMS",@progbits,1
	.align	2
.LC0:
	.base64	"HxwfHh8eHx8eHx4fAA=="
	.section	.text.utils_time_date_from_epoch,"ax",@progbits
	.align	1
	.globl	utils_time_date_from_epoch
	.type	utils_time_date_from_epoch, @function
utils_time_date_from_epoch:
.LVL0:
.LFB0:
.LM1:
	.cfi_startproc
.LM2:
.LM3:
.LM4:
.LM5:
	addi	sp,sp,-48
	.cfi_def_cfa_offset 48
	sw	s0,40(sp)
	.cfi_offset 8, -8
	mv	s0,a1
.LM6:
	lui	a1,%hi(.LC0)
.LVL1:
.LM7:
	sw	s1,36(sp)
.LM8:
	li	a2,12
	.cfi_offset 9, -12
.LM9:
	mv	s1,a0
.LM10:
	addi	a1,a1,%lo(.LC0)
	addi	a0,sp,20
.LVL2:
.LM11:
	sw	ra,44(sp)
	.cfi_offset 1, -4
.LM12:
	call	memcpy
.LVL3:
.LM13:
.LM14:
	lui	a1,%hi(.LC1)
	li	a2,7
	addi	a1,a1,%lo(.LC1)
	addi	a0,sp,12
	call	memcpy
.LVL4:
.LM15:
.LM16:
.LM17:
	li	a4,60
	remu	a5,s1,a4
.LM18:
	li	a2,7
.LM19:
	sh	zero,6(s0)
.LM20:
	li	a1,400
.LM21:
	sb	a5,2(s0)
.LM22:
.LM23:
	divu	a5,s1,a4
.LVL5:
.LM24:
.LM25:
	remu	a3,a5,a4
.LM26:
	divu	a5,a5,a4
.LVL6:
.LM27:
	li	a4,24
.LVL7:
.LM28:
	sb	a3,1(s0)
.LM29:
.LVL8:
.LM30:
.LM31:
	remu	a3,a5,a4
.LM32:
	divu	a5,a5,a4
.LVL9:
.LM33:
	sb	a3,0(s0)
.LM34:
.LVL10:
.LM35:
.LM36:
	remu	a2,a5,a2
.LM37:
	sw	a5,12(s0)
.LM38:
.LM39:
	addi	a4,a2,32
	add	a2,a4,sp
.LM40:
	lbu	a4,-20(a2)
.LM41:
	li	a2,100
.LM42:
	sb	a4,3(s0)
.LM43:
.LM44:
	li	a4,31535104
	addi	a4,a4,896
	divu	s1,s1,a4
.LM45:
	li	a4,1972
.LM46:
	addi	s1,s1,1970
.LM47:
.LVL11:
.L2:
.LM48:
	bgtu	s1,a4,.L5
.LM49:
.LM50:
	lbu	a4,6(s0)
.LVL12:
.LM51:
	li	a3,365
.LM52:
	sub	a5,a5,a4
.LVL13:
.LM53:
	divu	a4,a5,a3
.LM54:
	remu	a5,a5,a3
.LM55:
	addi	a4,a4,1970
.LM56:
	sw	a4,8(s0)
.LM57:
.LM58:
	andi	a3,a4,3
.LM59:
	addi	a5,a5,1
.LM60:
	sw	a5,16(s0)
.LM61:
.LM62:
	bne	a3,zero,.L6
	li	a3,100
	remu	a3,a4,a3
.LM63:
	bne	a3,zero,.L7
.L6:
	li	a3,400
	remu	a4,a4,a3
.LM64:
	bne	a4,zero,.L8
.L7:
.LM65:
.LM66:
	li	a4,29
	sb	a4,21(sp)
.LM67:
.LM68:
	li	a4,1
	sb	a4,7(s0)
.L8:
.LM69:
.LVL14:
.LM70:
	li	a2,0
.LM71:
	li	a4,0
.LVL15:
.L9:
.LM72:
	andi	a1,a2,0xff
.LVL16:
.LM73:
.LM74:
.LM75:
	andi	a3,a2,255
	addi	a3,a3,32
.LM76:
	sltiu	a0,a1,12
	add	a3,a3,sp
.LM77:
	beq	a0,zero,.L12
	bgtu	a5,a4,.L10
.L12:
.LM78:
	lbu	a3,-13(a3)
	sb	a1,5(s0)
.LM79:
.LVL17:
.LM80:
.LM81:
	li	a0,0
.LM82:
	sub	a4,a4,a3
.LVL18:
.LM83:
	sub	a5,a5,a4
.LM84:
	sb	a5,4(s0)
.LM85:
.LM86:
	lw	ra,44(sp)
	.cfi_remember_state
	.cfi_restore 1
	lw	s0,40(sp)
	.cfi_restore 8
.LVL19:
.LM87:
	lw	s1,36(sp)
	.cfi_restore 9
	addi	sp,sp,48
	.cfi_def_cfa_offset 0
	jr	ra
.LVL20:
.L5:
	.cfi_restore_state
.LM88:
.LM89:
	remu	a3,a4,a2
.LM90:
	bne	a3,zero,.L3
	remu	a3,a4,a1
.LM91:
	bne	a3,zero,.L4
.L3:
.LM92:
.LM93:
	lbu	a3,6(s0)
	addi	a3,a3,1
	sb	a3,6(s0)
.L4:
.LM94:
	addi	a4,a4,4
.LVL21:
.LM95:
	j	.L2
.LVL22:
.L10:
.LM96:
	lbu	a3,-12(a3)
.LM97:
	addi	a2,a2,1
.LM98:
.LM99:
	add	a4,a4,a3
.LVL23:
.LM100:
	slli	a4,a4,16
	srli	a4,a4,16
.LVL24:
.LM101:
	j	.L9
	.cfi_endproc
.LFE0:
	.size	utils_time_date_from_epoch, .-utils_time_date_from_epoch
	.section	.rodata
	.align	2
.LC1:
	.base64	"BAUGAAECAw=="
	.text
.Letext0:
	.section	.note.GNU-stack,"",@progbits
