	.file	"utils_memp.c"
	.option nopic
	.attribute arch, "rv32i2p1_m2p0_f2p2_c2p0_zicsr2p0_zmmul1p0_zca1p0_zcf1p0"
	.attribute unaligned_access, 0
	.attribute stack_align, 16
	.text
.Ltext0:
	.cfi_sections	.debug_frame
	.section	.text.utils_memp_init,"ax",@progbits
	.align	1
	.globl	utils_memp_init
	.type	utils_memp_init, @function
utils_memp_init:
.LVL0:
.LFB1:
.LM1:
	.cfi_startproc
.LM2:
.LM3:
.LM4:
.LM5:
.LM6:
.LM7:
.LM8:
.LM9:
	addi	sp,sp,-48
	.cfi_def_cfa_offset 48
	sw	s2,32(sp)
	.cfi_offset 18, -16
.LM10:
	addi	s2,a3,3
.LM11:
	andi	s2,s2,252
.LVL1:
.LM12:
.LM13:
	sw	s1,36(sp)
	.cfi_offset 9, -12
.LM14:
	addi	s1,a1,3
.LM15:
	neg	a4,s2
.LM16:
	add	s1,s2,s1
.LM17:
	and	s1,s1,a4
	slli	s1,s1,16
	srli	s1,s1,16
.LVL2:
.LM18:
.LM19:
.LM20:
	sw	s3,28(sp)
	.cfi_offset 19, -20
	mv	s3,a0
.LM21:
	mul	a0,s1,a2
.LVL3:
.LM22:
	addi	a5,s2,31
.LM23:
	sw	s0,40(sp)
	.cfi_offset 8, -8
.LM24:
	and	s0,a5,a4
.LVL4:
.LM25:
.LM26:
.LM27:
	sw	ra,44(sp)
	.cfi_offset 1, -4
.LM28:
	sw	a1,12(sp)
.LM29:
	sw	a2,8(sp)
.LM30:
	add	a0,a0,s0
	call	pvPortMalloc
.LVL5:
.LM31:
.LM32:
	beq	a0,zero,.L5
.LM33:
.LM34:
	lw	a1,12(sp)
.LM35:
	lw	a2,8(sp)
.LM36:
	add	a5,a0,s0
.LVL6:
.LM37:
.LM38:
	sw	a5,20(a0)
.LM39:
.LM40:
	sw	a1,0(a0)
.LM41:
.LM42:
	sw	a2,4(a0)
.LM43:
.LM44:
	sw	zero,8(a0)
.LM45:
.LM46:
	sb	s2,12(a0)
.LM47:
.LM48:
	sw	s1,16(a0)
.LM49:
.LM50:
.LVL7:
.LM51:
.LM52:
	li	a4,0
.LM53:
	li	a3,0
.LVL8:
.L3:
.LM54:
	bne	a4,a2,.L4
.LM55:
.LM56:
	sw	a3,28(a0)
.LM57:
.LM58:
	sw	a3,24(a0)
.LM59:
.LM60:
	sw	a0,0(s3)
.LM61:
.LM62:
	li	a0,0
.LVL9:
.L1:
.LM63:
	lw	ra,44(sp)
	.cfi_remember_state
	.cfi_restore 1
	lw	s0,40(sp)
	.cfi_restore 8
.LVL10:
.LM64:
	lw	s1,36(sp)
	.cfi_restore 9
.LVL11:
.LM65:
	lw	s2,32(sp)
	.cfi_restore 18
.LVL12:
.LM66:
	lw	s3,28(sp)
	.cfi_restore 19
.LVL13:
.LM67:
	addi	sp,sp,48
	.cfi_def_cfa_offset 0
.LVL14:
.LM68:
	jr	ra
.LVL15:
.L4:
	.cfi_restore_state
.LM69:
.LM70:
	addi	a4,a4,1
.LVL16:
.LM71:
	slli	a4,a4,16
.LM72:
	sw	a3,0(a5)
.LM73:
.LVL17:
.LM74:
.LM75:
	srli	a4,a4,16
.LVL18:
.LM76:
	mv	a3,a5
.LM77:
	add	a5,a5,s1
.LVL19:
.LM78:
	j	.L3
.LVL20:
.L5:
.LM79:
	li	a0,-1
.LVL21:
.LM80:
	j	.L1
	.cfi_endproc
.LFE1:
	.size	utils_memp_init, .-utils_memp_init
	.section	.text.utils_memp_deinit,"ax",@progbits
	.align	1
	.globl	utils_memp_deinit
	.type	utils_memp_deinit, @function
utils_memp_deinit:
.LVL22:
.LFB2:
.LM81:
	.cfi_startproc
.LM82:
.LM83:
	beq	a0,zero,.L9
.LM84:
.LM85:
	addi	sp,sp,-16
	.cfi_def_cfa_offset 16
	sw	ra,12(sp)
	.cfi_offset 1, -4
.LM86:
	call	vPortFree
.LVL23:
.LM87:
.LM88:
	lw	ra,12(sp)
	.cfi_restore 1
.LM89:
	li	a0,0
.LM90:
	addi	sp,sp,16
	.cfi_def_cfa_offset 0
	jr	ra
.LVL24:
.L9:
.LM91:
	li	a0,-1
.LVL25:
.LM92:
	ret
	.cfi_endproc
.LFE2:
	.size	utils_memp_deinit, .-utils_memp_deinit
	.section	.text.utils_memp_malloc,"ax",@progbits
	.align	1
	.globl	utils_memp_malloc
	.type	utils_memp_malloc, @function
utils_memp_malloc:
.LVL26:
.LFB3:
.LM93:
	.cfi_startproc
.LM94:
.LM95:
.LM96:
.LM97:
	li	a5,0
.LM98:
	beq	a0,zero,.L14
.LM99:
.LM100:
	lw	a4,8(a0)
.LM101:
	lw	a3,4(a0)
.LM102:
	li	a5,0
.LM103:
	beq	a4,a3,.L14
.LM104:
.LM105:
	lw	a5,28(a0)
.LVL27:
.LM106:
.LM107:
	beq	a5,zero,.L14
.LM108:
.LM109:
	lw	a3,0(a5)
.LM110:
	addi	a4,a4,1
	sw	a4,8(a0)
.LM111:
	sw	a3,28(a0)
.LM112:
.LM113:
.LVL28:
.LM114:
.LM115:
	li	a4,165
	sw	a4,0(a5)
.LM116:
.LM117:
	addi	a5,a5,4
.LVL29:
.L14:
.LM118:
	mv	a0,a5
.LVL30:
.LM119:
	ret
	.cfi_endproc
.LFE3:
	.size	utils_memp_malloc, .-utils_memp_malloc
	.section	.text.utils_memp_free,"ax",@progbits
	.align	1
	.globl	utils_memp_free
	.type	utils_memp_free, @function
utils_memp_free:
.LVL31:
.LFB4:
.LM120:
	.cfi_startproc
.LM121:
.LM122:
.LM123:
.LM124:
.LM125:
.LM126:
	mv	a5,a0
.LM127:
	beq	a0,zero,.L23
.LM128:
.LM129:
	lw	a4,8(a0)
.LM130:
	li	a0,-1
.LVL32:
.LM131:
	beq	a4,zero,.L21
.LM132:
	lw	a4,20(a5)
.LM133:
	addi	a3,a1,-4
.LVL33:
.LM134:
.LM135:
	bgtu	a4,a3,.L21
.LM136:
	lw	a2,24(a5)
	bltu	a2,a3,.L21
.LM137:
.LVL34:
.LM138:
.LM139:
	lw	a2,16(a5)
.LM140:
	sub	a4,a3,a4
.LVL35:
.LM141:
	remu	a4,a4,a2
.LVL36:
.LM142:
	bne	a4,zero,.L21
.LM143:
.LVL37:
.LM144:
.LM145:
	lw	a2,-4(a1)
	li	a4,165
	bne	a2,a4,.L21
.LM146:
.LVL38:
.LM147:
.LM148:
	lw	a4,28(a5)
.LM149:
	sw	a4,-4(a1)
.LVL39:
.LM150:
.LM151:
	lw	a4,8(a5)
.LM152:
	sw	a3,28(a5)
.LM153:
.LM154:
	add	a4,a4,a0
	sw	a4,8(a5)
.LM155:
.LM156:
	li	a0,0
	ret
.LVL40:
.L23:
.LM157:
	li	a0,-1
.LVL41:
.L21:
.LM158:
	ret
	.cfi_endproc
.LFE4:
	.size	utils_memp_free, .-utils_memp_free
	.text
.Letext0:
	.section	.note.GNU-stack,"",@progbits
