	.file	"utils_hmac_sha1_fast.c"
	.option nopic
	.attribute arch, "rv32i2p1_m2p0_f2p2_c2p0_zicsr2p0_zmmul1p0_zca1p0_zcf1p0"
	.attribute unaligned_access, 0
	.attribute stack_align, 16
	.text
.Ltext0:
	.cfi_sections	.debug_frame
	.section	.text.utils_hmac_sha1_fast,"ax",@progbits
	.align	1
	.globl	utils_hmac_sha1_fast
	.type	utils_hmac_sha1_fast, @function
utils_hmac_sha1_fast:
.LVL0:
.LFB2:
.LM1:
	.cfi_startproc
.LM2:
.LM3:
.LM4:
.LM5:
.LM6:
.LM7:
.LM8:
	addi	sp,sp,-288
	.cfi_def_cfa_offset 288
.LVL1:
.LM9:
.LM10:
.LM11:
	sw	s1,276(sp)
	sw	s4,264(sp)
	sw	s5,260(sp)
	sw	s6,256(sp)
	sw	s7,252(sp)
	sw	s8,248(sp)
	sw	s9,244(sp)
	.cfi_offset 9, -12
	.cfi_offset 20, -24
	.cfi_offset 21, -28
	.cfi_offset 22, -32
	.cfi_offset 23, -36
	.cfi_offset 24, -40
	.cfi_offset 25, -44
	mv	s8,a5
	sw	ra,284(sp)
	sw	s0,280(sp)
	sw	s2,272(sp)
	sw	s3,268(sp)
	.cfi_offset 1, -4
	.cfi_offset 8, -8
	.cfi_offset 18, -16
	.cfi_offset 19, -20
.LM12:
	li	a5,64
.LVL2:
.LM13:
	mv	s5,a0
	mv	s6,a1
	mv	s7,a2
	mv	s4,a3
	mv	s1,a4
	mv	s9,a6
.LM14:
	ble	a4,a5,.L2
.LM15:
	li	a1,2
.LVL3:
.LM16:
	addi	a0,sp,92
.LVL4:
.LM17:
	call	bl_sha_init
.LVL5:
.LM18:
	mv	a2,s1
	mv	a1,s4
	addi	a0,sp,92
	call	bl_sha_update
.LVL6:
.LM19:
	mv	a1,s4
	addi	a0,sp,92
	call	bl_sha_finish
.LVL7:
.LM20:
.LM21:
	li	s1,20
.LVL8:
.L2:
.LM22:
	li	a2,64
	li	a1,0
	mv	a0,sp
	call	memset
.LVL9:
.LM23:
	mv	a2,s1
	mv	a1,s4
	mv	a0,sp
	call	memcpy
.LVL10:
.LM24:
.LM25:
.LM26:
	li	a4,909520896
	mv	s0,sp
	addi	s3,sp,64
.LVL11:
.LM27:
	mv	a5,sp
.LM28:
	addi	a4,a4,1590
.LVL12:
.L3:
.LM29:
.LM30:
	lw	a2,0(a5)
	lw	a3,4(a5)
	xor	a2,a2,a4
	xor	a3,a3,a4
	sw	a2,0(a5)
	sw	a3,4(a5)
.LM31:
.LM32:
	addi	a5,a5,8
	bne	a5,s3,.L3
.LM33:
	li	a1,2
	addi	a0,sp,92
	call	bl_sha_init
.LVL13:
.LM34:
	li	a2,64
	mv	a1,sp
	addi	a0,sp,92
	call	bl_sha_update
.LVL14:
.LM35:
.LM36:
	li	s2,0
.LVL15:
.L4:
.LM37:
	blt	s2,s7,.L5
.LM38:
	mv	a1,s3
	addi	a0,sp,92
	call	bl_sha_finish
.LVL16:
.LM39:
	li	a2,64
	li	a1,0
	mv	a0,sp
	call	memset
.LVL17:
.LM40:
	mv	a2,s1
	mv	a1,s4
	mv	a0,sp
	call	memcpy
.LVL18:
.LM41:
.LM42:
.LM43:
	li	a5,1549557760
	addi	a5,a5,-932
.LVL19:
.L6:
.LM44:
.LM45:
	lw	a3,0(s0)
	lw	a4,4(s0)
	xor	a3,a3,a5
	xor	a4,a4,a5
	sw	a3,0(s0)
	sw	a4,4(s0)
.LM46:
.LM47:
	addi	s0,s0,8
	bne	s0,s3,.L6
.LM48:
	addi	a0,sp,92
	li	a1,2
	call	bl_sha_init
.LVL20:
.LM49:
	mv	a1,sp
	li	a2,64
	addi	a0,sp,92
	call	bl_sha_update
.LVL21:
.LM50:
	li	a2,20
	mv	a1,s0
	addi	a0,sp,92
	call	bl_sha_update
.LVL22:
.LM51:
	mv	a1,s0
	addi	a0,sp,92
	call	bl_sha_finish
.LVL23:
.LM52:
	mv	a2,s9
	mv	a1,s0
	mv	a0,s8
	call	memcpy
.LVL24:
.LM53:
	lw	ra,284(sp)
	.cfi_remember_state
	.cfi_restore 1
	lw	s0,280(sp)
	.cfi_restore 8
	lw	s1,276(sp)
	.cfi_restore 9
.LVL25:
.LM54:
	lw	s2,272(sp)
	.cfi_restore 18
	lw	s3,268(sp)
	.cfi_restore 19
.LVL26:
.LM55:
	lw	s4,264(sp)
	.cfi_restore 20
.LVL27:
.LM56:
	lw	s5,260(sp)
	.cfi_restore 21
.LVL28:
.LM57:
	lw	s6,256(sp)
	.cfi_restore 22
.LVL29:
.LM58:
	lw	s7,252(sp)
	.cfi_restore 23
.LVL30:
.LM59:
	lw	s8,248(sp)
	.cfi_restore 24
.LVL31:
.LM60:
	lw	s9,244(sp)
	.cfi_restore 25
.LVL32:
.LM61:
	addi	sp,sp,288
	.cfi_def_cfa_offset 0
.LVL33:
.LM62:
	jr	ra
.LVL34:
.L5:
	.cfi_restore_state
.LM63:
	slli	a5,s2,2
.LM64:
	add	a4,s6,a5
.LM65:
	add	a5,s5,a5
	lw	a2,0(a4)
	lw	a1,0(a5)
	addi	a0,sp,92
.LM66:
	addi	s2,s2,1
.LVL35:
.LM67:
	call	bl_sha_update
.LVL36:
.LM68:
	j	.L4
	.cfi_endproc
.LFE2:
	.size	utils_hmac_sha1_fast, .-utils_hmac_sha1_fast
	.text
.Letext0:
	.section	.note.GNU-stack,"",@progbits
