	.file	"port.c"
	.option nopic
	.attribute arch, "rv32i2p1_m2p0_f2p2_c2p0_zicsr2p0_zmmul1p0_zca1p0_zcf1p0"
	.attribute unaligned_access, 0
	.attribute stack_align, 16
	.text
.Ltext0:
	.cfi_sections	.debug_frame
	.section	.text.vPortSetupTimerInterrupt,"ax",@progbits
	.align	1
	.weak	vPortSetupTimerInterrupt
	.type	vPortSetupTimerInterrupt, @function
vPortSetupTimerInterrupt:
.LFB2:
.LM1:
	.cfi_startproc
.LM2:
.LM3:
.LVL0:
.LM4:
.LM5:
.LM6:
.LM7:
	addi	sp,sp,-16
	.cfi_def_cfa_offset 16
.LM8:
 #APP
# 130 "/home/shivani/bl602_iot_sdk/components/freertos/portable/GCC/RISC-V/port.c" 1
	csrr a5, mhartid
# 0 "" 2
 #NO_APP
	sw	a5,12(sp)
.LM9:
.LM10:
	lw	a0,12(sp)
	li	a5,4198400
	addi	a5,a5,-2048
	add	a0,a0,a5
	slli	a0,a0,3
.LM11:
	lui	a5,%hi(pullMachineTimerCompareRegister)
	sw	a0,%lo(pullMachineTimerCompareRegister)(a5)
.LM12:
	li	a1,33603584
.LM13:
	li	a5,33603584
	addi	a5,a5,-4
.LM14:
	addi	a1,a1,-8
.L2:
.LM15:
.LM16:
.LM17:
	lw	a3,0(a5)
.LVL1:
.LM18:
.LM19:
	lw	a2,0(a1)
.LVL2:
.LM20:
.LM21:
	lw	a4,0(a5)
.LM22:
	bne	a4,a3,.L2
.LM23:
.LM24:
.LM25:
.LM26:
.LM27:
	li	a3,8192
.LVL3:
.LM28:
	addi	a3,a3,1808
.LM29:
	li	a5,20480
.LM30:
	add	a3,a2,a3
.LM31:
	addi	a5,a5,-480
.LM32:
	sltu	a1,a3,a2
.LM33:
	add	a5,a2,a5
.LM34:
	sw	a3,0(a0)
.LM35:
	add	a7,a1,a4
.LM36:
.LM37:
	sltu	a2,a5,a2
.LVL4:
.LM38:
	sw	a7,4(a0)
.LM39:
.LM40:
	add	a2,a2,a4
	lui	a4,%hi(ullNextTime)
	sw	a2,%lo(ullNextTime+4)(a4)
	sw	a5,%lo(ullNextTime)(a4)
.LM41:
	addi	sp,sp,16
	.cfi_def_cfa_offset 0
	jr	ra
	.cfi_endproc
.LFE2:
	.size	vPortSetupTimerInterrupt, .-vPortSetupTimerInterrupt
	.section	.text.xPortStartScheduler,"ax",@progbits
	.align	1
	.globl	xPortStartScheduler
	.type	xPortStartScheduler, @function
xPortStartScheduler:
.LFB3:
.LM42:
	.cfi_startproc
.LM43:
.LBB2:
.LM44:
.LBE2:
.LM45:
	addi	sp,sp,-32
	.cfi_def_cfa_offset 32
	sw	ra,28(sp)
	.cfi_offset 1, -4
.LBB3:
.LM46:
	sw	zero,12(sp)
.LM47:
 #APP
# 162 "/home/shivani/bl602_iot_sdk/components/freertos/portable/GCC/RISC-V/port.c" 1
	csrr a4, mtvec
# 0 "" 2
.LM48:
 #NO_APP
	lui	a5,%hi(__freertos_irq_stack_top)
	addi	a5,a5,%lo(__freertos_irq_stack_top)
.LM49:
	sw	a4,12(sp)
.LM50:
.LM51:
	andi	a5,a5,15
.LM52:
	bne	a5,zero,.L12
.L7:
.LBE3:
.LM53:
	call	vPortSetupTimerInterrupt
.LVL5:
.LM54:
	li	a5,4096
	addi	a5,a5,-1920
 #APP
# 187 "/home/shivani/bl602_iot_sdk/components/freertos/portable/GCC/RISC-V/port.c" 1
	csrs mie, a5
# 0 "" 2
.LM55:
.LM56:
 #NO_APP
	li	a5,41943040
	li	a4,1
	sb	a4,1031(a5)
.LM57:
	call	xPortStartFirstTask
.LVL6:
.LM58:
.LM59:
	lw	ra,28(sp)
	.cfi_remember_state
	.cfi_restore 1
	li	a0,0
	addi	sp,sp,32
	.cfi_def_cfa_offset 0
	jr	ra
.L12:
	.cfi_restore_state
.LBB4:
.LM60:
	call	vAssertCalled
.LVL7:
	j	.L7
.LBE4:
	.cfi_endproc
.LFE3:
	.size	xPortStartScheduler, .-xPortStartScheduler
	.section	.text.vPortEndScheduler,"ax",@progbits
	.align	1
	.globl	vPortEndScheduler
	.type	vPortEndScheduler, @function
vPortEndScheduler:
.LFB4:
.LM61:
	.cfi_startproc
.L14:
.LM62:
	j	.L14
	.cfi_endproc
.LFE4:
	.size	vPortEndScheduler, .-vPortEndScheduler
	.globl	pTrapNetCounter
	.section	.sdata.pTrapNetCounter,"aw"
	.align	2
	.type	pTrapNetCounter, @object
	.size	pTrapNetCounter, 4
pTrapNetCounter:
	.word	TrapNetCounter
	.globl	TrapNetCounter
	.section	.sbss.TrapNetCounter,"aw",@nobits
	.align	2
	.type	TrapNetCounter, @object
	.size	TrapNetCounter, 4
TrapNetCounter:
	.zero	4
	.globl	pullMachineTimerCompareRegister
	.section	.sbss.pullMachineTimerCompareRegister,"aw",@nobits
	.align	2
	.type	pullMachineTimerCompareRegister, @object
	.size	pullMachineTimerCompareRegister, 4
pullMachineTimerCompareRegister:
	.zero	4
	.globl	ullMachineTimerCompareRegisterBase
	.section	.srodata.ullMachineTimerCompareRegisterBase,"a"
	.align	2
	.type	ullMachineTimerCompareRegisterBase, @object
	.size	ullMachineTimerCompareRegisterBase, 4
ullMachineTimerCompareRegisterBase:
	.word	33570816
	.globl	uxTimerIncrementsForOneTick
	.section	.srodata.uxTimerIncrementsForOneTick,"a"
	.align	2
	.type	uxTimerIncrementsForOneTick, @object
	.size	uxTimerIncrementsForOneTick, 4
uxTimerIncrementsForOneTick:
	.word	10000
	.globl	pullNextTime
	.section	.sdata.pullNextTime,"aw"
	.align	2
	.type	pullNextTime, @object
	.size	pullNextTime, 4
pullNextTime:
	.word	ullNextTime
	.globl	ullNextTime
	.section	.sbss.ullNextTime,"aw",@nobits
	.align	3
	.type	ullNextTime, @object
	.size	ullNextTime, 8
ullNextTime:
	.zero	8
	.globl	xISRStackTop
	.section	.srodata.xISRStackTop,"a"
	.align	2
	.type	xISRStackTop, @object
	.size	xISRStackTop, 4
xISRStackTop:
	.word	__freertos_irq_stack_top
	.text
.Letext0:
	.section	.note.GNU-stack,"",@progbits
