	.file	"event_groups.c"
	.option nopic
	.attribute arch, "rv32i2p1_m2p0_f2p2_c2p0_zicsr2p0_zmmul1p0_zca1p0_zcf1p0"
	.attribute unaligned_access, 0
	.attribute stack_align, 16
	.text
.Ltext0:
	.cfi_sections	.debug_frame
	.section	.text.vEventGroupClearBitsCallback,"ax",@progbits
	.align	1
	.globl	vEventGroupClearBitsCallback
	.type	vEventGroupClearBitsCallback, @function
vEventGroupClearBitsCallback:
.LVL0:
.LFB11:
.LM1:
	.cfi_startproc
.LM2:
.LM3:
	addi	sp,sp,-16
	.cfi_def_cfa_offset 16
	sw	s0,8(sp)
	sw	s1,4(sp)
	sw	ra,12(sp)
	.cfi_offset 8, -8
	.cfi_offset 9, -12
	.cfi_offset 1, -4
.LM4:
	mv	s1,a0
.LVL1:
.LM5:
	mv	s0,a1
.LVL2:
.LBB9:
.LBI9:
.LM6:
.LBB10:
.LM7:
.LM8:
.LM9:
.LM10:
	beq	a0,zero,.L6
.LVL3:
.L2:
.LM11:
.LM12:
	li	a5,16777216
	bgeu	s0,a5,.L7
.L3:
.LM13:
	call	vTaskEnterCritical
.LVL4:
.LM14:
.LM15:
.LM16:
.LM17:
	lw	a5,0(s1)
.LM18:
	not	s0,s0
.LVL5:
.LM19:
	and	a5,a5,s0
	sw	a5,0(s1)
.LVL6:
.LM20:
.LBE10:
.LBE9:
.LM21:
	lw	s0,8(sp)
	.cfi_remember_state
	.cfi_restore 8
.LVL7:
.LM22:
	lw	ra,12(sp)
	.cfi_restore 1
	lw	s1,4(sp)
	.cfi_restore 9
.LVL8:
.LM23:
	addi	sp,sp,16
	.cfi_def_cfa_offset 0
.LBB12:
.LBB11:
.LM24:
	tail	vTaskExitCritical
.LVL9:
.L7:
	.cfi_restore_state
.LM25:
	call	vAssertCalled
.LVL10:
	j	.L3
.L6:
.LM26:
	call	vAssertCalled
.LVL11:
	j	.L2
.LBE11:
.LBE12:
	.cfi_endproc
.LFE11:
	.size	vEventGroupClearBitsCallback, .-vEventGroupClearBitsCallback
	.section	.text.xEventGroupCreateStatic,"ax",@progbits
	.align	1
	.globl	xEventGroupCreateStatic
	.type	xEventGroupCreateStatic, @function
xEventGroupCreateStatic:
.LVL12:
.LFB1:
.LM27:
	.cfi_startproc
.LM28:
.LM29:
.LM30:
	addi	sp,sp,-32
	.cfi_def_cfa_offset 32
	sw	s0,24(sp)
	sw	ra,28(sp)
	.cfi_offset 8, -8
	.cfi_offset 1, -4
.LM31:
	mv	s0,a0
.LM32:
	beq	a0,zero,.L9
.LBB13:
.LM33:
.LM34:
	li	a5,32
	sw	a5,12(sp)
.LM35:
.LM36:
	lw	a4,12(sp)
.LM37:
	bne	a4,a5,.L13
.LVL13:
.L10:
.LM38:
.LBE13:
.LM39:
.LM40:
	sw	zero,0(s0)
.LM41:
	addi	a0,s0,4
	call	vListInitialise
.LVL14:
.LM42:
.LM43:
	li	a5,1
	sb	a5,28(s0)
.LM44:
.L11:
.LM45:
.LM46:
.LM47:
	lw	ra,28(sp)
	.cfi_remember_state
	.cfi_restore 1
	mv	a0,s0
	lw	s0,24(sp)
	.cfi_restore 8
.LVL15:
.LM48:
	addi	sp,sp,32
	.cfi_def_cfa_offset 0
	jr	ra
.LVL16:
.L13:
	.cfi_restore_state
.LBB14:
.LM49:
	call	vAssertCalled
.LVL17:
.LBE14:
.LM50:
.LM51:
	j	.L10
.LVL18:
.L9:
.LM52:
	call	vAssertCalled
.LVL19:
.LBB15:
.LM53:
.LM54:
	li	a5,32
	sw	a5,12(sp)
.LM55:
.LM56:
	lw	a4,12(sp)
.LM57:
	beq	a4,a5,.L11
.LM58:
	call	vAssertCalled
.LVL20:
.LBE15:
.LM59:
.LM60:
	j	.L11
	.cfi_endproc
.LFE1:
	.size	xEventGroupCreateStatic, .-xEventGroupCreateStatic
	.section	.text.xEventGroupCreate,"ax",@progbits
	.align	1
	.globl	xEventGroupCreate
	.type	xEventGroupCreate, @function
xEventGroupCreate:
.LFB2:
.LM61:
	.cfi_startproc
.LM62:
.LM63:
.LM64:
	addi	sp,sp,-32
	.cfi_def_cfa_offset 32
.LM65:
	li	a0,32
.LM66:
	sw	ra,28(sp)
	.cfi_offset 1, -4
.LM67:
	call	pvPortMalloc
.LVL21:
	mv	a5,a0
.LVL22:
.LM68:
.LM69:
	beq	a0,zero,.L14
.LM70:
.LM71:
	sw	zero,0(a0)
.LM72:
	addi	a0,a0,4
.LVL23:
.LM73:
	sw	a5,12(sp)
	call	vListInitialise
.LVL24:
.LM74:
.LM75:
	lw	a5,12(sp)
	sb	zero,28(a5)
.LM76:
.LM77:
.LM78:
.LVL25:
.L14:
.LM79:
	lw	ra,28(sp)
	.cfi_restore 1
	mv	a0,a5
	addi	sp,sp,32
	.cfi_def_cfa_offset 0
	jr	ra
	.cfi_endproc
.LFE2:
	.size	xEventGroupCreate, .-xEventGroupCreate
	.section	.text.xEventGroupWaitBits,"ax",@progbits
	.align	1
	.globl	xEventGroupWaitBits
	.type	xEventGroupWaitBits, @function
xEventGroupWaitBits:
.LVL26:
.LFB4:
.LM80:
	.cfi_startproc
.LM81:
	addi	sp,sp,-48
	.cfi_def_cfa_offset 48
	sw	s0,40(sp)
	sw	s1,36(sp)
	sw	s2,32(sp)
	sw	s3,28(sp)
	sw	s4,24(sp)
	sw	ra,44(sp)
	.cfi_offset 8, -8
	.cfi_offset 9, -12
	.cfi_offset 18, -16
	.cfi_offset 19, -20
	.cfi_offset 20, -24
	.cfi_offset 1, -4
.LM82:
	mv	s1,a0
	mv	s0,a1
	mv	s4,a2
	mv	s3,a3
.LM83:
.LVL27:
.LM84:
.LM85:
.LM86:
.LM87:
.LM88:
	mv	s2,a4
.LM89:
	beq	a0,zero,.L58
.LVL28:
.L21:
.LM90:
.LM91:
	li	a5,16777216
	addi	a5,a5,-2
	addi	a4,s0,-1
	bleu	a4,a5,.L22
.LM92:
	call	vAssertCalled
.LVL29:
.LM93:
.L22:
.LM94:
.LM95:
	call	xTaskGetSchedulerState
.LVL30:
.LM96:
	bne	a0,zero,.L23
.LM97:
	bne	s2,zero,.L24
.LM98:
	call	vTaskSuspendAll
.LVL31:
.LBB16:
.LM99:
.LM100:
	lw	a5,0(s1)
.LVL32:
.LM101:
.LBB17:
.LBI17:
.LM102:
.LBB18:
.LM103:
.LM104:
.LM105:
	and	a4,s0,a5
.LM106:
	bne	s3,zero,.L59
.LM107:
.LM108:
	beq	a4,zero,.L54
.L26:
.LM109:
.LM110:
.LVL33:
.LM111:
.LBE18:
.LBE17:
.LM112:
.LM113:
.LM114:
.LM115:
.LM116:
	beq	s4,zero,.L54
.LM117:
.LM118:
	not	s0,s0
.LVL34:
.LM119:
	and	s0,s0,a5
.LVL35:
.LM120:
	sw	s0,0(s1)
.LVL36:
.LM121:
.LBE16:
.LM122:
.LBB29:
.LM123:
	sw	a5,12(sp)
.LVL37:
.LM124:
.LBE29:
.LM125:
	call	xTaskResumeAll
.LVL38:
.LM126:
	lw	a5,12(sp)
.LVL39:
.L20:
.LM127:
	lw	ra,44(sp)
	.cfi_remember_state
	.cfi_restore 1
	lw	s0,40(sp)
	.cfi_restore 8
	lw	s1,36(sp)
	.cfi_restore 9
.LVL40:
.LM128:
	lw	s2,32(sp)
	.cfi_restore 18
	lw	s3,28(sp)
	.cfi_restore 19
.LVL41:
.LM129:
	lw	s4,24(sp)
	.cfi_restore 20
.LVL42:
.LM130:
	mv	a0,a5
	addi	sp,sp,48
	.cfi_def_cfa_offset 0
	jr	ra
.LVL43:
.L23:
	.cfi_restore_state
.LM131:
	call	vTaskSuspendAll
.LVL44:
.LBB30:
.LM132:
.LM133:
	lw	a5,0(s1)
.LVL45:
.LM134:
.LBB24:
.LM135:
.LBB19:
.LM136:
.LM137:
.LM138:
	and	a4,s0,a5
.LM139:
	bne	s3,zero,.L32
.LM140:
.LM141:
	bne	a4,zero,.L26
.LVL46:
.LM142:
.LBE19:
.LBE24:
.LM143:
.LM144:
	beq	s2,zero,.L54
.L30:
.LM145:
.LM146:
	snez	a1,s4
	slli	a1,a1,24
	j	.L38
.LVL47:
.L32:
.LBB25:
.LBB20:
.LM147:
.LM148:
	beq	s0,a4,.L26
.LVL48:
.LM149:
.LBE20:
.LBE25:
.LM150:
.LM151:
	beq	s2,zero,.L54
.L31:
.LM152:
.LVL49:
.LM153:
.LM154:
	snez	a1,s4
.LM155:
	ori	a1,a1,4
	slli	a1,a1,24
.LVL50:
.L38:
.LM156:
.LM157:
	mv	a2,s2
	or	a1,a1,s0
.LVL51:
.LM158:
	addi	a0,s1,4
	call	vTaskPlaceOnUnorderedEventList
.LVL52:
.LM159:
.LM160:
.LBE30:
.LM161:
.LM162:
	call	xTaskResumeAll
.LVL53:
.LM163:
.LM164:
.LM165:
	bne	a0,zero,.L40
.LM166:
 #APP
# 403 "/home/shivani/bl602_iot_sdk/components/freertos/event_groups.c" 1
	ecall
# 0 "" 2
.LM167:
 #NO_APP
.L40:
.LM168:
.LM169:
.LM170:
	call	uxTaskResetEventItemValue
.LVL54:
.LM171:
.LM172:
	slli	a5,a0,6
	bge	a5,zero,.L60
.LVL55:
.L41:
.LM173:
.LM174:
.LM175:
	slli	a0,a0,8
.LVL56:
.LM176:
	srli	a5,a0,8
.LVL57:
.LM177:
.LM178:
.LM179:
.LM180:
	j	.L20
.LVL58:
.L59:
.LBB31:
.LBB26:
.LBB21:
.LM181:
.LM182:
	beq	s0,a4,.L26
.LVL59:
.L54:
.LM183:
	sw	a5,12(sp)
.LBE21:
.LBE26:
.LM184:
.LVL60:
.LM185:
.LBE31:
.LM186:
.LM187:
	call	xTaskResumeAll
.LVL61:
.LM188:
	lw	a5,12(sp)
	j	.L20
.LVL62:
.L24:
.LM189:
	call	vAssertCalled
.LVL63:
.LM190:
	call	vTaskSuspendAll
.LVL64:
.LBB32:
.LM191:
.LM192:
	lw	a5,0(s1)
.LVL65:
.LM193:
.LBB27:
.LM194:
.LBB22:
.LM195:
.LM196:
.LM197:
	and	a4,s0,a5
.LM198:
	bne	s3,zero,.L29
.LM199:
.LM200:
	bne	a4,zero,.L26
	j	.L30
.LVL66:
.L58:
.LM201:
.LBE22:
.LBE27:
.LBE32:
.LM202:
	call	vAssertCalled
.LVL67:
.LM203:
	j	.L21
.LVL68:
.L60:
.LM204:
	call	vTaskEnterCritical
.LVL69:
.LM205:
.LM206:
	lw	a0,0(s1)
.LVL70:
.LM207:
.LBB33:
.LBI33:
.LM208:
.LBB34:
.LM209:
.LM210:
.LM211:
	and	a5,s0,a0
.LM212:
	bne	s3,zero,.L42
.LM213:
.LM214:
	beq	a5,zero,.L44
.L43:
.LM215:
.LM216:
.LVL71:
.LM217:
.LBE34:
.LBE33:
.LM218:
.LM219:
	beq	s4,zero,.L44
.LM220:
.LM221:
	not	s0,s0
.LVL72:
.LM222:
	and	s0,s0,a0
.LVL73:
.LM223:
	sw	s0,0(s1)
.L44:
.LM224:
	sw	a0,12(sp)
.LM225:
.LM226:
.LVL74:
.LM227:
	call	vTaskExitCritical
.LVL75:
.LM228:
	lw	a0,12(sp)
	j	.L41
.LVL76:
.L42:
.LBB36:
.LBB35:
.LM229:
.LM230:
	bne	s0,a5,.L44
	j	.L43
.LVL77:
.L29:
.LM231:
.LBE35:
.LBE36:
.LBB37:
.LBB28:
.LBB23:
.LM232:
.LM233:
	bne	s0,a4,.L31
	j	.L26
.LBE23:
.LBE28:
.LBE37:
	.cfi_endproc
.LFE4:
	.size	xEventGroupWaitBits, .-xEventGroupWaitBits
	.section	.text.xEventGroupClearBits,"ax",@progbits
	.align	1
	.globl	xEventGroupClearBits
	.type	xEventGroupClearBits, @function
xEventGroupClearBits:
.LVL78:
.LFB5:
.LM234:
	.cfi_startproc
.LM235:
.LM236:
	addi	sp,sp,-32
	.cfi_def_cfa_offset 32
	sw	s0,24(sp)
	sw	s1,20(sp)
	sw	ra,28(sp)
	.cfi_offset 8, -8
	.cfi_offset 9, -12
	.cfi_offset 1, -4
.LM237:
	mv	s1,a0
.LVL79:
.LM238:
.LM239:
.LM240:
	mv	s0,a1
.LM241:
	beq	a0,zero,.L65
.LVL80:
.L62:
.LM242:
.LM243:
	li	a5,16777216
	bgeu	s0,a5,.L66
.L63:
.LM244:
	call	vTaskEnterCritical
.LVL81:
.LM245:
.LM246:
.LM247:
	lw	a0,0(s1)
.LVL82:
.LM248:
.LM249:
	not	s0,s0
.LVL83:
.LM250:
	and	s0,s0,a0
.LVL84:
.LM251:
	sw	s0,0(s1)
.LM252:
.LM253:
	sw	a0,12(sp)
.LM254:
	call	vTaskExitCritical
.LVL85:
.LM255:
.LM256:
	lw	ra,28(sp)
	.cfi_remember_state
	.cfi_restore 1
	lw	s0,24(sp)
	.cfi_restore 8
	lw	a0,12(sp)
	lw	s1,20(sp)
	.cfi_restore 9
.LVL86:
.LM257:
	addi	sp,sp,32
	.cfi_def_cfa_offset 0
.LVL87:
.LM258:
	jr	ra
.LVL88:
.L66:
	.cfi_restore_state
.LM259:
	call	vAssertCalled
.LVL89:
	j	.L63
.L65:
.LM260:
	call	vAssertCalled
.LVL90:
	j	.L62
	.cfi_endproc
.LFE5:
	.size	xEventGroupClearBits, .-xEventGroupClearBits
	.section	.text.xEventGroupClearBitsFromISR,"ax",@progbits
	.align	1
	.globl	xEventGroupClearBitsFromISR
	.type	xEventGroupClearBitsFromISR, @function
xEventGroupClearBitsFromISR:
.LVL91:
.LFB6:
.LM261:
	.cfi_startproc
.LM262:
.LM263:
.LM264:
.LM265:
	lui	a5,%hi(vEventGroupClearBitsCallback)
.LM266:
	mv	a2,a1
.LM267:
	li	a3,0
	mv	a1,a0
.LVL92:
.LM268:
	addi	a0,a5,%lo(vEventGroupClearBitsCallback)
.LVL93:
.LM269:
	tail	xTimerPendFunctionCallFromISR
.LVL94:
.LM270:
	.cfi_endproc
.LFE6:
	.size	xEventGroupClearBitsFromISR, .-xEventGroupClearBitsFromISR
	.section	.text.xEventGroupGetBitsFromISR,"ax",@progbits
	.align	1
	.globl	xEventGroupGetBitsFromISR
	.type	xEventGroupGetBitsFromISR, @function
xEventGroupGetBitsFromISR:
.LVL95:
.LFB7:
.LM271:
	.cfi_startproc
.LM272:
.LM273:
.LM274:
.LM275:
.LM276:
.LM277:
.LM278:
.LM279:
	lw	a0,0(a0)
.LVL96:
.LM280:
	ret
	.cfi_endproc
.LFE7:
	.size	xEventGroupGetBitsFromISR, .-xEventGroupGetBitsFromISR
	.section	.text.xEventGroupSetBits,"ax",@progbits
	.align	1
	.globl	xEventGroupSetBits
	.type	xEventGroupSetBits, @function
xEventGroupSetBits:
.LVL97:
.LFB8:
.LM281:
	.cfi_startproc
.LM282:
.LM283:
.LM284:
.LM285:
.LM286:
.LM287:
	addi	sp,sp,-32
	.cfi_def_cfa_offset 32
	sw	s0,24(sp)
	sw	s2,16(sp)
	sw	ra,28(sp)
	sw	s1,20(sp)
	sw	s3,12(sp)
	.cfi_offset 8, -8
	.cfi_offset 18, -16
	.cfi_offset 1, -4
	.cfi_offset 9, -12
	.cfi_offset 19, -20
	mv	s2,a0
.LVL98:
.LM288:
.LM289:
.LM290:
	mv	s0,a1
.LM291:
	beq	a0,zero,.L85
.LVL99:
.L70:
.LM292:
.LM293:
	li	a5,16777216
	bgeu	s0,a5,.L86
.L71:
.LM294:
.LVL100:
.LM295:
.LM296:
	call	vTaskSuspendAll
.LVL101:
.LM297:
	lw	a2,0(s2)
.LM298:
	lw	s1,16(s2)
.LM299:
	addi	s3,s2,12
.LVL102:
.LM300:
.LM301:
.LM302:
.LM303:
.LM304:
	or	a5,s0,a2
	sw	a5,0(s2)
.LM305:
.LVL103:
.LM306:
.LM307:
	mv	a2,a5
.LM308:
	beq	s3,s1,.L72
.LM309:
	li	s0,16777216
.LVL104:
.LM310:
	sw	s4,8(sp)
	sw	s5,4(sp)
	.cfi_offset 20, -24
	.cfi_offset 21, -28
.LM311:
	addi	s0,s0,-1
.LM312:
	li	s5,0
.LM313:
	li	s4,33554432
	j	.L77
.LVL105:
.L88:
.LM314:
	beq	a5,zero,.L75
.L74:
.LM315:
.LM316:
	slli	a5,a4,7
	bge	a5,zero,.L76
.LM317:
	or	s5,s5,a3
.LVL106:
.L76:
.LM318:
.LM319:
	call	vTaskRemoveFromUnorderedEventList
.LVL107:
.LM320:
	lw	a2,0(s2)
.L75:
.LVL108:
.LM321:
.LM322:
	mv	a5,a2
.LM323:
	beq	s3,s1,.L87
.LVL109:
.L77:
.LM324:
.LM325:
.LM326:
.LM327:
.LM328:
	lw	a4,0(s1)
	mv	a0,s1
.LM329:
	or	a1,a5,s4
.LM330:
	and	a3,a4,s0
.LM331:
	slli	a6,a4,5
.LM332:
	lw	s1,4(s1)
.LVL110:
.LM333:
.LM334:
.LM335:
.LM336:
.LM337:
.LM338:
	and	a5,a3,a5
.LM339:
	bge	a6,zero,.L88
.LM340:
	beq	a3,a5,.L74
.LVL111:
.LM341:
.LM342:
	mv	a5,a2
.LM343:
	bne	s3,s1,.L77
.LVL112:
.L87:
.LM344:
	not	s5,s5
.LVL113:
.LM345:
	and	a5,a2,s5
	lw	s4,8(sp)
	.cfi_restore 20
	lw	s5,4(sp)
	.cfi_restore 21
.LVL114:
.L72:
.LM346:
.LM347:
	sw	a5,0(s2)
.LM348:
.LM349:
	call	xTaskResumeAll
.LVL115:
.LM350:
.LM351:
	lw	ra,28(sp)
	.cfi_remember_state
	.cfi_restore 1
	lw	s0,24(sp)
	.cfi_restore 8
	lw	a0,0(s2)
	lw	s1,20(sp)
	.cfi_restore 9
.LVL116:
.LM352:
	lw	s2,16(sp)
	.cfi_restore 18
.LVL117:
.LM353:
	lw	s3,12(sp)
	.cfi_restore 19
.LVL118:
.LM354:
	addi	sp,sp,32
	.cfi_def_cfa_offset 0
	jr	ra
.LVL119:
.L86:
	.cfi_restore_state
.LM355:
	call	vAssertCalled
.LVL120:
	j	.L71
.LVL121:
.L85:
.LM356:
	call	vAssertCalled
.LVL122:
.LM357:
	j	.L70
	.cfi_endproc
.LFE8:
	.size	xEventGroupSetBits, .-xEventGroupSetBits
	.section	.text.xEventGroupSync,"ax",@progbits
	.align	1
	.globl	xEventGroupSync
	.type	xEventGroupSync, @function
xEventGroupSync:
.LVL123:
.LFB3:
.LM358:
	.cfi_startproc
.LM359:
	addi	sp,sp,-48
	.cfi_def_cfa_offset 48
	sw	s0,40(sp)
	sw	s1,36(sp)
	sw	s2,32(sp)
	sw	s3,28(sp)
	sw	ra,44(sp)
	.cfi_offset 8, -8
	.cfi_offset 9, -12
	.cfi_offset 18, -16
	.cfi_offset 19, -20
	.cfi_offset 1, -4
.LM360:
	li	a5,16777216
.LM361:
	mv	s1,a2
.LM362:
.LM363:
.LM364:
	mv	s2,a0
.LVL124:
.LM365:
.LM366:
.LM367:
.LM368:
	mv	s0,a1
	mv	s3,a3
.LM369:
	bgeu	a2,a5,.L109
.LM370:
.LM371:
	beq	a2,zero,.L110
.LM372:
.LM373:
	call	xTaskGetSchedulerState
.LVL125:
.LM374:
	bne	a0,zero,.L96
.L114:
	bne	s3,zero,.L111
.L96:
.LM375:
	call	vTaskSuspendAll
.LVL126:
.LM376:
.LM377:
	lw	a5,0(s2)
.LM378:
	mv	a1,s0
	mv	a0,s2
.LM379:
	sw	a5,12(sp)
.LVL127:
.LM380:
.LM381:
	call	xEventGroupSetBits
.LVL128:
.LM382:
.LM383:
	lw	a5,12(sp)
	or	s0,a5,s0
.LVL129:
.LM384:
	and	a5,s0,s1
.LM385:
	beq	a5,s1,.L94
.LM386:
.LM387:
	bne	s3,zero,.L95
.LM388:
.LM389:
	lw	s0,0(s2)
.LM390:
.LVL130:
.LM391:
.LM392:
	call	xTaskResumeAll
.LVL131:
.LM393:
.LM394:
	lw	ra,44(sp)
	.cfi_remember_state
	.cfi_restore 1
	mv	a0,s0
	lw	s0,40(sp)
	.cfi_restore 8
.LVL132:
.LM395:
	lw	s1,36(sp)
	.cfi_restore 9
.LVL133:
.LM396:
	lw	s2,32(sp)
	.cfi_restore 18
.LVL134:
.LM397:
	lw	s3,28(sp)
	.cfi_restore 19
	addi	sp,sp,48
	.cfi_def_cfa_offset 0
.LVL135:
.LM398:
	jr	ra
.LVL136:
.L111:
	.cfi_restore_state
.LM399:
	call	vAssertCalled
.LVL137:
.LM400:
	call	vTaskSuspendAll
.LVL138:
.LM401:
.LM402:
	lw	a5,0(s2)
.LM403:
	mv	a1,s0
	mv	a0,s2
.LM404:
	sw	a5,12(sp)
.LVL139:
.LM405:
.LM406:
	call	xEventGroupSetBits
.LVL140:
.LM407:
.LM408:
	lw	a5,12(sp)
	or	s0,s0,a5
.LVL141:
.LM409:
	and	a5,s1,s0
.LM410:
	beq	s1,a5,.L94
.L95:
.LM411:
.LM412:
.LM413:
	li	a1,83886080
.LM414:
	mv	a2,s3
	or	a1,s1,a1
	addi	a0,s2,4
	call	vTaskPlaceOnUnorderedEventList
.LVL142:
.LM415:
.LM416:
.LM417:
	call	xTaskResumeAll
.LVL143:
.LM418:
.LM419:
.LM420:
	bne	a0,zero,.L99
.LM421:
 #APP
# 255 "/home/shivani/bl602_iot_sdk/components/freertos/event_groups.c" 1
	ecall
# 0 "" 2
.LM422:
 #NO_APP
.L99:
.LM423:
.LM424:
.LM425:
	call	uxTaskResetEventItemValue
.LVL144:
.LM426:
	slli	a5,a0,6
.LM427:
	mv	s0,a0
.LVL145:
.LM428:
.LM429:
	bge	a5,zero,.L112
.LVL146:
.L102:
.LM430:
.LM431:
.LM432:
	slli	a1,s0,8
	srli	s0,a1,8
.LVL147:
.LM433:
.LM434:
.LM435:
.LM436:
	lw	ra,44(sp)
	.cfi_remember_state
	.cfi_restore 1
	mv	a0,s0
	lw	s0,40(sp)
	.cfi_restore 8
.LVL148:
.LM437:
	lw	s1,36(sp)
	.cfi_restore 9
	lw	s2,32(sp)
	.cfi_restore 18
.LVL149:
.LM438:
	lw	s3,28(sp)
	.cfi_restore 19
.LVL150:
.LM439:
	addi	sp,sp,48
	.cfi_def_cfa_offset 0
.LVL151:
.LM440:
	jr	ra
.LVL152:
.L110:
	.cfi_restore_state
.LM441:
	call	vAssertCalled
.LVL153:
.LM442:
.LM443:
	call	xTaskGetSchedulerState
.LVL154:
.LM444:
	bne	a0,zero,.L108
	bne	s3,zero,.L113
.L108:
.LM445:
	call	vTaskSuspendAll
.LVL155:
.LM446:
.LM447:
	lw	s3,0(s2)
.LVL156:
.LM448:
.LM449:
	mv	a1,s0
	mv	a0,s2
	call	xEventGroupSetBits
.LVL157:
.LM450:
.LM451:
	or	s0,s0,s3
.LVL158:
.L94:
.LM452:
.LM453:
.LM454:
	lw	a5,0(s2)
.LM455:
	not	s1,s1
.LVL159:
.LM456:
	and	s1,a5,s1
.LVL160:
.LM457:
	sw	s1,0(s2)
.LM458:
.LVL161:
.LM459:
.LM460:
	call	xTaskResumeAll
.LVL162:
.LM461:
.LM462:
	lw	ra,44(sp)
	.cfi_remember_state
	.cfi_restore 1
	mv	a0,s0
	lw	s0,40(sp)
	.cfi_restore 8
.LVL163:
.LM463:
	lw	s1,36(sp)
	.cfi_restore 9
	lw	s2,32(sp)
	.cfi_restore 18
.LVL164:
.LM464:
	lw	s3,28(sp)
	.cfi_restore 19
	addi	sp,sp,48
	.cfi_def_cfa_offset 0
	jr	ra
.LVL165:
.L109:
	.cfi_restore_state
.LM465:
	call	vAssertCalled
.LVL166:
.LM466:
.LM467:
.LM468:
	call	xTaskGetSchedulerState
.LVL167:
.LM469:
	beq	a0,zero,.L114
	j	.L96
.LVL168:
.L112:
.LM470:
	call	vTaskEnterCritical
.LVL169:
.LM471:
.LM472:
	lw	s0,0(s2)
.LVL170:
.LM473:
.LM474:
	and	a5,s1,s0
.LM475:
	bne	a5,s1,.L103
.LM476:
.LM477:
	not	s1,s1
.LVL171:
.LM478:
	and	s1,s1,s0
.LVL172:
.LM479:
	sw	s1,0(s2)
.L103:
.LM480:
.LM481:
	call	vTaskExitCritical
.LVL173:
.LM482:
.LM483:
	j	.L102
.LVL174:
.L113:
.LM484:
	call	vAssertCalled
.LVL175:
	j	.L108
	.cfi_endproc
.LFE3:
	.size	xEventGroupSync, .-xEventGroupSync
	.section	.text.vEventGroupSetBitsCallback,"ax",@progbits
	.align	1
	.globl	vEventGroupSetBitsCallback
	.type	vEventGroupSetBitsCallback, @function
vEventGroupSetBitsCallback:
.LVL176:
.LFB10:
.LM485:
	.cfi_startproc
.LM486:
.LM487:
	tail	xEventGroupSetBits
.LVL177:
.LM488:
	.cfi_endproc
.LFE10:
	.size	vEventGroupSetBitsCallback, .-vEventGroupSetBitsCallback
	.section	.text.vEventGroupDelete,"ax",@progbits
	.align	1
	.globl	vEventGroupDelete
	.type	vEventGroupDelete, @function
vEventGroupDelete:
.LVL178:
.LFB9:
.LM489:
	.cfi_startproc
.LM490:
.LM491:
	addi	sp,sp,-16
	.cfi_def_cfa_offset 16
	sw	s0,8(sp)
	sw	ra,12(sp)
	.cfi_offset 8, -8
	.cfi_offset 1, -4
	mv	s0,a0
.LVL179:
.LM492:
.LM493:
	call	vTaskSuspendAll
.LVL180:
.LM494:
.LM495:
.LM496:
.LM497:
	lw	a5,4(s0)
.LM498:
	beq	a5,zero,.L121
	sw	s1,4(sp)
	.cfi_offset 9, -12
	addi	s1,s0,12
	j	.L117
.L120:
.LM499:
	li	a1,33554432
	call	vTaskRemoveFromUnorderedEventList
.LVL181:
.LM500:
.LM501:
	lw	a5,4(s0)
.LM502:
	beq	a5,zero,.L128
.L117:
.LM503:
.LM504:
	lw	a0,16(s0)
.LM505:
	bne	a0,s1,.L120
.LM506:
	call	vAssertCalled
.LVL182:
.LM507:
	lw	a0,16(s0)
.LM508:
	li	a1,33554432
	call	vTaskRemoveFromUnorderedEventList
.LVL183:
.LM509:
.LM510:
	lw	a5,4(s0)
.LM511:
	bne	a5,zero,.L117
.L128:
	lw	s1,4(sp)
	.cfi_restore 9
.L121:
.LM512:
.LM513:
	call	xTaskResumeAll
.LVL184:
.LM514:
.LM515:
	lbu	a5,28(s0)
	beq	a5,zero,.L129
.LM516:
	lw	ra,12(sp)
	.cfi_remember_state
	.cfi_restore 1
	lw	s0,8(sp)
	.cfi_restore 8
.LVL185:
.LM517:
	addi	sp,sp,16
	.cfi_def_cfa_offset 0
	jr	ra
.LVL186:
.L129:
	.cfi_restore_state
.LM518:
	mv	a0,s0
.LM519:
	lw	s0,8(sp)
	.cfi_restore 8
.LVL187:
.LM520:
	lw	ra,12(sp)
	.cfi_restore 1
	addi	sp,sp,16
	.cfi_def_cfa_offset 0
.LM521:
	tail	vPortFree
.LVL188:
.LM522:
	.cfi_endproc
.LFE9:
	.size	vEventGroupDelete, .-vEventGroupDelete
	.section	.text.xEventGroupSetBitsFromISR,"ax",@progbits
	.align	1
	.globl	xEventGroupSetBitsFromISR
	.type	xEventGroupSetBitsFromISR, @function
xEventGroupSetBitsFromISR:
.LVL189:
.LFB13:
.LM523:
	.cfi_startproc
.LM524:
.LM525:
.LM526:
.LM527:
	lui	a5,%hi(vEventGroupSetBitsCallback)
.LM528:
	mv	a3,a2
.LM529:
	mv	a2,a1
.LVL190:
.LM530:
	mv	a1,a0
.LVL191:
.LM531:
	addi	a0,a5,%lo(vEventGroupSetBitsCallback)
.LVL192:
.LM532:
	tail	xTimerPendFunctionCallFromISR
.LVL193:
.LM533:
	.cfi_endproc
.LFE13:
	.size	xEventGroupSetBitsFromISR, .-xEventGroupSetBitsFromISR
	.section	.text.uxEventGroupGetNumber,"ax",@progbits
	.align	1
	.globl	uxEventGroupGetNumber
	.type	uxEventGroupGetNumber, @function
uxEventGroupGetNumber:
.LVL194:
.LFB14:
.LM534:
	.cfi_startproc
.LM535:
.LM536:
.LM537:
.LM538:
	beq	a0,zero,.L131
.LM539:
.LM540:
	lw	a0,24(a0)
.LVL195:
.L131:
.LM541:
	ret
	.cfi_endproc
.LFE14:
	.size	uxEventGroupGetNumber, .-uxEventGroupGetNumber
	.section	.text.vEventGroupSetNumber,"ax",@progbits
	.align	1
	.globl	vEventGroupSetNumber
	.type	vEventGroupSetNumber, @function
vEventGroupSetNumber:
.LVL196:
.LFB15:
.LM542:
	.cfi_startproc
.LM543:
.LM544:
	sw	a1,24(a0)
.LM545:
	ret
	.cfi_endproc
.LFE15:
	.size	vEventGroupSetNumber, .-vEventGroupSetNumber
	.text
.Letext0:
	.section	.note.GNU-stack,"",@progbits
