	.file	"queue.c"
	.option nopic
	.attribute arch, "rv32i2p1_m2p0_f2p2_c2p0_zicsr2p0_zmmul1p0_zca1p0_zcf1p0"
	.attribute unaligned_access, 0
	.attribute stack_align, 16
	.text
.Ltext0:
	.cfi_sections	.debug_frame
	.section	.text.prvCopyDataToQueue,"ax",@progbits
	.align	1
	.type	prvCopyDataToQueue, @function
prvCopyDataToQueue:
.LVL0:
.LFB29:
.LM1:
	.cfi_startproc
.LM2:
.LM3:
.LM4:
.LM5:
	addi	sp,sp,-32
	.cfi_def_cfa_offset 32
	sw	ra,28(sp)
	.cfi_offset 1, -4
.LM6:
	lw	a3,64(a0)
.LM7:
	lw	a4,56(a0)
.LVL1:
.LM8:
.LM9:
	mv	a5,a0
.LM10:
	bne	a3,zero,.L2
.LM11:
.LM12:
	lw	a3,0(a0)
	beq	a3,zero,.L3
.LVL2:
.L6:
.LM13:
	li	a0,0
.LVL3:
.L4:
.LM14:
.LM15:
.LM16:
	addi	a4,a4,1
.LVL4:
.LM17:
	sw	a4,56(a5)
.LM18:
.LM19:
	lw	ra,28(sp)
	.cfi_remember_state
	.cfi_restore 1
	addi	sp,sp,32
	.cfi_def_cfa_offset 0
	jr	ra
.LVL5:
.L2:
	.cfi_restore_state
.LM20:
.LM21:
	bne	a2,zero,.L5
.LM22:
.LM23:
	lw	a0,4(a0)
.LVL6:
.LM24:
	mv	a2,a3
.LVL7:
.LM25:
	sw	a4,8(sp)
	sw	a5,4(sp)
	call	memcpy
.LVL8:
.LM26:
.LM27:
	lw	a5,4(sp)
.LM28:
	lw	a4,8(sp)
.LM29:
	lw	a3,4(a5)
	lw	a1,64(a5)
.LM30:
	lw	a2,8(a5)
.LM31:
	add	a3,a3,a1
	sw	a3,4(a5)
.LM32:
.LM33:
	bltu	a3,a2,.L6
.LM34:
.LM35:
	lw	a3,0(a5)
	sw	a3,4(a5)
	j	.L6
.LVL9:
.L5:
.LM36:
.LM37:
	lw	a0,12(a0)
.LVL10:
.LM38:
	sw	a2,12(sp)
	mv	a2,a3
.LVL11:
.LM39:
	sw	a4,8(sp)
	sw	a5,4(sp)
	call	memcpy
.LVL12:
.LM40:
.LM41:
	lw	a5,4(sp)
.LM42:
	lw	a4,8(sp)
	lw	a6,12(sp)
.LM43:
	lw	a3,12(a5)
	lw	a2,64(a5)
.LM44:
	lw	a1,0(a5)
.LM45:
	sub	a3,a3,a2
	sw	a3,12(a5)
.LM46:
.LM47:
	bgeu	a3,a1,.L7
.LM48:
.LM49:
	lw	a3,8(a5)
	sub	a3,a3,a2
.LM50:
	sw	a3,12(a5)
.L7:
.LM51:
.LM52:
.LM53:
	li	a3,2
.LM54:
	li	a0,0
.LM55:
	bne	a6,a3,.L4
.LM56:
.LM57:
	snez	a3,a4
	sub	a4,a4,a3
	j	.L4
.LVL13:
.L3:
.LM58:
.LM59:
	lw	a0,8(a0)
.LVL14:
.LM60:
	sw	a4,8(sp)
	sw	a5,4(sp)
	call	xTaskPriorityDisinherit
.LVL15:
.LM61:
	lw	a5,4(sp)
	lw	a4,8(sp)
	sw	zero,8(a5)
.LVL16:
.LM62:
	j	.L4
	.cfi_endproc
.LFE29:
	.size	prvCopyDataToQueue, .-prvCopyDataToQueue
	.section	.text.prvUnlockQueue,"ax",@progbits
	.align	1
	.type	prvUnlockQueue, @function
prvUnlockQueue:
.LVL17:
.LFB31:
.LM63:
	.cfi_startproc
.LM64:
.LM65:
	addi	sp,sp,-16
	.cfi_def_cfa_offset 16
	sw	s1,4(sp)
	.cfi_offset 9, -12
	mv	s1,a0
	sw	s0,8(sp)
	sw	ra,12(sp)
	.cfi_offset 8, -8
	.cfi_offset 1, -4
.LM66:
	call	vTaskEnterCritical
.LVL18:
.LBB31:
.LM67:
.LM68:
	lbu	s0,69(s1)
	slli	s0,s0,24
	srai	s0,s0,24
.LM69:
.LVL19:
.LM70:
	bgt	s0,zero,.L14
	j	.L12
.L13:
.LM71:
.LM72:
	addi	s0,s0,-1
.LVL20:
.LM73:
	andi	s0,s0,0xff
.LVL21:
.LM74:
	beq	s0,zero,.L12
.L14:
.LM75:
.LM76:
.LM77:
	lw	a5,36(s1)
.LM78:
	addi	a0,s1,36
.LM79:
	beq	a5,zero,.L12
.LM80:
	call	xTaskRemoveFromEventList
.LVL22:
.LM81:
	beq	a0,zero,.L13
.LM82:
	addi	s0,s0,-1
.LVL23:
.LM83:
	andi	s0,s0,0xff
.LVL24:
.LM84:
	call	vTaskMissedYield
.LVL25:
.LM85:
.LM86:
.LM87:
	bne	s0,zero,.L14
.L12:
.LM88:
.LM89:
	li	a5,-1
	sb	a5,69(s1)
.LBE31:
.LM90:
	call	vTaskExitCritical
.LVL26:
.LM91:
	call	vTaskEnterCritical
.LVL27:
.LBB32:
.LM92:
.LM93:
	lbu	s0,68(s1)
.LVL28:
.LM94:
	slli	s0,s0,24
	srai	s0,s0,24
.LM95:
.LVL29:
.LM96:
	bgt	s0,zero,.L17
	j	.L15
.L16:
.LM97:
.LM98:
	addi	s0,s0,-1
.LVL30:
.LM99:
	andi	s0,s0,0xff
.LVL31:
.LM100:
	beq	s0,zero,.L15
.L17:
.LM101:
.LM102:
.LM103:
	lw	a5,16(s1)
.LM104:
	addi	a0,s1,16
.LM105:
	beq	a5,zero,.L15
.LM106:
	call	xTaskRemoveFromEventList
.LVL32:
.LM107:
	beq	a0,zero,.L16
.LM108:
	addi	s0,s0,-1
.LVL33:
.LM109:
	andi	s0,s0,0xff
.LVL34:
.LM110:
	call	vTaskMissedYield
.LVL35:
.LM111:
.LM112:
.LM113:
	bne	s0,zero,.L17
.L15:
.LM114:
.LM115:
	li	a5,-1
	sb	a5,68(s1)
.LBE32:
.LM116:
.LM117:
	lw	s0,8(sp)
	.cfi_restore 8
.LVL36:
.LM118:
	lw	ra,12(sp)
	.cfi_restore 1
	lw	s1,4(sp)
	.cfi_restore 9
.LVL37:
.LM119:
	addi	sp,sp,16
	.cfi_def_cfa_offset 0
.LM120:
	tail	vTaskExitCritical
.LVL38:
	.cfi_endproc
.LFE31:
	.size	prvUnlockQueue, .-prvUnlockQueue
	.section	.text.xQueueGenericReset,"ax",@progbits
	.align	1
	.globl	xQueueGenericReset
	.type	xQueueGenericReset, @function
xQueueGenericReset:
.LVL39:
.LFB2:
.LM121:
	.cfi_startproc
.LM122:
.LM123:
	addi	sp,sp,-32
	.cfi_def_cfa_offset 32
	sw	s0,24(sp)
	sw	ra,28(sp)
	.cfi_offset 8, -8
	.cfi_offset 1, -4
.LM124:
	mv	s0,a0
.LVL40:
.LM125:
.LM126:
	beq	a0,zero,.L43
.LVL41:
.L34:
.LM127:
	sw	a1,12(sp)
.LM128:
	call	vTaskEnterCritical
.LVL42:
.LM129:
.LM130:
	lw	a3,64(s0)
.LM131:
	lw	a5,60(s0)
.LM132:
	lw	a4,0(s0)
.LM133:
	sw	zero,56(s0)
.LM134:
	mul	a5,a3,a5
.LM135:
	li	a2,-1
.LM136:
	lw	a1,12(sp)
.LM137:
	sb	a2,68(s0)
.LM138:
	sw	a4,4(s0)
.LM139:
	sb	a2,69(s0)
.LM140:
	sub	a3,a5,a3
.LM141:
	add	a5,a4,a5
.LM142:
	add	a4,a4,a3
.LM143:
	sw	a5,8(s0)
.LM144:
.LM145:
.LM146:
.LM147:
	sw	a4,12(s0)
.LM148:
.LM149:
.LM150:
.LM151:
	bne	a1,zero,.L35
.LM152:
.LM153:
	lw	a5,16(s0)
.LM154:
	bne	a5,zero,.L44
.L37:
.LM155:
	call	vTaskExitCritical
.LVL43:
.LM156:
.LM157:
	lw	ra,28(sp)
	.cfi_remember_state
	.cfi_restore 1
	lw	s0,24(sp)
	.cfi_restore 8
.LVL44:
.LM158:
	li	a0,1
	addi	sp,sp,32
	.cfi_def_cfa_offset 0
	jr	ra
.LVL45:
.L44:
	.cfi_restore_state
.LM159:
.LM160:
	addi	a0,s0,16
	call	xTaskRemoveFromEventList
.LVL46:
.LM161:
	beq	a0,zero,.L37
.LM162:
 #APP
# 281 "/home/shivani/bl602_iot_sdk/components/freertos/queue.c" 1
	ecall
# 0 "" 2
.LM163:
.LM164:
 #NO_APP
	call	vTaskExitCritical
.LVL47:
.LM165:
.LM166:
	lw	ra,28(sp)
	.cfi_remember_state
	.cfi_restore 1
	lw	s0,24(sp)
	.cfi_restore 8
.LVL48:
.LM167:
	li	a0,1
	addi	sp,sp,32
	.cfi_def_cfa_offset 0
	jr	ra
.LVL49:
.L35:
	.cfi_restore_state
.LM168:
	addi	a0,s0,16
	call	vListInitialise
.LVL50:
.LM169:
	addi	a0,s0,36
	call	vListInitialise
.LVL51:
.LM170:
	call	vTaskExitCritical
.LVL52:
.LM171:
.LM172:
	lw	ra,28(sp)
	.cfi_remember_state
	.cfi_restore 1
	lw	s0,24(sp)
	.cfi_restore 8
.LVL53:
.LM173:
	li	a0,1
	addi	sp,sp,32
	.cfi_def_cfa_offset 0
	jr	ra
.LVL54:
.L43:
	.cfi_restore_state
.LM174:
	sw	a1,12(sp)
.LM175:
	call	vAssertCalled
.LVL55:
.LM176:
	lw	a1,12(sp)
	j	.L34
	.cfi_endproc
.LFE2:
	.size	xQueueGenericReset, .-xQueueGenericReset
	.section	.text.xQueueGenericCreateStatic,"ax",@progbits
	.align	1
	.globl	xQueueGenericCreateStatic
	.type	xQueueGenericCreateStatic, @function
xQueueGenericCreateStatic:
.LVL56:
.LFB3:
.LM177:
	.cfi_startproc
.LM178:
.LM179:
.LM180:
	addi	sp,sp,-48
	.cfi_def_cfa_offset 48
	sw	s0,40(sp)
	sw	s1,36(sp)
	sw	s2,32(sp)
	sw	s3,28(sp)
	sw	s4,24(sp)
	sw	ra,44(sp)
	.cfi_offset 8, -8
	.cfi_offset 9, -12
	.cfi_offset 18, -16
	.cfi_offset 19, -20
	.cfi_offset 20, -24
	.cfi_offset 1, -4
.LM181:
	mv	s3,a0
	mv	s1,a2
	mv	s2,a1
	mv	s0,a3
	mv	s4,a4
.LM182:
	beq	a0,zero,.L63
.LM183:
.LM184:
	beq	s0,zero,.L64
.LVL57:
.L47:
.LM185:
.LM186:
	beq	s1,zero,.L61
	beq	s2,zero,.L50
.LM187:
.LM188:
	bne	s1,zero,.L49
.L61:
	beq	s2,zero,.L49
.L50:
.LM189:
	call	vAssertCalled
.LVL58:
.LM190:
.L49:
.LBB36:
.LM191:
.LM192:
	li	a5,80
	sw	a5,12(sp)
.LM193:
.LM194:
	lw	a4,12(sp)
.LM195:
	beq	a4,a5,.L52
.LM196:
	call	vAssertCalled
.LVL59:
.L52:
.LM197:
	lw	a5,12(sp)
.LBE36:
.LM198:
.LVL60:
.LM199:
.LM200:
	beq	s0,zero,.L53
.LM201:
.LM202:
	li	a5,1
	sb	a5,70(s0)
.LM203:
.LVL61:
.LBB37:
.LBI37:
.LM204:
.LBB38:
.LM205:
.LM206:
.LM207:
	beq	s2,zero,.L65
.LVL62:
.L54:
.LM208:
	sw	s1,0(s0)
.LM209:
.LM210:
	sw	s3,60(s0)
.LM211:
.LM212:
	sw	s2,64(s0)
.LM213:
.LM214:
	li	a1,1
	mv	a0,s0
	call	xQueueGenericReset
.LVL63:
.LM215:
.LM216:
	sb	s4,76(s0)
.LM217:
.LVL64:
.L53:
.LM218:
.LBE38:
.LBE37:
.LM219:
.LM220:
.LM221:
.LM222:
	lw	ra,44(sp)
	.cfi_remember_state
	.cfi_restore 1
	mv	a0,s0
	lw	s0,40(sp)
	.cfi_restore 8
.LVL65:
.LM223:
	lw	s1,36(sp)
	.cfi_restore 9
	lw	s2,32(sp)
	.cfi_restore 18
.LVL66:
.LM224:
	lw	s3,28(sp)
	.cfi_restore 19
.LVL67:
.LM225:
	lw	s4,24(sp)
	.cfi_restore 20
.LVL68:
.LM226:
	addi	sp,sp,48
	.cfi_def_cfa_offset 0
	jr	ra
.LVL69:
.L65:
	.cfi_restore_state
.LBB40:
.LBB39:
.LM227:
	mv	s1,s0
.LVL70:
.LM228:
	j	.L54
.LVL71:
.L63:
.LM229:
.LBE39:
.LBE40:
.LM230:
	call	vAssertCalled
.LVL72:
.LM231:
.LM232:
	bne	s0,zero,.L47
.L64:
.LM233:
	call	vAssertCalled
.LVL73:
	j	.L47
	.cfi_endproc
.LFE3:
	.size	xQueueGenericCreateStatic, .-xQueueGenericCreateStatic
	.section	.text.xQueueGenericCreate,"ax",@progbits
	.align	1
	.globl	xQueueGenericCreate
	.type	xQueueGenericCreate, @function
xQueueGenericCreate:
.LVL74:
.LFB4:
.LM234:
	.cfi_startproc
.LM235:
.LM236:
.LM237:
.LM238:
.LM239:
	addi	sp,sp,-32
	.cfi_def_cfa_offset 32
	sw	s0,24(sp)
	sw	s1,20(sp)
	sw	s2,16(sp)
	sw	ra,28(sp)
	.cfi_offset 8, -8
	.cfi_offset 9, -12
	.cfi_offset 18, -16
	.cfi_offset 1, -4
.LM240:
	mv	s0,a0
	mv	s1,a1
	mv	s2,a2
.LM241:
	beq	a0,zero,.L89
.LM242:
.LVL75:
.LM243:
.LM244:
	beq	a1,zero,.L68
	mulhu	a5,a0,a1
	mul	a4,a0,a1
.LVL76:
.LM245:
	beq	a5,zero,.L72
	sw	a4,12(sp)
.LM246:
	call	vAssertCalled
.LVL77:
.LM247:
	lw	a4,12(sp)
.LVL78:
.L72:
.LM248:
.LM249:
	li	a5,-81
.LM250:
	addi	a0,a4,80
.LM251:
	bleu	a4,a5,.L69
	sw	a0,12(sp)
.LM252:
	call	vAssertCalled
.LVL79:
	lw	a0,12(sp)
.LVL80:
.L69:
.LM253:
.LM254:
	call	pvPortMalloc
.LVL81:
	mv	a5,a0
.LVL82:
.LM255:
.LM256:
	beq	a0,zero,.L76
.LM257:
.LVL83:
.LM258:
.LM259:
	sb	zero,70(a5)
.LM260:
	addi	a0,a5,80
.LVL84:
.LM261:
.LM262:
.LBB43:
.LBI43:
.LM263:
.LBB44:
.LM264:
.LM265:
	j	.L74
.LVL85:
.L89:
.LM266:
.LBE44:
.LBE43:
.LM267:
	call	vAssertCalled
.LVL86:
.LM268:
.LM269:
.LM270:
	li	a0,80
	bne	s1,zero,.L69
.LVL87:
.L68:
.LM271:
.LM272:
	li	a0,80
	call	pvPortMalloc
.LVL88:
.LM273:
.LM274:
	beq	a0,zero,.L76
.LM275:
.LM276:
.LVL89:
.LM277:
.LM278:
	sb	zero,70(a0)
.LM279:
.LVL90:
.LBB47:
.LM280:
.LBB45:
.LM281:
.LM282:
.LBE45:
.LBE47:
.LM283:
	mv	a5,a0
.LVL91:
.L74:
.LM284:
	sw	a0,0(a5)
.LBB48:
.LBB46:
.LM285:
.LM286:
	sw	s0,60(a5)
.LM287:
.LM288:
	sw	s1,64(a5)
.LM289:
.LM290:
	mv	a0,a5
	li	a1,1
	sw	a5,12(sp)
	call	xQueueGenericReset
.LVL92:
.LM291:
.LM292:
	lw	a5,12(sp)
	sb	s2,76(a5)
.LM293:
.LVL93:
.LM294:
.LBE46:
.LBE48:
.LM295:
.LM296:
.LM297:
.LM298:
	lw	ra,28(sp)
	.cfi_remember_state
	.cfi_restore 1
	lw	s0,24(sp)
	.cfi_restore 8
.LVL94:
.LM299:
	lw	s1,20(sp)
	.cfi_restore 9
.LVL95:
.LM300:
	lw	s2,16(sp)
	.cfi_restore 18
.LVL96:
.LM301:
	mv	a0,a5
	addi	sp,sp,32
	.cfi_def_cfa_offset 0
.LVL97:
.LM302:
	jr	ra
.LVL98:
.L76:
	.cfi_restore_state
.LM303:
	lw	ra,28(sp)
	.cfi_restore 1
	lw	s0,24(sp)
	.cfi_restore 8
.LVL99:
.LM304:
	li	a5,0
.LM305:
	lw	s1,20(sp)
	.cfi_restore 9
.LVL100:
.LM306:
	lw	s2,16(sp)
	.cfi_restore 18
	mv	a0,a5
.LVL101:
.LM307:
	addi	sp,sp,32
	.cfi_def_cfa_offset 0
	jr	ra
	.cfi_endproc
.LFE4:
	.size	xQueueGenericCreate, .-xQueueGenericCreate
	.section	.text.xQueueCreateCountingSemaphoreStatic,"ax",@progbits
	.align	1
	.globl	xQueueCreateCountingSemaphoreStatic
	.type	xQueueCreateCountingSemaphoreStatic, @function
xQueueCreateCountingSemaphoreStatic:
.LVL102:
.LFB11:
.LM308:
	.cfi_startproc
.LM309:
.LM310:
.LM311:
	addi	sp,sp,-32
	.cfi_def_cfa_offset 32
	sw	s0,24(sp)
	sw	s1,20(sp)
	sw	s2,16(sp)
	sw	ra,28(sp)
	.cfi_offset 8, -8
	.cfi_offset 9, -12
	.cfi_offset 18, -16
	.cfi_offset 1, -4
.LM312:
	mv	s2,a0
	mv	s1,a1
	mv	s0,a2
.LM313:
	beq	a0,zero,.L91
.LM314:
.LM315:
	bltu	a0,a1,.L93
.LBB54:
.LBB55:
.LM316:
.LM317:
	beq	s0,zero,.L105
.LVL103:
.L94:
.LM318:
.LM319:
.LBB56:
.LM320:
.LM321:
	li	a5,80
	sw	a5,12(sp)
.LM322:
.LM323:
	lw	a4,12(sp)
.LM324:
	bne	a4,a5,.L97
.L103:
.LM325:
	lw	a5,12(sp)
.LBE56:
.LM326:
.LVL104:
.LM327:
.LM328:
.LM329:
	li	a1,1
.LBB57:
.LBB58:
.LM330:
	sw	s2,60(s0)
.LM331:
	sw	s0,0(s0)
.LM332:
	sw	zero,64(s0)
.LBE58:
.LBE57:
.LM333:
	sb	a1,70(s0)
.LM334:
.LVL105:
.LBB61:
.LBI57:
.LM335:
.LBB59:
.LM336:
.LM337:
.LM338:
.LM339:
.LM340:
.LM341:
.LM342:
	mv	a0,s0
	call	xQueueGenericReset
.LVL106:
.LM343:
.LM344:
	li	a5,2
.LBE59:
.LBE61:
.LBE55:
.LBE54:
.LM345:
	sw	s1,56(s0)
.LBB72:
.LBB66:
.LBB62:
.LBB60:
.LM346:
	sb	a5,76(s0)
.LM347:
.LVL107:
.LM348:
.LBE60:
.LBE62:
.LM349:
.LM350:
.LM351:
.LM352:
.LBE66:
.LBE72:
.LM353:
.LM354:
.LM355:
.LM356:
.LM357:
.LM358:
	lw	ra,28(sp)
	.cfi_remember_state
	.cfi_restore 1
	mv	a0,s0
	lw	s0,24(sp)
	.cfi_restore 8
.LVL108:
.LM359:
	lw	s1,20(sp)
	.cfi_restore 9
.LVL109:
.LM360:
	lw	s2,16(sp)
	.cfi_restore 18
.LVL110:
.LM361:
	addi	sp,sp,32
	.cfi_def_cfa_offset 0
	jr	ra
.LVL111:
.L91:
	.cfi_restore_state
.LM362:
	call	vAssertCalled
.LVL112:
.LM363:
.LM364:
	bne	s1,zero,.L106
.L93:
.LM365:
	call	vAssertCalled
.LVL113:
.LM366:
.LBB73:
.LBI54:
.LM367:
.LBB67:
.LM368:
.LM369:
.L107:
.LM370:
.LM371:
	bne	s0,zero,.L94
.L105:
.LM372:
	call	vAssertCalled
.LVL114:
.LM373:
.LM374:
.LBB63:
.LM375:
.LM376:
	li	a5,80
	sw	a5,12(sp)
.LM377:
.LM378:
	lw	a4,12(sp)
.LM379:
	beq	a4,a5,.L104
.LM380:
	call	vAssertCalled
.LVL115:
.L104:
.LM381:
.LBE63:
.LBE67:
.LBE73:
.LM382:
	lw	ra,28(sp)
	.cfi_remember_state
	.cfi_restore 1
	mv	a0,s0
	lw	s0,24(sp)
	.cfi_restore 8
.LVL116:
.LBB74:
.LBB68:
.LBB64:
.LM383:
	lw	a5,12(sp)
.LBE64:
.LM384:
.LVL117:
.LM385:
.LBE68:
.LBE74:
.LM386:
.LM387:
.LM388:
	lw	s1,20(sp)
	.cfi_restore 9
.LVL118:
.LM389:
	lw	s2,16(sp)
	.cfi_restore 18
.LVL119:
.LM390:
	addi	sp,sp,32
	.cfi_def_cfa_offset 0
	jr	ra
.LVL120:
.L97:
	.cfi_restore_state
.LBB75:
.LBB69:
.LBB65:
.LM391:
	call	vAssertCalled
.LVL121:
	j	.L103
.L106:
.LBE65:
.LBE69:
.LBE75:
.LM392:
	call	vAssertCalled
.LVL122:
.LM393:
.LBB76:
.LM394:
.LBB70:
.LM395:
.LM396:
.LBE70:
.LBE76:
.LM397:
	call	vAssertCalled
.LVL123:
.LM398:
.LBB77:
.LM399:
.LBB71:
.LM400:
.LM401:
	j	.L107
.LBE71:
.LBE77:
	.cfi_endproc
.LFE11:
	.size	xQueueCreateCountingSemaphoreStatic, .-xQueueCreateCountingSemaphoreStatic
	.section	.text.xQueueCreateCountingSemaphore,"ax",@progbits
	.align	1
	.globl	xQueueCreateCountingSemaphore
	.type	xQueueCreateCountingSemaphore, @function
xQueueCreateCountingSemaphore:
.LVL124:
.LFB12:
.LM402:
	.cfi_startproc
.LM403:
.LM404:
.LM405:
	addi	sp,sp,-32
	.cfi_def_cfa_offset 32
	sw	s0,24(sp)
	sw	ra,28(sp)
	.cfi_offset 8, -8
	.cfi_offset 1, -4
.LM406:
	mv	s0,a1
.LM407:
	beq	a0,zero,.L116
.LM408:
.LM409:
	bltu	a0,s0,.L117
.LVL125:
.L110:
.LM410:
.LM411:
	li	a2,2
	li	a1,0
	call	xQueueGenericCreate
.LVL126:
.LM412:
.LM413:
	beq	a0,zero,.L108
.LM414:
.LM415:
	sw	s0,56(a0)
.LM416:
.LM417:
.LM418:
.L108:
.LM419:
	lw	ra,28(sp)
	.cfi_remember_state
	.cfi_restore 1
	lw	s0,24(sp)
	.cfi_restore 8
.LVL127:
.LM420:
	addi	sp,sp,32
	.cfi_def_cfa_offset 0
	jr	ra
.LVL128:
.L116:
	.cfi_restore_state
.LM421:
	sw	a0,12(sp)
.LM422:
	call	vAssertCalled
.LVL129:
.LM423:
	lw	a0,12(sp)
.LM424:
.LM425:
	bgeu	a0,s0,.L110
.LVL130:
.L117:
.LM426:
	sw	a0,12(sp)
.LM427:
	call	vAssertCalled
.LVL131:
	lw	a0,12(sp)
	j	.L110
	.cfi_endproc
.LFE12:
	.size	xQueueCreateCountingSemaphore, .-xQueueCreateCountingSemaphore
	.section	.text.xQueueGenericSend,"ax",@progbits
	.align	1
	.globl	xQueueGenericSend
	.type	xQueueGenericSend, @function
xQueueGenericSend:
.LVL132:
.LFB13:
.LM428:
	.cfi_startproc
.LM429:
.LM430:
.LM431:
.LM432:
	addi	sp,sp,-64
	.cfi_def_cfa_offset 64
	sw	s0,56(sp)
	sw	s4,40(sp)
	sw	s5,36(sp)
	sw	ra,60(sp)
	sw	s1,52(sp)
	sw	s2,48(sp)
	sw	s6,32(sp)
	.cfi_offset 8, -8
	.cfi_offset 20, -24
	.cfi_offset 21, -28
	.cfi_offset 1, -4
	.cfi_offset 9, -12
	.cfi_offset 18, -16
	.cfi_offset 22, -32
.LM433:
	sw	a2,12(sp)
	mv	s0,a0
.LVL133:
.LM434:
.LM435:
	mv	s5,a1
	mv	s4,a3
.LM436:
	beq	a0,zero,.L152
.LVL134:
.L119:
.LM437:
.LM438:
	beq	s5,zero,.L153
.L120:
.LM439:
.LM440:
	li	a5,2
	beq	s4,a5,.L154
.L121:
.LM441:
.LM442:
	call	xTaskGetSchedulerState
.LVL135:
.LM443:
	bne	a0,zero,.L122
.LM444:
	lw	a5,12(sp)
	bne	a5,zero,.L155
.L122:
.LM445:
	call	vTaskEnterCritical
.LVL136:
.LM446:
	lw	a4,56(s0)
.LM447:
	lw	a5,60(s0)
.LM448:
	addi	s2,s4,-2
	li	s6,0
.LVL137:
.LM449:
.LM450:
.LM451:
.LM452:
	li	s1,-1
.LM453:
	bltu	a4,a5,.L139
.L158:
.LM454:
	beq	s2,zero,.L139
.LM455:
.LM456:
	lw	a5,12(sp)
	beq	a5,zero,.L156
.LM457:
.LM458:
	beq	s6,zero,.L157
.L133:
.LVL138:
.LM459:
.LM460:
	call	vTaskExitCritical
.LVL139:
.LM461:
	call	vTaskSuspendAll
.LVL140:
.LM462:
	call	vTaskEnterCritical
.LVL141:
.LM463:
.LM464:
	lbu	a5,68(s0)
	slli	a5,a5,24
	srai	a5,a5,24
.LM465:
	bne	a5,s1,.L134
.LM466:
.LM467:
	sb	zero,68(s0)
.L134:
.LM468:
.LM469:
	lbu	a5,69(s0)
	slli	a5,a5,24
	srai	a5,a5,24
.LM470:
	bne	a5,s1,.L135
.LM471:
.LM472:
	sb	zero,69(s0)
.L135:
.LM473:
	call	vTaskExitCritical
.LVL142:
.LM474:
.LM475:
	addi	a1,sp,12
	addi	a0,sp,24
	call	xTaskCheckForTimeOut
.LVL143:
.LM476:
	bne	a0,zero,.L136
.LM477:
.LVL144:
.LBB78:
.LBI78:
.LM478:
.LBB79:
.LM479:
.LM480:
	call	vTaskEnterCritical
.LVL145:
.LM481:
.LM482:
	lw	a4,56(s0)
.LM483:
	lw	a5,60(s0)
	beq	a4,a5,.L137
.LM484:
.LVL146:
.LM485:
	call	vTaskExitCritical
.LVL147:
.LM486:
.LM487:
.LBE79:
.LBE78:
.LM488:
	mv	a0,s0
	call	prvUnlockQueue
.LVL148:
.LM489:
.LM490:
	call	xTaskResumeAll
.LVL149:
.L138:
.LM491:
	li	s6,1
.L160:
.LVL150:
.LM492:
.LM493:
	call	vTaskEnterCritical
.LVL151:
.LM494:
.LM495:
	lw	a4,56(s0)
.LM496:
	lw	a5,60(s0)
.LM497:
	bgeu	a4,a5,.L158
.L139:
.LM498:
.LM499:
.LM500:
	mv	a2,s4
	mv	a1,s5
	mv	a0,s0
	call	prvCopyDataToQueue
.LVL152:
.LM501:
.LM502:
	lw	a5,36(s0)
.LM503:
	bne	a5,zero,.L159
.LM504:
.LM505:
	bne	a0,zero,.L151
.LVL153:
.L128:
.LM506:
.LM507:
	call	vTaskExitCritical
.LVL154:
.LM508:
.LM509:
	li	a0,1
.LVL155:
.L118:
.LM510:
	lw	ra,60(sp)
	.cfi_remember_state
	.cfi_restore 1
	lw	s0,56(sp)
	.cfi_restore 8
.LVL156:
.LM511:
	lw	s1,52(sp)
	.cfi_restore 9
	lw	s2,48(sp)
	.cfi_restore 18
	lw	s4,40(sp)
	.cfi_restore 20
.LVL157:
.LM512:
	lw	s5,36(sp)
	.cfi_restore 21
.LVL158:
.LM513:
	lw	s6,32(sp)
	.cfi_restore 22
	addi	sp,sp,64
	.cfi_def_cfa_offset 0
	jr	ra
.LVL159:
.L137:
	.cfi_restore_state
.LBB81:
.LBB80:
.LM514:
	call	vTaskExitCritical
.LVL160:
.LM515:
.LM516:
.LBE80:
.LBE81:
.LM517:
.LM518:
	lw	a1,12(sp)
	addi	a0,s0,16
	call	vTaskPlaceOnEventList
.LVL161:
.LM519:
	mv	a0,s0
	call	prvUnlockQueue
.LVL162:
.LM520:
.LM521:
	call	xTaskResumeAll
.LVL163:
.LM522:
	bne	a0,zero,.L138
.LM523:
 #APP
# 933 "/home/shivani/bl602_iot_sdk/components/freertos/queue.c" 1
	ecall
# 0 "" 2
.LM524:
 #NO_APP
	li	s6,1
	j	.L160
.LVL164:
.L157:
.LM525:
	addi	a0,sp,24
	call	vTaskInternalSetTimeOutState
.LVL165:
.LM526:
	j	.L133
.LVL166:
.L159:
.LM527:
.LM528:
	addi	a0,s0,36
.LVL167:
.LM529:
	call	xTaskRemoveFromEventList
.LVL168:
.LM530:
	beq	a0,zero,.L128
.L151:
.LM531:
 #APP
# 864 "/home/shivani/bl602_iot_sdk/components/freertos/queue.c" 1
	ecall
# 0 "" 2
.LM532:
 #NO_APP
	j	.L128
.LVL169:
.L154:
.LM533:
	lw	a4,60(s0)
	li	a5,1
	beq	a4,a5,.L121
.LM534:
	call	vAssertCalled
.LVL170:
	j	.L121
.L153:
.LM535:
	lw	a5,64(s0)
	beq	a5,zero,.L120
.LM536:
	call	vAssertCalled
.LVL171:
	j	.L120
.LVL172:
.L156:
.LM537:
	call	vTaskExitCritical
.LVL173:
.LM538:
.LM539:
.LM540:
	li	a0,0
	j	.L118
.LVL174:
.L136:
.LM541:
	mv	a0,s0
	call	prvUnlockQueue
.LVL175:
.LM542:
.LM543:
	call	xTaskResumeAll
.LVL176:
.LM544:
.LM545:
.LM546:
	li	a0,0
	j	.L118
.LVL177:
.L152:
.LM547:
	call	vAssertCalled
.LVL178:
.LM548:
	j	.L119
.L155:
.LM549:
	call	vAssertCalled
.LVL179:
	j	.L122
	.cfi_endproc
.LFE13:
	.size	xQueueGenericSend, .-xQueueGenericSend
	.section	.text.xQueueCreateMutexStatic,"ax",@progbits
	.align	1
	.globl	xQueueCreateMutexStatic
	.type	xQueueCreateMutexStatic, @function
xQueueCreateMutexStatic:
.LVL180:
.LFB8:
.LM550:
	.cfi_startproc
.LM551:
.LM552:
.LM553:
.LM554:
.LM555:
	addi	sp,sp,-32
	.cfi_def_cfa_offset 32
	sw	s0,24(sp)
	sw	ra,28(sp)
	.cfi_offset 8, -8
	.cfi_offset 1, -4
	mv	s0,a1
.LVL181:
.LBB91:
.LBI91:
.LM556:
.LBB92:
.LM557:
.LM558:
.LM559:
.LM560:
	beq	a1,zero,.L162
.LBB93:
.LM561:
	li	a5,80
	sw	a5,12(sp)
.LM562:
	lw	a4,12(sp)
	sw	s1,20(sp)
	.cfi_offset 9, -12
	mv	s1,a0
.LBE93:
.LM563:
.LM564:
.LBB94:
.LM565:
.LM566:
.LM567:
	bne	a4,a5,.L169
.LM568:
	lw	a5,12(sp)
.LBE94:
.LM569:
.LVL182:
.LM570:
.L164:
.LM571:
.LM572:
	li	a1,1
	sb	a1,70(s0)
.LM573:
.LVL183:
.LBB95:
.LBI95:
.LM574:
.LBB96:
.LM575:
.LM576:
.LM577:
.LM578:
.LM579:
	sw	a1,60(s0)
.LM580:
.LM581:
.LM582:
	sw	s0,0(s0)
.LM583:
	sw	zero,64(s0)
.LM584:
	mv	a0,s0
	call	xQueueGenericReset
.LVL184:
.LM585:
.LBE96:
.LBE95:
.LBE92:
.LBE91:
.LBB105:
.LBB106:
.LBB107:
.LM586:
	mv	a0,s0
.LBE107:
.LBE106:
.LBE105:
.LBB112:
.LBB102:
.LBB98:
.LBB97:
.LM587:
	sb	s1,76(s0)
.LM588:
.LVL185:
.LM589:
.LBE97:
.LBE98:
.LM590:
.LM591:
.LM592:
.LM593:
.LBE102:
.LBE112:
.LM594:
.LBB113:
.LBI105:
.LM595:
.LM596:
.LBB110:
.LBI106:
.LM597:
.LBB108:
.LM598:
.LM599:
	sw	zero,8(s0)
.LM600:
.LM601:
	sw	zero,0(s0)
.LM602:
.LM603:
	sw	zero,12(s0)
.LM604:
.LM605:
.LM606:
	li	a3,0
	li	a2,0
	li	a1,0
	call	xQueueGenericSend
.LVL186:
.LM607:
.LM608:
.LBE108:
.LBE110:
.LBE113:
.LM609:
	lw	ra,28(sp)
	.cfi_remember_state
	.cfi_restore 1
	mv	a0,s0
	lw	s0,24(sp)
	.cfi_restore 8
.LVL187:
.LBB114:
.LBB111:
.LBB109:
.LM610:
	lw	s1,20(sp)
	.cfi_restore 9
.LVL188:
.LM611:
.LBE109:
.LBE111:
.LM612:
.LM613:
.LBE114:
.LM614:
.LM615:
	addi	sp,sp,32
	.cfi_def_cfa_offset 0
	jr	ra
.LVL189:
.L169:
	.cfi_restore_state
.LBB115:
.LBB103:
.LBB99:
.LM616:
	call	vAssertCalled
.LVL190:
.LM617:
	lw	a5,12(sp)
.LBE99:
.LM618:
.LVL191:
.LM619:
	j	.L164
.LVL192:
.L162:
	.cfi_restore 9
.LM620:
	call	vAssertCalled
.LVL193:
.LM621:
.LM622:
.LBB100:
.LM623:
.LM624:
	li	a5,80
	sw	a5,12(sp)
.LM625:
.LM626:
	lw	a4,12(sp)
.LM627:
	beq	a4,a5,.L168
.LM628:
	call	vAssertCalled
.LVL194:
.L168:
.LM629:
.LBE100:
.LBE103:
.LBE115:
.LM630:
	lw	ra,28(sp)
	.cfi_restore 1
	mv	a0,s0
	lw	s0,24(sp)
	.cfi_restore 8
.LVL195:
.LBB116:
.LBB104:
.LBB101:
.LM631:
	lw	a5,12(sp)
.LBE101:
.LM632:
.LVL196:
.LM633:
.LM634:
.LBE104:
.LBE116:
.LBB117:
.LM635:
.LBE117:
.LM636:
.LM637:
	addi	sp,sp,32
	.cfi_def_cfa_offset 0
	jr	ra
	.cfi_endproc
.LFE8:
	.size	xQueueCreateMutexStatic, .-xQueueCreateMutexStatic
	.section	.text.xQueueGiveMutexRecursive,"ax",@progbits
	.align	1
	.globl	xQueueGiveMutexRecursive
	.type	xQueueGiveMutexRecursive, @function
xQueueGiveMutexRecursive:
.LVL197:
.LFB9:
.LM638:
	.cfi_startproc
.LM639:
.LM640:
.LM641:
	addi	sp,sp,-16
	.cfi_def_cfa_offset 16
	sw	s0,8(sp)
	sw	ra,12(sp)
	sw	s1,4(sp)
	.cfi_offset 8, -8
	.cfi_offset 1, -4
	.cfi_offset 9, -12
.LM642:
	mv	s0,a0
.LVL198:
.LM643:
.LM644:
	beq	a0,zero,.L177
.LVL199:
.L171:
.LM645:
.LM646:
	lw	s1,8(s0)
.LM647:
	call	xTaskGetCurrentTaskHandle
.LVL200:
.LM648:
	li	a5,0
.LM649:
	beq	s1,a0,.L178
.L170:
.LM650:
	lw	ra,12(sp)
	.cfi_remember_state
	.cfi_restore 1
	lw	s0,8(sp)
	.cfi_restore 8
.LVL201:
.LM651:
	lw	s1,4(sp)
	.cfi_restore 9
	mv	a0,a5
	addi	sp,sp,16
	.cfi_def_cfa_offset 0
	jr	ra
.LVL202:
.L178:
	.cfi_restore_state
.LM652:
.LM653:
.LM654:
	lw	a5,12(s0)
	addi	a5,a5,-1
	sw	a5,12(s0)
.LM655:
.LM656:
	beq	a5,zero,.L173
.LM657:
	li	a5,1
	j	.L170
.L173:
.LM658:
.LM659:
	mv	a0,s0
	li	a3,0
	li	a2,0
	li	a1,0
	call	xQueueGenericSend
.LVL203:
.LM660:
	li	a5,1
	j	.L170
.L177:
.LM661:
	call	vAssertCalled
.LVL204:
	j	.L171
	.cfi_endproc
.LFE9:
	.size	xQueueGiveMutexRecursive, .-xQueueGiveMutexRecursive
	.section	.text.xQueueCreateMutex,"ax",@progbits
	.align	1
	.globl	xQueueCreateMutex
	.type	xQueueCreateMutex, @function
xQueueCreateMutex:
.LVL205:
.LFB7:
.LM662:
	.cfi_startproc
.LM663:
.LM664:
.LM665:
.LM666:
	addi	sp,sp,-16
	.cfi_def_cfa_offset 16
	sw	s1,4(sp)
	.cfi_offset 9, -12
	mv	s1,a0
.LVL206:
.LBB126:
.LBI126:
.LM667:
.LBB127:
.LM668:
.LM669:
.LM670:
.LM671:
.LM672:
.LM673:
.LM674:
.LM675:
.LM676:
	li	a0,80
.LVL207:
.LM677:
.LBE127:
.LBE126:
.LM678:
	sw	s0,8(sp)
	sw	ra,12(sp)
	.cfi_offset 8, -8
	.cfi_offset 1, -4
.LBB134:
.LBB132:
.LM679:
	call	pvPortMalloc
.LVL208:
	mv	s0,a0
.LVL209:
.LM680:
.LM681:
	beq	a0,zero,.L179
.LM682:
.LM683:
.LVL210:
.LM684:
.LM685:
	sb	zero,70(a0)
.LM686:
.LVL211:
.LBB128:
.LBI128:
.LM687:
.LBB129:
.LM688:
.LM689:
.LM690:
.LM691:
	li	a1,1
.LM692:
	sw	a0,0(s0)
.LM693:
.LM694:
	sw	a1,60(a0)
.LM695:
.LM696:
.LM697:
	sw	zero,64(a0)
.LM698:
	call	xQueueGenericReset
.LVL212:
.LM699:
.LBE129:
.LBE128:
.LBE132:
.LBE134:
.LBB135:
.LBB136:
.LBB137:
.LM700:
	mv	a0,s0
.LBE137:
.LBE136:
.LBE135:
.LBB140:
.LBB133:
.LBB131:
.LBB130:
.LM701:
	sb	s1,76(s0)
.LM702:
.LVL213:
.LM703:
.LBE130:
.LBE131:
.LM704:
.LM705:
.LM706:
.LM707:
.LBE133:
.LBE140:
.LM708:
.LBB141:
.LBI135:
.LM709:
.LM710:
.LBB139:
.LBI136:
.LM711:
.LBB138:
.LM712:
.LM713:
	sw	zero,8(s0)
.LM714:
.LM715:
	sw	zero,0(s0)
.LM716:
.LM717:
	sw	zero,12(s0)
.LM718:
.LM719:
.LM720:
	li	a3,0
	li	a2,0
	li	a1,0
	call	xQueueGenericSend
.LVL214:
.LM721:
.LM722:
.LBE138:
.LBE139:
.LM723:
.LM724:
.LBE141:
.LM725:
.L179:
.LM726:
	lw	ra,12(sp)
	.cfi_restore 1
	mv	a0,s0
	lw	s0,8(sp)
	.cfi_restore 8
	lw	s1,4(sp)
	.cfi_restore 9
.LVL215:
.LM727:
	addi	sp,sp,16
	.cfi_def_cfa_offset 0
	jr	ra
	.cfi_endproc
.LFE7:
	.size	xQueueCreateMutex, .-xQueueCreateMutex
	.section	.text.xQueueGenericSendFromISR,"ax",@progbits
	.align	1
	.globl	xQueueGenericSendFromISR
	.type	xQueueGenericSendFromISR, @function
xQueueGenericSendFromISR:
.LVL216:
.LFB14:
.LM728:
	.cfi_startproc
.LM729:
.LM730:
.LM731:
.LM732:
	addi	sp,sp,-32
	.cfi_def_cfa_offset 32
	sw	s0,24(sp)
	sw	s1,20(sp)
	sw	ra,28(sp)
	.cfi_offset 8, -8
	.cfi_offset 9, -12
	.cfi_offset 1, -4
.LM733:
	mv	s0,a0
.LVL217:
.LM734:
.LM735:
	mv	s1,a2
.LM736:
	beq	a0,zero,.L206
.LVL218:
.L186:
.LM737:
.LM738:
	beq	a1,zero,.L207
.L187:
.LM739:
.LM740:
	li	a4,2
.LM741:
	lw	a5,60(s0)
.LM742:
	beq	a3,a4,.L188
.LM743:
.LM744:
.LVL219:
.LM745:
.LM746:
	lw	a4,56(s0)
.LM747:
	li	a0,0
.LM748:
	bgtu	a5,a4,.L189
.LM749:
	lw	ra,28(sp)
	.cfi_remember_state
	.cfi_restore 1
	lw	s0,24(sp)
	.cfi_restore 8
.LVL220:
.LM750:
	lw	s1,20(sp)
	.cfi_restore 9
.LVL221:
.LM751:
	addi	sp,sp,32
	.cfi_def_cfa_offset 0
	jr	ra
.LVL222:
.L188:
	.cfi_restore_state
.LM752:
	li	a4,1
	bne	a5,a4,.L191
.LM753:
.LM754:
.LVL223:
.LM755:
.LM756:
	lw	a5,56(s0)
.L189:
.LBB142:
.LM757:
.LM758:
	lbu	a5,69(s0)
.LM759:
	lw	a4,56(s0)
.LM760:
	mv	a2,a3
.LM761:
	slli	a5,a5,24
	srai	a5,a5,24
.LM762:
	mv	a0,s0
.LM763:
	sw	a5,8(sp)
.LVL224:
.LM764:
.LM765:
.LM766:
.LM767:
	call	prvCopyDataToQueue
.LVL225:
.LM768:
.LM769:
	lw	a5,8(sp)
	li	a4,-1
	beq	a5,a4,.L208
.LM770:
.LM771:
	addi	a5,a5,1
.LM772:
	sb	a5,69(s0)
.L194:
.LM773:
	li	a0,1
.L209:
.LBE142:
.LM774:
	lw	ra,28(sp)
	.cfi_remember_state
	.cfi_restore 1
	lw	s0,24(sp)
	.cfi_restore 8
.LVL226:
.LM775:
	lw	s1,20(sp)
	.cfi_restore 9
.LVL227:
.LM776:
	addi	sp,sp,32
	.cfi_def_cfa_offset 0
.LVL228:
.LM777:
	jr	ra
.LVL229:
.L207:
	.cfi_restore_state
.LM778:
	lw	a5,64(s0)
	beq	a5,zero,.L187
	sw	a3,12(sp)
	sw	a1,8(sp)
.LM779:
	call	vAssertCalled
.LVL230:
	lw	a3,12(sp)
	lw	a1,8(sp)
	j	.L187
.LVL231:
.L208:
.LBB143:
.LM780:
.LM781:
	lw	a5,36(s0)
.LM782:
	beq	a5,zero,.L194
.LM783:
.LM784:
	addi	a0,s0,36
	call	xTaskRemoveFromEventList
.LVL232:
.LM785:
.LM786:
	beq	a0,zero,.L194
	beq	s1,zero,.L194
.LM787:
.LM788:
	li	a5,1
	sw	a5,0(s1)
.LM789:
	li	a0,1
	j	.L209
.LVL233:
.L206:
.LM790:
	sw	a3,12(sp)
	sw	a1,8(sp)
.LBE143:
.LM791:
	call	vAssertCalled
.LVL234:
.LM792:
	lw	a3,12(sp)
	lw	a1,8(sp)
	j	.L186
.LVL235:
.L191:
.LM793:
	sw	a3,12(sp)
	sw	a1,8(sp)
.LM794:
	call	vAssertCalled
.LVL236:
.LM795:
.LM796:
.LM797:
.LM798:
	lw	a5,56(s0)
	lw	a3,12(sp)
	lw	a1,8(sp)
	j	.L189
	.cfi_endproc
.LFE14:
	.size	xQueueGenericSendFromISR, .-xQueueGenericSendFromISR
	.section	.text.xQueueGiveFromISR,"ax",@progbits
	.align	1
	.globl	xQueueGiveFromISR
	.type	xQueueGiveFromISR, @function
xQueueGiveFromISR:
.LVL237:
.LFB15:
.LM799:
	.cfi_startproc
.LM800:
.LM801:
.LM802:
.LM803:
	addi	sp,sp,-32
	.cfi_def_cfa_offset 32
	sw	ra,28(sp)
	.cfi_offset 1, -4
.LM804:
	mv	a5,a0
.LVL238:
.LM805:
.LM806:
	beq	a0,zero,.L233
.LVL239:
.L211:
.LM807:
.LM808:
	lw	a4,64(a5)
	bne	a4,zero,.L234
.LM809:
.LM810:
	lw	a4,0(a5)
	beq	a4,zero,.L235
.L213:
.LM811:
.LM812:
.LVL240:
.LBB144:
.LM813:
.LM814:
	lw	a4,56(a5)
.LVL241:
.LM815:
.LM816:
	lw	a3,60(a5)
.LM817:
	li	a0,0
.LM818:
	bleu	a3,a4,.L210
.LBB145:
.LM819:
.LM820:
	lbu	a3,69(a5)
.LM821:
	addi	a4,a4,1
.LVL242:
.LM822:
	sw	a4,56(a5)
.LM823:
	slli	a4,a3,24
.LVL243:
.LM824:
	srai	a4,a4,24
.LVL244:
.LM825:
.LM826:
.LM827:
.LM828:
	li	a3,-1
	beq	a4,a3,.L236
.LM829:
.LM830:
	addi	a4,a4,1
.LVL245:
.LM831:
	sb	a4,69(a5)
.LVL246:
.L217:
.LM832:
	li	a0,1
.LVL247:
.L210:
.LM833:
.LBE145:
.LBE144:
.LM834:
	lw	ra,28(sp)
	.cfi_remember_state
	.cfi_restore 1
	addi	sp,sp,32
	.cfi_def_cfa_offset 0
	jr	ra
.LVL248:
.L234:
	.cfi_restore_state
.LM835:
	sw	a1,12(sp)
	sw	a5,8(sp)
.LM836:
	call	vAssertCalled
.LVL249:
	lw	a5,8(sp)
.LM837:
.LM838:
	lw	a1,12(sp)
.LM839:
	lw	a4,0(a5)
	bne	a4,zero,.L213
.L235:
.LM840:
	lw	a4,8(a5)
	beq	a4,zero,.L213
	sw	a1,12(sp)
	sw	a5,8(sp)
.LM841:
	call	vAssertCalled
.LVL250:
	lw	a1,12(sp)
	lw	a5,8(sp)
	j	.L213
.LVL251:
.L236:
.LBB147:
.LBB146:
.LM842:
.LM843:
	lw	a4,36(a5)
.LVL252:
.LM844:
	beq	a4,zero,.L217
.LM845:
.LM846:
	addi	a0,a5,36
	sw	a1,8(sp)
	call	xTaskRemoveFromEventList
.LVL253:
.LM847:
.LM848:
	lw	a1,8(sp)
	beq	a1,zero,.L217
	beq	a0,zero,.L217
.LM849:
.LM850:
	li	a5,1
	sw	a5,0(a1)
.LM851:
	li	a0,1
	j	.L210
.LVL254:
.L233:
.LM852:
	sw	a1,12(sp)
	sw	a0,8(sp)
.LBE146:
.LBE147:
.LM853:
	call	vAssertCalled
.LVL255:
.LM854:
	lw	a1,12(sp)
	lw	a5,8(sp)
	j	.L211
	.cfi_endproc
.LFE15:
	.size	xQueueGiveFromISR, .-xQueueGiveFromISR
	.section	.text.xQueueReceive,"ax",@progbits
	.align	1
	.globl	xQueueReceive
	.type	xQueueReceive, @function
xQueueReceive:
.LVL256:
.LFB16:
.LM855:
	.cfi_startproc
.LM856:
.LM857:
.LM858:
.LM859:
	addi	sp,sp,-48
	.cfi_def_cfa_offset 48
	sw	s0,40(sp)
	sw	s2,32(sp)
	sw	ra,44(sp)
	sw	a2,12(sp)
	.cfi_offset 8, -8
	.cfi_offset 18, -16
	.cfi_offset 1, -4
	mv	s0,a0
.LVL257:
.LM860:
.LM861:
	mv	s2,a1
.LM862:
	beq	a0,zero,.L278
.LVL258:
.L238:
.LM863:
.LM864:
	beq	s2,zero,.L279
.L239:
.LM865:
.LM866:
	call	xTaskGetSchedulerState
.LVL259:
.LM867:
	bne	a0,zero,.L240
.LM868:
	lw	a5,12(sp)
	bne	a5,zero,.L280
.L240:
.LM869:
.LM870:
	call	vTaskEnterCritical
.LVL260:
.LBB155:
.LM871:
.LM872:
	lw	a5,56(s0)
.LVL261:
.LM873:
.LM874:
	bne	a5,zero,.L241
.LM875:
	lw	a5,12(sp)
.LVL262:
.LM876:
	sw	s1,36(sp)
	.cfi_offset 9, -12
.LM877:
.LM878:
	beq	a5,zero,.L243
.LM879:
.LM880:
	addi	a0,sp,24
	call	vTaskInternalSetTimeOutState
.LVL263:
.LM881:
.LBE155:
.LM882:
	li	s1,-1
.LVL264:
.L244:
.LBB160:
.LM883:
.LBE160:
.LM884:
	call	vTaskExitCritical
.LVL265:
.LM885:
	call	vTaskSuspendAll
.LVL266:
.LM886:
	call	vTaskEnterCritical
.LVL267:
.LM887:
.LM888:
	lbu	a5,68(s0)
	slli	a5,a5,24
	srai	a5,a5,24
.LM889:
	bne	a5,s1,.L252
.LM890:
.LM891:
	sb	zero,68(s0)
.L252:
.LM892:
.LM893:
	lbu	a5,69(s0)
	slli	a5,a5,24
	srai	a5,a5,24
.LM894:
	bne	a5,s1,.L253
.LM895:
.LM896:
	sb	zero,69(s0)
.L253:
.LM897:
	call	vTaskExitCritical
.LVL268:
.LM898:
.LM899:
	addi	a1,sp,12
	addi	a0,sp,24
	call	xTaskCheckForTimeOut
.LVL269:
.LM900:
	bne	a0,zero,.L254
.LM901:
.LVL270:
.LBB161:
.LBI161:
.LM902:
.LBB162:
.LM903:
.LM904:
	call	vTaskEnterCritical
.LVL271:
.LM905:
.LM906:
	lw	a5,56(s0)
.LM907:
	beq	a5,zero,.L255
.LM908:
.LVL272:
.LM909:
	call	vTaskExitCritical
.LVL273:
.LM910:
.LM911:
.LBE162:
.LBE161:
.LM912:
	mv	a0,s0
	call	prvUnlockQueue
.LVL274:
.LM913:
.LM914:
	call	xTaskResumeAll
.LVL275:
.L256:
.LM915:
.LM916:
	call	vTaskEnterCritical
.LVL276:
.LBB164:
.LM917:
.LM918:
	lw	a5,56(s0)
.LVL277:
.LM919:
.LM920:
	bne	a5,zero,.L277
.LM921:
.LM922:
	lw	a5,12(sp)
.LVL278:
.LM923:
	bne	a5,zero,.L244
.LVL279:
.L243:
.LM924:
	call	vTaskExitCritical
.LVL280:
.LM925:
.LM926:
.LBE164:
.LM927:
	lw	ra,44(sp)
	.cfi_remember_state
	.cfi_restore 1
	lw	s0,40(sp)
	.cfi_restore 8
.LVL281:
.LBB165:
.LM928:
	lw	s1,36(sp)
	.cfi_restore 9
.LBE165:
.LM929:
	lw	s2,32(sp)
	.cfi_restore 18
.LVL282:
.LBB166:
.LM930:
	li	a0,0
.LBE166:
.LM931:
	addi	sp,sp,48
	.cfi_def_cfa_offset 0
	jr	ra
.LVL283:
.L254:
	.cfi_restore_state
.LM932:
	mv	a0,s0
	call	prvUnlockQueue
.LVL284:
.LM933:
.LM934:
	call	xTaskResumeAll
.LVL285:
.LM935:
.LBB167:
.LBI167:
.LM936:
.LBB168:
.LM937:
.LM938:
	call	vTaskEnterCritical
.LVL286:
.LM939:
.LM940:
	lw	a5,56(s0)
.LM941:
	beq	a5,zero,.L243
.LM942:
.LVL287:
.LM943:
	call	vTaskExitCritical
.LVL288:
.LM944:
.LM945:
.LBE168:
.LBE167:
	j	.L256
.LVL289:
.L255:
.LBB169:
.LBB163:
.LM946:
	call	vTaskExitCritical
.LVL290:
.LM947:
.LM948:
.LBE163:
.LBE169:
.LM949:
.LM950:
	lw	a1,12(sp)
	addi	a0,s0,36
	call	vTaskPlaceOnEventList
.LVL291:
.LM951:
	mv	a0,s0
	call	prvUnlockQueue
.LVL292:
.LM952:
.LM953:
	call	xTaskResumeAll
.LVL293:
.LM954:
	bne	a0,zero,.L256
.LM955:
 #APP
# 1388 "/home/shivani/bl602_iot_sdk/components/freertos/queue.c" 1
	ecall
# 0 "" 2
.LM956:
 #NO_APP
	j	.L256
.LVL294:
.L279:
	.cfi_restore 9
.LM957:
	lw	a5,64(s0)
	beq	a5,zero,.L239
.LM958:
	call	vAssertCalled
.LVL295:
	j	.L239
.LVL296:
.L278:
.LM959:
	call	vAssertCalled
.LVL297:
.LM960:
	j	.L238
.L280:
.LM961:
	call	vAssertCalled
.LVL298:
	j	.L240
.LVL299:
.L277:
	.cfi_offset 9, -12
.LM962:
	lw	s1,36(sp)
	.cfi_restore 9
.LVL300:
.L241:
.LBB170:
.LM963:
.LBB156:
.LBI156:
.LM964:
.LBB157:
.LM965:
.LM966:
	lw	a2,64(s0)
.LM967:
	beq	a2,zero,.L245
.LM968:
.LM969:
	lw	a1,12(s0)
.LM970:
	lw	a4,8(s0)
.LM971:
	add	a1,a1,a2
	sw	a1,12(s0)
.LM972:
.LM973:
	bgeu	a1,a4,.L281
.L246:
.LM974:
	mv	a0,s2
	sw	a5,8(sp)
.LM975:
.LM976:
.LM977:
	call	memcpy
.LVL301:
.LM978:
	lw	a5,8(sp)
.LVL302:
.L245:
.LM979:
.LBE157:
.LBE156:
.LM980:
.LM981:
.LM982:
	addi	a5,a5,-1
.LM983:
	sw	a5,56(s0)
.LM984:
.LM985:
	lw	a5,16(s0)
.LM986:
	bne	a5,zero,.L282
.L248:
.LM987:
.LM988:
	call	vTaskExitCritical
.LVL303:
.LM989:
.LBE170:
.LM990:
	lw	ra,44(sp)
	.cfi_remember_state
	.cfi_restore 1
	lw	s0,40(sp)
	.cfi_restore 8
.LVL304:
.LM991:
	lw	s2,32(sp)
	.cfi_restore 18
.LVL305:
.LBB171:
.LM992:
	li	a0,1
.LBE171:
.LM993:
	addi	sp,sp,48
	.cfi_def_cfa_offset 0
	jr	ra
.LVL306:
.L281:
	.cfi_restore_state
.LBB172:
.LBB159:
.LBB158:
.LM994:
.LM995:
	lw	a1,0(s0)
.LM996:
	sw	a1,12(s0)
	j	.L246
.LVL307:
.L282:
.LM997:
.LBE158:
.LBE159:
.LM998:
.LM999:
	addi	a0,s0,16
	call	xTaskRemoveFromEventList
.LVL308:
.LM1000:
	beq	a0,zero,.L248
.LM1001:
 #APP
# 1329 "/home/shivani/bl602_iot_sdk/components/freertos/queue.c" 1
	ecall
# 0 "" 2
.LM1002:
 #NO_APP
	j	.L248
.LBE172:
	.cfi_endproc
.LFE16:
	.size	xQueueReceive, .-xQueueReceive
	.section	.text.xQueueSemaphoreTake,"ax",@progbits
	.align	1
	.globl	xQueueSemaphoreTake
	.type	xQueueSemaphoreTake, @function
xQueueSemaphoreTake:
.LVL309:
.LFB17:
.LM1003:
	.cfi_startproc
.LM1004:
.LM1005:
.LM1006:
.LM1007:
	addi	sp,sp,-48
	.cfi_def_cfa_offset 48
	sw	s0,40(sp)
	sw	ra,44(sp)
	sw	a1,12(sp)
	.cfi_offset 8, -8
	.cfi_offset 1, -4
	mv	s0,a0
.LVL310:
.LM1008:
.LM1009:
.LM1010:
	beq	a0,zero,.L333
.LVL311:
.L284:
.LM1011:
.LM1012:
	lw	a5,64(s0)
	bne	a5,zero,.L334
.L285:
.LM1013:
.LM1014:
	call	xTaskGetSchedulerState
.LVL312:
.LM1015:
	bne	a0,zero,.L286
.LM1016:
	lw	a5,12(sp)
	bne	a5,zero,.L335
.L286:
.LM1017:
.LM1018:
	call	vTaskEnterCritical
.LVL313:
.LBB173:
.LM1019:
.LM1020:
	lw	a5,56(s0)
.LVL314:
.LM1021:
.LM1022:
	bne	a5,zero,.L287
.LM1023:
	lw	a5,12(sp)
.LVL315:
.LM1024:
	sw	s1,36(sp)
	sw	s2,32(sp)
	.cfi_offset 9, -12
	.cfi_offset 18, -16
.LM1025:
.LM1026:
	beq	a5,zero,.L332
.LM1027:
.LM1028:
	addi	a0,sp,24
	call	vTaskInternalSetTimeOutState
.LVL316:
.LM1029:
.LM1030:
	li	s2,0
.LBE173:
.LM1031:
	li	s1,-1
.LVL317:
.L290:
.LBB174:
.LM1032:
.LBE174:
.LM1033:
	call	vTaskExitCritical
.LVL318:
.LM1034:
	call	vTaskSuspendAll
.LVL319:
.LM1035:
	call	vTaskEnterCritical
.LVL320:
.LM1036:
.LM1037:
	lbu	a5,68(s0)
	slli	a5,a5,24
	srai	a5,a5,24
.LM1038:
	bne	a5,s1,.L299
.LM1039:
.LM1040:
	sb	zero,68(s0)
.L299:
.LM1041:
.LM1042:
	lbu	a5,69(s0)
	slli	a5,a5,24
	srai	a5,a5,24
.LM1043:
	bne	a5,s1,.L300
.LM1044:
.LM1045:
	sb	zero,69(s0)
.L300:
.LM1046:
	call	vTaskExitCritical
.LVL321:
.LM1047:
.LM1048:
	addi	a1,sp,12
	addi	a0,sp,24
	call	xTaskCheckForTimeOut
.LVL322:
.LM1049:
	bne	a0,zero,.L301
.LM1050:
.LVL323:
.LBB175:
.LBI175:
.LM1051:
.LBB176:
.LM1052:
.LM1053:
	call	vTaskEnterCritical
.LVL324:
.LM1054:
.LM1055:
	lw	a5,56(s0)
.LM1056:
	beq	a5,zero,.L302
.LM1057:
.LVL325:
.LM1058:
	call	vTaskExitCritical
.LVL326:
.LM1059:
.LM1060:
.LBE176:
.LBE175:
.LM1061:
	mv	a0,s0
	call	prvUnlockQueue
.LVL327:
.LM1062:
.LM1063:
	call	xTaskResumeAll
.LVL328:
.L306:
.LM1064:
.LM1065:
	call	vTaskEnterCritical
.LVL329:
.LBB178:
.LM1066:
.LM1067:
	lw	a5,56(s0)
.LVL330:
.LM1068:
.LM1069:
	bne	a5,zero,.L331
.LM1070:
.LM1071:
	lw	a5,12(sp)
.LVL331:
.LM1072:
	bne	a5,zero,.L290
.LM1073:
.LM1074:
	bne	s2,zero,.L336
.LVL332:
.L332:
.LM1075:
.LBE178:
.LM1076:
	call	vTaskExitCritical
.LVL333:
	j	.L298
.LVL334:
.L301:
.LM1077:
	mv	a0,s0
	call	prvUnlockQueue
.LVL335:
.LM1078:
.LM1079:
	call	xTaskResumeAll
.LVL336:
.LM1080:
.LBB179:
.LBI179:
.LM1081:
.LBB180:
.LM1082:
.LM1083:
	call	vTaskEnterCritical
.LVL337:
.LM1084:
.LM1085:
	lw	a5,56(s0)
.LM1086:
	bne	a5,zero,.L307
.LVL338:
.LM1087:
	call	vTaskExitCritical
.LVL339:
.LM1088:
.LM1089:
.LBE180:
.LBE179:
.LM1090:
.LM1091:
	bne	s2,zero,.L337
.LVL340:
.L298:
.LM1092:
	lw	ra,44(sp)
	.cfi_remember_state
	.cfi_restore 1
	lw	s0,40(sp)
	.cfi_restore 8
.LVL341:
.LBB182:
.LM1093:
	lw	s1,36(sp)
	.cfi_restore 9
	lw	s2,32(sp)
	.cfi_restore 18
	li	a0,0
.LBE182:
.LM1094:
	addi	sp,sp,48
	.cfi_def_cfa_offset 0
	jr	ra
.LVL342:
.L302:
	.cfi_restore_state
.LBB183:
.LBB177:
.LM1095:
	call	vTaskExitCritical
.LVL343:
.LM1096:
.LM1097:
.LBE177:
.LBE183:
.LM1098:
.LM1099:
.LM1100:
	lw	a5,0(s0)
	beq	a5,zero,.L338
.L304:
.LVL344:
.LM1101:
.LM1102:
	lw	a1,12(sp)
	addi	a0,s0,36
	call	vTaskPlaceOnEventList
.LVL345:
.LM1103:
	mv	a0,s0
	call	prvUnlockQueue
.LVL346:
.LM1104:
.LM1105:
	call	xTaskResumeAll
.LVL347:
.LM1106:
	bne	a0,zero,.L306
.LM1107:
 #APP
# 1579 "/home/shivani/bl602_iot_sdk/components/freertos/queue.c" 1
	ecall
# 0 "" 2
.LM1108:
 #NO_APP
	j	.L306
.LVL348:
.L307:
.LBB184:
.LBB181:
.LM1109:
.LM1110:
	call	vTaskExitCritical
.LVL349:
.LM1111:
.LM1112:
.LBE181:
.LBE184:
	j	.L306
.LVL350:
.L334:
	.cfi_restore 9
	.cfi_restore 18
.LM1113:
	call	vAssertCalled
.LVL351:
	j	.L285
.LVL352:
.L337:
	.cfi_offset 9, -12
	.cfi_offset 18, -16
.LM1114:
	call	vTaskEnterCritical
.LVL353:
.LBB185:
.LM1115:
.LM1116:
.LBB186:
.LBI186:
.LM1117:
.LBB187:
.LM1118:
.LM1119:
.LM1120:
	lw	a1,36(s0)
.LM1121:
	beq	a1,zero,.L309
.LM1122:
.LM1123:
	lw	a5,48(s0)
.LM1124:
	li	a1,32
	lw	a5,0(a5)
	sub	a1,a1,a5
.LVL354:
.L309:
.LM1125:
.LM1126:
.LBE187:
.LBE186:
.LM1127:
	lw	a0,8(s0)
	call	vTaskPriorityDisinheritAfterTimeout
.LVL355:
.LM1128:
.LBE185:
.LM1129:
	call	vTaskExitCritical
.LVL356:
	j	.L298
.LVL357:
.L335:
	.cfi_restore 9
	.cfi_restore 18
.LM1130:
	call	vAssertCalled
.LVL358:
	j	.L286
.LVL359:
.L333:
.LM1131:
	call	vAssertCalled
.LVL360:
.LM1132:
	j	.L284
.LVL361:
.L338:
	.cfi_offset 9, -12
	.cfi_offset 18, -16
.LM1133:
	call	vTaskEnterCritical
.LVL362:
.LM1134:
.LM1135:
	lw	a0,8(s0)
	call	xTaskPriorityInherit
.LVL363:
	mv	s2,a0
.LVL364:
.LM1136:
	call	vTaskExitCritical
.LVL365:
.LM1137:
	j	.L304
.LVL366:
.L331:
.LM1138:
	lw	s1,36(sp)
	.cfi_restore 9
	lw	s2,32(sp)
	.cfi_restore 18
.LVL367:
.L287:
.LBB188:
.LM1139:
.LM1140:
.LM1141:
	lw	a4,0(s0)
.LM1142:
	addi	a5,a5,-1
.LVL368:
.LM1143:
	sw	a5,56(s0)
.LM1144:
.LM1145:
	beq	a4,zero,.L339
.LVL369:
.L291:
.LM1146:
.LM1147:
.LM1148:
	lw	a5,16(s0)
.LM1149:
	bne	a5,zero,.L340
.L293:
.LM1150:
.LM1151:
	call	vTaskExitCritical
.LVL370:
.LM1152:
.LBE188:
.LM1153:
	lw	ra,44(sp)
	.cfi_restore 1
	lw	s0,40(sp)
	.cfi_restore 8
.LVL371:
.LBB189:
.LM1154:
	li	a0,1
.LBE189:
.LM1155:
	addi	sp,sp,48
	.cfi_def_cfa_offset 0
	jr	ra
.LVL372:
.L336:
	.cfi_def_cfa_offset 48
	.cfi_offset 1, -4
	.cfi_offset 8, -8
	.cfi_offset 9, -12
	.cfi_offset 18, -16
.LBB190:
.LM1156:
	call	vAssertCalled
.LVL373:
.LM1157:
	j	.L332
.LVL374:
.L340:
	.cfi_restore 9
	.cfi_restore 18
.LM1158:
.LM1159:
	addi	a0,s0,16
	call	xTaskRemoveFromEventList
.LVL375:
.LM1160:
	beq	a0,zero,.L293
.LM1161:
 #APP
# 1491 "/home/shivani/bl602_iot_sdk/components/freertos/queue.c" 1
	ecall
# 0 "" 2
.LM1162:
 #NO_APP
	j	.L293
.LVL376:
.L339:
.LM1163:
.LM1164:
	call	pvTaskIncrementMutexHeldCount
.LVL377:
.LM1165:
	sw	a0,8(s0)
	j	.L291
.LBE190:
	.cfi_endproc
.LFE17:
	.size	xQueueSemaphoreTake, .-xQueueSemaphoreTake
	.section	.text.xQueueTakeMutexRecursive,"ax",@progbits
	.align	1
	.globl	xQueueTakeMutexRecursive
	.type	xQueueTakeMutexRecursive, @function
xQueueTakeMutexRecursive:
.LVL378:
.LFB10:
.LM1166:
	.cfi_startproc
.LM1167:
.LM1168:
.LM1169:
	addi	sp,sp,-16
	.cfi_def_cfa_offset 16
	sw	s0,8(sp)
	sw	s2,0(sp)
	sw	ra,12(sp)
	sw	s1,4(sp)
	.cfi_offset 8, -8
	.cfi_offset 18, -16
	.cfi_offset 1, -4
	.cfi_offset 9, -12
.LM1170:
	mv	s0,a0
.LVL379:
.LM1171:
.LM1172:
	mv	s2,a1
.LM1173:
	beq	a0,zero,.L351
.LVL380:
.L342:
.LM1174:
.LM1175:
.LM1176:
	lw	s1,8(s0)
.LM1177:
	call	xTaskGetCurrentTaskHandle
.LVL381:
.LM1178:
	beq	s1,a0,.L350
.LM1179:
.LM1180:
	mv	a1,s2
	mv	a0,s0
	call	xQueueSemaphoreTake
.LVL382:
.LM1181:
.LM1182:
	beq	a0,zero,.L341
.LVL383:
.L350:
.LM1183:
.LM1184:
	lw	a5,12(s0)
.LM1185:
	li	a0,1
.LVL384:
.LM1186:
.LM1187:
.LM1188:
	addi	a5,a5,1
	sw	a5,12(s0)
.LVL385:
.L341:
.LM1189:
	lw	ra,12(sp)
	.cfi_remember_state
	.cfi_restore 1
	lw	s0,8(sp)
	.cfi_restore 8
.LVL386:
.LM1190:
	lw	s1,4(sp)
	.cfi_restore 9
	lw	s2,0(sp)
	.cfi_restore 18
.LVL387:
.LM1191:
	addi	sp,sp,16
	.cfi_def_cfa_offset 0
	jr	ra
.LVL388:
.L351:
	.cfi_restore_state
.LM1192:
	call	vAssertCalled
.LVL389:
.LM1193:
	j	.L342
	.cfi_endproc
.LFE10:
	.size	xQueueTakeMutexRecursive, .-xQueueTakeMutexRecursive
	.section	.text.xQueuePeek,"ax",@progbits
	.align	1
	.globl	xQueuePeek
	.type	xQueuePeek, @function
xQueuePeek:
.LVL390:
.LFB18:
.LM1194:
	.cfi_startproc
.LM1195:
.LM1196:
.LM1197:
.LM1198:
.LM1199:
	addi	sp,sp,-48
	.cfi_def_cfa_offset 48
	sw	s0,40(sp)
	sw	s2,32(sp)
	sw	ra,44(sp)
	sw	s1,36(sp)
	.cfi_offset 8, -8
	.cfi_offset 18, -16
	.cfi_offset 1, -4
	.cfi_offset 9, -12
.LM1200:
	sw	a2,12(sp)
	mv	s0,a0
.LVL391:
.LM1201:
.LM1202:
	mv	s2,a1
.LM1203:
	beq	a0,zero,.L392
.LVL392:
.L353:
.LM1204:
.LM1205:
	beq	s2,zero,.L393
.L354:
.LM1206:
.LM1207:
	call	xTaskGetSchedulerState
.LVL393:
.LM1208:
	bne	a0,zero,.L355
.LM1209:
	lw	a5,12(sp)
	bne	a5,zero,.L394
.L355:
.LM1210:
.LM1211:
	call	vTaskEnterCritical
.LVL394:
.LBB198:
.LM1212:
.LM1213:
	lw	a5,56(s0)
.LVL395:
.LM1214:
.LM1215:
	bne	a5,zero,.L356
.LM1216:
.LM1217:
	lw	a5,12(sp)
.LVL396:
.LM1218:
	beq	a5,zero,.L358
.LM1219:
.LM1220:
	addi	a0,sp,24
	call	vTaskInternalSetTimeOutState
.LVL397:
.LM1221:
.LBE198:
.LM1222:
	li	s1,-1
.LVL398:
.L359:
.LBB205:
.LM1223:
.LBE205:
.LM1224:
	call	vTaskExitCritical
.LVL399:
.LM1225:
	call	vTaskSuspendAll
.LVL400:
.LM1226:
	call	vTaskEnterCritical
.LVL401:
.LM1227:
.LM1228:
	lbu	a5,68(s0)
	slli	a5,a5,24
	srai	a5,a5,24
.LM1229:
	bne	a5,s1,.L367
.LM1230:
.LM1231:
	sb	zero,68(s0)
.L367:
.LM1232:
.LM1233:
	lbu	a5,69(s0)
	slli	a5,a5,24
	srai	a5,a5,24
.LM1234:
	bne	a5,s1,.L368
.LM1235:
.LM1236:
	sb	zero,69(s0)
.L368:
.LM1237:
	call	vTaskExitCritical
.LVL402:
.LM1238:
.LM1239:
	addi	a1,sp,12
	addi	a0,sp,24
	call	xTaskCheckForTimeOut
.LVL403:
.LM1240:
	bne	a0,zero,.L369
.LM1241:
.LVL404:
.LBB206:
.LBI206:
.LM1242:
.LBB207:
.LM1243:
.LM1244:
	call	vTaskEnterCritical
.LVL405:
.LM1245:
.LM1246:
	lw	a5,56(s0)
.LM1247:
	beq	a5,zero,.L370
.LM1248:
.LVL406:
.LM1249:
	call	vTaskExitCritical
.LVL407:
.LM1250:
.LM1251:
.LBE207:
.LBE206:
.LM1252:
	mv	a0,s0
	call	prvUnlockQueue
.LVL408:
.LM1253:
.LM1254:
	call	xTaskResumeAll
.LVL409:
.L371:
.LM1255:
.LM1256:
	call	vTaskEnterCritical
.LVL410:
.LBB209:
.LM1257:
.LM1258:
	lw	a5,56(s0)
.LVL411:
.LM1259:
.LM1260:
	bne	a5,zero,.L356
.LM1261:
.LM1262:
	lw	a5,12(sp)
.LVL412:
.LM1263:
	bne	a5,zero,.L359
.LVL413:
.L358:
.LM1264:
	call	vTaskExitCritical
.LVL414:
.LM1265:
.LM1266:
.LBE209:
.LM1267:
	lw	ra,44(sp)
	.cfi_remember_state
	.cfi_restore 1
	lw	s0,40(sp)
	.cfi_restore 8
.LVL415:
.LM1268:
	lw	s1,36(sp)
	.cfi_restore 9
	lw	s2,32(sp)
	.cfi_restore 18
.LVL416:
.LBB210:
.LM1269:
	li	a0,0
.LBE210:
.LM1270:
	addi	sp,sp,48
	.cfi_def_cfa_offset 0
	jr	ra
.LVL417:
.L369:
	.cfi_restore_state
.LM1271:
	mv	a0,s0
	call	prvUnlockQueue
.LVL418:
.LM1272:
.LM1273:
	call	xTaskResumeAll
.LVL419:
.LM1274:
.LBB211:
.LBI211:
.LM1275:
.LBB212:
.LM1276:
.LM1277:
	call	vTaskEnterCritical
.LVL420:
.LM1278:
.LM1279:
	lw	a5,56(s0)
.LM1280:
	beq	a5,zero,.L358
.LM1281:
.LVL421:
.LM1282:
	call	vTaskExitCritical
.LVL422:
.LM1283:
.LM1284:
.LBE212:
.LBE211:
	j	.L371
.LVL423:
.L370:
.LBB213:
.LBB208:
.LM1285:
	call	vTaskExitCritical
.LVL424:
.LM1286:
.LM1287:
.LBE208:
.LBE213:
.LM1288:
.LM1289:
	lw	a1,12(sp)
	addi	a0,s0,36
	call	vTaskPlaceOnEventList
.LVL425:
.LM1290:
	mv	a0,s0
	call	prvUnlockQueue
.LVL426:
.LM1291:
.LM1292:
	call	xTaskResumeAll
.LVL427:
.LM1293:
	bne	a0,zero,.L371
.LM1294:
 #APP
# 1755 "/home/shivani/bl602_iot_sdk/components/freertos/queue.c" 1
	ecall
# 0 "" 2
.LM1295:
 #NO_APP
	j	.L371
.LVL428:
.L393:
.LM1296:
	lw	a5,64(s0)
	beq	a5,zero,.L354
.LM1297:
	call	vAssertCalled
.LVL429:
	j	.L354
.LVL430:
.L392:
.LM1298:
	call	vAssertCalled
.LVL431:
.LM1299:
	j	.L353
.L394:
.LM1300:
	call	vAssertCalled
.LVL432:
	j	.L355
.LVL433:
.L356:
.LBB214:
.LM1301:
.LBB199:
.LBB200:
.LM1302:
	lw	a2,64(s0)
.LBE200:
.LBE199:
.LM1303:
	lw	s1,12(s0)
.LVL434:
.LM1304:
.LBB203:
.LBI199:
.LM1305:
.LBB201:
.LM1306:
.LM1307:
	beq	a2,zero,.L360
.LM1308:
.LM1309:
	lw	a5,8(s0)
.LVL435:
.LM1310:
	add	a1,s1,a2
	sw	a1,12(s0)
.LM1311:
.LM1312:
	bgeu	a1,a5,.L395
.L361:
.LM1313:
.LM1314:
.LM1315:
	mv	a0,s2
	call	memcpy
.LVL436:
.L360:
.LM1316:
.LBE201:
.LBE203:
.LM1317:
.LM1318:
.LM1319:
	lw	a5,36(s0)
.LM1320:
	sw	s1,12(s0)
.LM1321:
.LM1322:
	bne	a5,zero,.L396
.L363:
.LM1323:
.LM1324:
	call	vTaskExitCritical
.LVL437:
.LM1325:
.LBE214:
.LM1326:
	lw	ra,44(sp)
	.cfi_remember_state
	.cfi_restore 1
	lw	s0,40(sp)
	.cfi_restore 8
.LVL438:
.LM1327:
	lw	s1,36(sp)
	.cfi_restore 9
.LVL439:
.LM1328:
	lw	s2,32(sp)
	.cfi_restore 18
.LVL440:
.LBB215:
.LM1329:
	li	a0,1
.LBE215:
.LM1330:
	addi	sp,sp,48
	.cfi_def_cfa_offset 0
	jr	ra
.LVL441:
.L395:
	.cfi_restore_state
.LBB216:
.LBB204:
.LBB202:
.LM1331:
.LM1332:
	lw	a1,0(s0)
.LM1333:
	sw	a1,12(s0)
	j	.L361
.LVL442:
.L396:
.LM1334:
.LBE202:
.LBE204:
.LM1335:
.LM1336:
	addi	a0,s0,36
	call	xTaskRemoveFromEventList
.LVL443:
.LM1337:
	beq	a0,zero,.L363
.LM1338:
 #APP
# 1695 "/home/shivani/bl602_iot_sdk/components/freertos/queue.c" 1
	ecall
# 0 "" 2
.LM1339:
 #NO_APP
	j	.L363
.LBE216:
	.cfi_endproc
.LFE18:
	.size	xQueuePeek, .-xQueuePeek
	.section	.text.xQueueReceiveFromISR,"ax",@progbits
	.align	1
	.globl	xQueueReceiveFromISR
	.type	xQueueReceiveFromISR, @function
xQueueReceiveFromISR:
.LVL444:
.LFB19:
.LM1340:
	.cfi_startproc
.LM1341:
.LM1342:
.LM1343:
.LM1344:
	addi	sp,sp,-32
	.cfi_def_cfa_offset 32
	sw	s0,24(sp)
	mv	a5,a0
.LVL445:
.LM1345:
.LM1346:
	sw	ra,28(sp)
	.cfi_offset 8, -8
	.cfi_offset 1, -4
.LM1347:
	mv	a0,a1
.LVL446:
.LM1348:
	mv	s0,a2
.LM1349:
	beq	a5,zero,.L420
.LVL447:
.L398:
.LM1350:
.LM1351:
	beq	a0,zero,.L421
.L399:
.LM1352:
.LM1353:
.LVL448:
.LBB221:
.LM1354:
.LM1355:
	lw	a4,56(a5)
.LVL449:
.LM1356:
.LM1357:
	bne	a4,zero,.L401
.L412:
.LM1358:
.LBE221:
.LM1359:
	lw	ra,28(sp)
	.cfi_remember_state
	.cfi_restore 1
	lw	s0,24(sp)
	.cfi_restore 8
.LVL450:
.LBB231:
.LM1360:
	li	a0,0
.LBE231:
.LM1361:
	addi	sp,sp,32
	.cfi_def_cfa_offset 0
	jr	ra
.LVL451:
.L401:
	.cfi_restore_state
.LBB232:
.LBB222:
.LM1362:
.LM1363:
	lbu	a3,68(a5)
.LBB223:
.LBB224:
.LM1364:
	lw	a2,64(a5)
.LBE224:
.LBE223:
.LM1365:
	slli	a3,a3,24
	srai	a3,a3,24
.LVL452:
.LM1366:
.LM1367:
.LBB227:
.LBI223:
.LM1368:
.LBB225:
.LM1369:
.LM1370:
	beq	a2,zero,.L404
.LM1371:
.LM1372:
	lw	a1,12(a5)
.LM1373:
	lw	a6,8(a5)
.LM1374:
	add	a1,a1,a2
	sw	a1,12(a5)
.LM1375:
.LM1376:
	bltu	a1,a6,.L405
.LM1377:
.LM1378:
	lw	a1,0(a5)
.LM1379:
	sw	a1,12(a5)
.L405:
	sw	a5,12(sp)
	sw	a3,8(sp)
	sw	a4,4(sp)
.LM1380:
.LM1381:
.LM1382:
	call	memcpy
.LVL453:
.LM1383:
	lw	a5,12(sp)
	lw	a3,8(sp)
	lw	a4,4(sp)
.LVL454:
.L404:
.LM1384:
.LBE225:
.LBE227:
.LM1385:
.LM1386:
	addi	a4,a4,-1
.LM1387:
	sw	a4,56(a5)
.LM1388:
.LM1389:
	li	a4,-1
	beq	a3,a4,.L422
.LM1390:
.LM1391:
	addi	a3,a3,1
.LM1392:
	sb	a3,68(a5)
.L409:
.LM1393:
	li	a0,1
.L424:
.LBE222:
.LBE232:
.LM1394:
	lw	ra,28(sp)
	.cfi_remember_state
	.cfi_restore 1
	lw	s0,24(sp)
	.cfi_restore 8
.LVL455:
.LM1395:
	addi	sp,sp,32
	.cfi_def_cfa_offset 0
	jr	ra
.LVL456:
.L421:
	.cfi_restore_state
.LM1396:
	lw	a4,64(a5)
	bne	a4,zero,.L423
.LM1397:
.LM1398:
.LVL457:
.LBB233:
.LM1399:
.LM1400:
	lw	a4,56(a5)
.LVL458:
.LM1401:
.LM1402:
	beq	a4,zero,.L412
.LBB229:
.LM1403:
.LM1404:
	lbu	a3,68(a5)
	slli	a3,a3,24
	srai	a3,a3,24
.LVL459:
.LM1405:
.LM1406:
.LBB228:
.LM1407:
.LBB226:
.LM1408:
	j	.L404
.LVL460:
.L420:
.LM1409:
	sw	a5,4(sp)
.LBE226:
.LBE228:
.LBE229:
.LBE233:
.LM1410:
	sw	a1,8(sp)
	call	vAssertCalled
.LVL461:
.LM1411:
	lw	a0,8(sp)
	lw	a5,4(sp)
	j	.L398
.LVL462:
.L422:
.LBB234:
.LBB230:
.LM1412:
.LM1413:
	lw	a4,16(a5)
.LM1414:
	beq	a4,zero,.L409
.LM1415:
.LM1416:
	addi	a0,a5,16
	call	xTaskRemoveFromEventList
.LVL463:
.LM1417:
.LM1418:
	beq	s0,zero,.L409
	beq	a0,zero,.L409
.LM1419:
.LM1420:
	li	a5,1
	sw	a5,0(s0)
.LM1421:
	li	a0,1
	j	.L424
.LVL464:
.L423:
.LM1422:
	sw	a0,8(sp)
	sw	a5,4(sp)
.LBE230:
.LBE234:
.LM1423:
	call	vAssertCalled
.LVL465:
	lw	a0,8(sp)
	lw	a5,4(sp)
	j	.L399
	.cfi_endproc
.LFE19:
	.size	xQueueReceiveFromISR, .-xQueueReceiveFromISR
	.section	.text.xQueuePeekFromISR,"ax",@progbits
	.align	1
	.globl	xQueuePeekFromISR
	.type	xQueuePeekFromISR, @function
xQueuePeekFromISR:
.LVL466:
.LFB20:
.LM1424:
	.cfi_startproc
.LM1425:
.LM1426:
.LM1427:
.LM1428:
.LM1429:
	addi	sp,sp,-32
	.cfi_def_cfa_offset 32
	mv	a5,a0
.LVL467:
.LM1430:
.LM1431:
	sw	ra,28(sp)
	.cfi_offset 1, -4
.LM1432:
	mv	a0,a1
.LVL468:
.LM1433:
	beq	a5,zero,.L446
.LVL469:
.L426:
.LM1434:
.LM1435:
	beq	a0,zero,.L447
.L427:
.LM1436:
.LM1437:
	lw	a2,64(a5)
.LM1438:
	beq	a2,zero,.L431
.LM1439:
.LM1440:
.LVL470:
.LM1441:
.LM1442:
	lw	a4,56(a5)
.LM1443:
	bne	a4,zero,.L448
.L430:
.LM1444:
	lw	ra,28(sp)
	.cfi_remember_state
	.cfi_restore 1
.LM1445:
	li	a0,0
.LM1446:
	addi	sp,sp,32
	.cfi_def_cfa_offset 0
	jr	ra
.LVL471:
.L447:
	.cfi_restore_state
.LM1447:
	lw	a4,64(a5)
	bne	a4,zero,.L428
.L431:
	sw	a0,12(sp)
	sw	a5,8(sp)
.LM1448:
	call	vAssertCalled
.LVL472:
.LM1449:
.LM1450:
.LM1451:
.LM1452:
	lw	a5,8(sp)
.LM1453:
	lw	a0,12(sp)
.LM1454:
	lw	a4,56(a5)
.LM1455:
	beq	a4,zero,.L430
.LM1456:
.LM1457:
.LBB237:
.LBB238:
.LM1458:
	lw	a2,64(a5)
.LBE238:
.LBE237:
.LM1459:
	lw	a4,12(a5)
.LVL473:
.LM1460:
.LBB241:
.LBI237:
.LM1461:
.LBB239:
.LM1462:
.LM1463:
	bne	a2,zero,.L436
.LVL474:
.L434:
.LM1464:
.LBE239:
.LBE241:
.LM1465:
.LM1466:
	sw	a4,12(a5)
.LM1467:
.LVL475:
.LM1468:
	lw	ra,28(sp)
	.cfi_remember_state
	.cfi_restore 1
.LM1469:
	li	a0,1
.LM1470:
.LM1471:
.LM1472:
.LM1473:
	addi	sp,sp,32
	.cfi_def_cfa_offset 0
	jr	ra
.LVL476:
.L446:
	.cfi_restore_state
.LM1474:
	sw	a5,8(sp)
.LM1475:
	sw	a1,12(sp)
	call	vAssertCalled
.LVL477:
.LM1476:
	lw	a0,12(sp)
	lw	a5,8(sp)
	j	.L426
.LVL478:
.L448:
.LM1477:
.LM1478:
.LM1479:
	lw	a4,12(a5)
.LVL479:
.LM1480:
.LBB242:
.LM1481:
.LBB240:
.LM1482:
.L436:
.LM1483:
.LM1484:
	lw	a3,8(a5)
.LM1485:
	add	a1,a4,a2
	sw	a1,12(a5)
.LM1486:
.LM1487:
	bltu	a1,a3,.L435
.LM1488:
.LM1489:
	lw	a1,0(a5)
.LM1490:
	sw	a1,12(a5)
.L435:
	sw	a5,12(sp)
	sw	a4,8(sp)
.LM1491:
.LM1492:
.LM1493:
	call	memcpy
.LVL480:
.LM1494:
	lw	a5,12(sp)
	lw	a4,8(sp)
	j	.L434
.LVL481:
.L428:
.LM1495:
	sw	a0,12(sp)
	sw	a5,8(sp)
.LBE240:
.LBE242:
.LM1496:
	call	vAssertCalled
.LVL482:
	lw	a0,12(sp)
	lw	a5,8(sp)
	j	.L427
	.cfi_endproc
.LFE20:
	.size	xQueuePeekFromISR, .-xQueuePeekFromISR
	.section	.text.uxQueueMessagesWaiting,"ax",@progbits
	.align	1
	.globl	uxQueueMessagesWaiting
	.type	uxQueueMessagesWaiting, @function
uxQueueMessagesWaiting:
.LVL483:
.LFB21:
.LM1497:
	.cfi_startproc
.LM1498:
.LM1499:
.LM1500:
	addi	sp,sp,-16
	.cfi_def_cfa_offset 16
	sw	s0,8(sp)
	sw	ra,12(sp)
	.cfi_offset 8, -8
	.cfi_offset 1, -4
.LM1501:
	mv	s0,a0
.LM1502:
	beq	a0,zero,.L452
.LVL484:
.L450:
.LM1503:
	call	vTaskEnterCritical
.LVL485:
.LM1504:
.LM1505:
	lw	s0,56(s0)
.LVL486:
.LM1506:
	call	vTaskExitCritical
.LVL487:
.LM1507:
.LM1508:
	lw	ra,12(sp)
	.cfi_remember_state
	.cfi_restore 1
	mv	a0,s0
	lw	s0,8(sp)
	.cfi_restore 8
.LVL488:
.LM1509:
	addi	sp,sp,16
	.cfi_def_cfa_offset 0
	jr	ra
.LVL489:
.L452:
	.cfi_restore_state
.LM1510:
	call	vAssertCalled
.LVL490:
	j	.L450
	.cfi_endproc
.LFE21:
	.size	uxQueueMessagesWaiting, .-uxQueueMessagesWaiting
	.section	.text.uxQueueSpacesAvailable,"ax",@progbits
	.align	1
	.globl	uxQueueSpacesAvailable
	.type	uxQueueSpacesAvailable, @function
uxQueueSpacesAvailable:
.LVL491:
.LFB22:
.LM1511:
	.cfi_startproc
.LM1512:
.LM1513:
.LM1514:
	addi	sp,sp,-16
	.cfi_def_cfa_offset 16
	sw	s0,8(sp)
	sw	ra,12(sp)
	.cfi_offset 8, -8
	.cfi_offset 1, -4
.LM1515:
	mv	s0,a0
.LVL492:
.LM1516:
.LM1517:
	beq	a0,zero,.L456
.LVL493:
.L454:
.LM1518:
	call	vTaskEnterCritical
.LVL494:
.LM1519:
.LM1520:
	lw	a5,56(s0)
.LM1521:
	lw	s0,60(s0)
.LVL495:
.LM1522:
	sub	s0,s0,a5
.LVL496:
.LM1523:
	call	vTaskExitCritical
.LVL497:
.LM1524:
.LM1525:
	lw	ra,12(sp)
	.cfi_remember_state
	.cfi_restore 1
	mv	a0,s0
	lw	s0,8(sp)
	.cfi_restore 8
.LVL498:
.LM1526:
	addi	sp,sp,16
	.cfi_def_cfa_offset 0
	jr	ra
.LVL499:
.L456:
	.cfi_restore_state
.LM1527:
	call	vAssertCalled
.LVL500:
	j	.L454
	.cfi_endproc
.LFE22:
	.size	uxQueueSpacesAvailable, .-uxQueueSpacesAvailable
	.section	.text.uxQueueMessagesWaitingFromISR,"ax",@progbits
	.align	1
	.globl	uxQueueMessagesWaitingFromISR
	.type	uxQueueMessagesWaitingFromISR, @function
uxQueueMessagesWaitingFromISR:
.LVL501:
.LFB23:
.LM1528:
	.cfi_startproc
.LM1529:
.LM1530:
.LM1531:
.LM1532:
	beq	a0,zero,.L463
.LM1533:
.LM1534:
	lw	a0,56(a0)
.LVL502:
.LM1535:
.LM1536:
	ret
.LVL503:
.L463:
.LM1537:
	addi	sp,sp,-32
	.cfi_def_cfa_offset 32
	sw	ra,28(sp)
	.cfi_offset 1, -4
	sw	a0,12(sp)
.LM1538:
	call	vAssertCalled
.LVL504:
.LM1539:
	lw	a0,12(sp)
.LM1540:
.LM1541:
	lw	ra,28(sp)
	.cfi_restore 1
.LM1542:
	lw	a0,56(a0)
.LVL505:
.LM1543:
.LM1544:
	addi	sp,sp,32
	.cfi_def_cfa_offset 0
.LVL506:
.LM1545:
	jr	ra
	.cfi_endproc
.LFE23:
	.size	uxQueueMessagesWaitingFromISR, .-uxQueueMessagesWaitingFromISR
	.section	.text.vQueueDelete,"ax",@progbits
	.align	1
	.globl	vQueueDelete
	.type	vQueueDelete, @function
vQueueDelete:
.LVL507:
.LFB24:
.LM1546:
	.cfi_startproc
.LM1547:
.LM1548:
.LM1549:
	beq	a0,zero,.L481
.LM1550:
.LM1551:
.LVL508:
.LBB245:
.LBI245:
.LM1552:
.LBB246:
.LM1553:
.LM1554:
.LM1555:
	lui	a1,%hi(xQueueRegistry)
	addi	a1,a1,%lo(xQueueRegistry)
	mv	a4,a1
.LM1556:
	li	a5,0
.LM1557:
	li	a2,8
.LVL509:
.L473:
.LM1558:
.LM1559:
.LM1560:
.LM1561:
	lw	a3,4(a4)
.LM1562:
	addi	a4,a4,8
.LM1563:
	beq	a0,a3,.L482
.LM1564:
	addi	a5,a5,1
.LVL510:
.LM1565:
	bne	a5,a2,.L473
.LVL511:
.L476:
.LM1566:
.LBE246:
.LBE245:
.LM1567:
.LM1568:
	lbu	a5,70(a0)
	beq	a5,zero,.L483
	ret
.L483:
.LM1569:
	tail	vPortFree
.LVL512:
.L482:
.LBB250:
.LBB247:
.LM1570:
.LM1571:
	slli	a5,a5,3
.LVL513:
.LM1572:
	add	a1,a1,a5
	sw	zero,0(a1)
.LM1573:
.LM1574:
	sw	zero,4(a1)
.LM1575:
	j	.L476
.LVL514:
.L481:
.LM1576:
.LBE247:
.LBE250:
.LM1577:
	addi	sp,sp,-32
	.cfi_def_cfa_offset 32
	sw	a0,12(sp)
.LM1578:
.LM1579:
	sw	ra,28(sp)
	.cfi_offset 1, -4
.LM1580:
	call	vAssertCalled
.LVL515:
.LM1581:
	lui	a1,%hi(xQueueRegistry)
	lw	a0,12(sp)
.LM1582:
.LM1583:
.LVL516:
.LBB251:
.LM1584:
.LBB248:
.LM1585:
.LM1586:
.LM1587:
	addi	a1,a1,%lo(xQueueRegistry)
	mv	a4,a1
.LM1588:
	li	a5,0
.LM1589:
	li	a2,8
.LVL517:
.L468:
.LM1590:
.LM1591:
.LM1592:
.LM1593:
	lw	a3,4(a4)
.LM1594:
	addi	a4,a4,8
.LM1595:
	beq	a0,a3,.L484
.LM1596:
	addi	a5,a5,1
.LVL518:
.LM1597:
	bne	a5,a2,.L468
.LVL519:
.L467:
.LM1598:
.LBE248:
.LBE251:
.LM1599:
.LM1600:
	lbu	a5,70(a0)
	beq	a5,zero,.L485
.LM1601:
	lw	ra,28(sp)
	.cfi_remember_state
	.cfi_restore 1
	addi	sp,sp,32
	.cfi_def_cfa_offset 0
.LVL520:
.LM1602:
	jr	ra
.LVL521:
.L485:
	.cfi_restore_state
.LM1603:
.LM1604:
	lw	ra,28(sp)
	.cfi_remember_state
	.cfi_restore 1
	addi	sp,sp,32
	.cfi_def_cfa_offset 0
.LVL522:
.LM1605:
	tail	vPortFree
.LVL523:
.L484:
	.cfi_restore_state
.LBB252:
.LBB249:
.LM1606:
.LM1607:
	slli	a5,a5,3
.LVL524:
.LM1608:
	add	a1,a1,a5
	sw	zero,0(a1)
.LM1609:
.LM1610:
	sw	zero,4(a1)
.LM1611:
	j	.L467
.LBE249:
.LBE252:
	.cfi_endproc
.LFE24:
	.size	vQueueDelete, .-vQueueDelete
	.section	.text.uxQueueGetQueueNumber,"ax",@progbits
	.align	1
	.globl	uxQueueGetQueueNumber
	.type	uxQueueGetQueueNumber, @function
uxQueueGetQueueNumber:
.LVL525:
.LFB25:
.LM1612:
	.cfi_startproc
.LM1613:
.LM1614:
	lw	a0,72(a0)
.LVL526:
.LM1615:
	ret
	.cfi_endproc
.LFE25:
	.size	uxQueueGetQueueNumber, .-uxQueueGetQueueNumber
	.section	.text.vQueueSetQueueNumber,"ax",@progbits
	.align	1
	.globl	vQueueSetQueueNumber
	.type	vQueueSetQueueNumber, @function
vQueueSetQueueNumber:
.LVL527:
.LFB26:
.LM1616:
	.cfi_startproc
.LM1617:
.LM1618:
	sw	a1,72(a0)
.LM1619:
	ret
	.cfi_endproc
.LFE26:
	.size	vQueueSetQueueNumber, .-vQueueSetQueueNumber
	.section	.text.ucQueueGetQueueType,"ax",@progbits
	.align	1
	.globl	ucQueueGetQueueType
	.type	ucQueueGetQueueType, @function
ucQueueGetQueueType:
.LVL528:
.LFB27:
.LM1620:
	.cfi_startproc
.LM1621:
.LM1622:
	lbu	a0,76(a0)
.LVL529:
.LM1623:
	ret
	.cfi_endproc
.LFE27:
	.size	ucQueueGetQueueType, .-ucQueueGetQueueType
	.section	.text.xQueueIsQueueEmptyFromISR,"ax",@progbits
	.align	1
	.globl	xQueueIsQueueEmptyFromISR
	.type	xQueueIsQueueEmptyFromISR, @function
xQueueIsQueueEmptyFromISR:
.LVL530:
.LFB33:
.LM1624:
	.cfi_startproc
.LM1625:
.LM1626:
.LM1627:
.LM1628:
	beq	a0,zero,.L495
.LM1629:
.LM1630:
	lw	a0,56(a0)
.LVL531:
.LM1631:
.LM1632:
	seqz	a0,a0
.LVL532:
.LM1633:
	ret
.LVL533:
.L495:
.LM1634:
	addi	sp,sp,-32
	.cfi_def_cfa_offset 32
	sw	ra,28(sp)
	.cfi_offset 1, -4
	sw	a0,12(sp)
.LM1635:
	call	vAssertCalled
.LVL534:
.LM1636:
.LM1637:
	lw	a0,12(sp)
.LM1638:
	lw	ra,28(sp)
	.cfi_restore 1
.LM1639:
	lw	a0,56(a0)
.LVL535:
.LM1640:
.LM1641:
	addi	sp,sp,32
	.cfi_def_cfa_offset 0
.LVL536:
.LM1642:
	seqz	a0,a0
.LVL537:
.LM1643:
	jr	ra
	.cfi_endproc
.LFE33:
	.size	xQueueIsQueueEmptyFromISR, .-xQueueIsQueueEmptyFromISR
	.section	.text.xQueueIsQueueFullFromISR,"ax",@progbits
	.align	1
	.globl	xQueueIsQueueFullFromISR
	.type	xQueueIsQueueFullFromISR, @function
xQueueIsQueueFullFromISR:
.LVL538:
.LFB35:
.LM1644:
	.cfi_startproc
.LM1645:
.LM1646:
.LM1647:
.LM1648:
	beq	a0,zero,.L502
.LM1649:
.LM1650:
	lw	a5,56(a0)
.LVL539:
.LM1651:
.LM1652:
	lw	a0,60(a0)
.LVL540:
.LM1653:
	sub	a0,a0,a5
.LVL541:
.LM1654:
	seqz	a0,a0
	ret
.LVL542:
.L502:
.LM1655:
	addi	sp,sp,-32
	.cfi_def_cfa_offset 32
	sw	ra,28(sp)
	.cfi_offset 1, -4
	sw	a0,12(sp)
.LM1656:
	call	vAssertCalled
.LVL543:
.LM1657:
.LM1658:
	lw	a0,12(sp)
.LM1659:
	lw	ra,28(sp)
	.cfi_restore 1
.LM1660:
	lw	a5,56(a0)
.LVL544:
.LM1661:
.LM1662:
	lw	a0,60(a0)
.LVL545:
.LM1663:
	addi	sp,sp,32
	.cfi_def_cfa_offset 0
.LVL546:
.LM1664:
	sub	a0,a0,a5
.LVL547:
.LM1665:
	seqz	a0,a0
	jr	ra
	.cfi_endproc
.LFE35:
	.size	xQueueIsQueueFullFromISR, .-xQueueIsQueueFullFromISR
	.section	.text.vQueueAddToRegistry,"ax",@progbits
	.align	1
	.globl	vQueueAddToRegistry
	.type	vQueueAddToRegistry, @function
vQueueAddToRegistry:
.LVL548:
.LFB36:
.LM1666:
	.cfi_startproc
.LM1667:
.LM1668:
.LM1669:
	lui	a6,%hi(xQueueRegistry)
	addi	a6,a6,%lo(xQueueRegistry)
	mv	a4,a6
.LM1670:
	li	a5,0
.LM1671:
	li	a2,8
.LVL549:
.L506:
.LM1672:
.LM1673:
.LM1674:
.LM1675:
	lw	a3,0(a4)
.LM1676:
	addi	a4,a4,8
.LM1677:
	beq	a3,zero,.L508
.LM1678:
	addi	a5,a5,1
.LVL550:
.LM1679:
	bne	a5,a2,.L506
.LM1680:
	ret
.L508:
.LM1681:
.LM1682:
	slli	a5,a5,3
.LVL551:
.LM1683:
	add	a6,a6,a5
	sw	a1,0(a6)
.LM1684:
.LM1685:
	sw	a0,4(a6)
.LM1686:
.LM1687:
	ret
	.cfi_endproc
.LFE36:
	.size	vQueueAddToRegistry, .-vQueueAddToRegistry
	.section	.text.pcQueueGetName,"ax",@progbits
	.align	1
	.globl	pcQueueGetName
	.type	pcQueueGetName, @function
pcQueueGetName:
.LVL552:
.LFB37:
.LM1688:
	.cfi_startproc
.LM1689:
.LM1690:
.LM1691:
.LM1692:
	lui	a1,%hi(xQueueRegistry)
	addi	a1,a1,%lo(xQueueRegistry)
	mv	a4,a1
.LM1693:
	li	a5,0
.LM1694:
	li	a2,8
.LVL553:
.L512:
.LM1695:
.LM1696:
.LM1697:
.LM1698:
	lw	a3,4(a4)
.LM1699:
	addi	a4,a4,8
.LM1700:
	beq	a3,a0,.L514
.LM1701:
	addi	a5,a5,1
.LVL554:
.LM1702:
	bne	a5,a2,.L512
.LM1703:
	li	a0,0
.LVL555:
.LM1704:
.LM1705:
	ret
.LVL556:
.L514:
.LM1706:
.LM1707:
	slli	a5,a5,3
.LVL557:
.LM1708:
	add	a1,a1,a5
	lw	a0,0(a1)
.LVL558:
.LM1709:
	ret
	.cfi_endproc
.LFE37:
	.size	pcQueueGetName, .-pcQueueGetName
	.section	.text.vQueueUnregisterQueue,"ax",@progbits
	.align	1
	.globl	vQueueUnregisterQueue
	.type	vQueueUnregisterQueue, @function
vQueueUnregisterQueue:
.LVL559:
.LFB38:
.LM1710:
	.cfi_startproc
.LM1711:
.LM1712:
.LM1713:
	lui	a1,%hi(xQueueRegistry)
	addi	a1,a1,%lo(xQueueRegistry)
	mv	a4,a1
.LM1714:
	li	a5,0
.LM1715:
	li	a2,8
.LVL560:
.L518:
.LM1716:
.LM1717:
.LM1718:
.LM1719:
	lw	a3,4(a4)
.LM1720:
	addi	a4,a4,8
.LM1721:
	beq	a3,a0,.L520
.LM1722:
	addi	a5,a5,1
.LVL561:
.LM1723:
	bne	a5,a2,.L518
.LM1724:
	ret
.L520:
.LM1725:
.LM1726:
	slli	a5,a5,3
.LVL562:
.LM1727:
	add	a1,a1,a5
	sw	zero,0(a1)
.LM1728:
.LM1729:
	sw	zero,4(a1)
.LM1730:
	ret
	.cfi_endproc
.LFE38:
	.size	vQueueUnregisterQueue, .-vQueueUnregisterQueue
	.section	.text.vQueueWaitForMessageRestricted,"ax",@progbits
	.align	1
	.globl	vQueueWaitForMessageRestricted
	.type	vQueueWaitForMessageRestricted, @function
vQueueWaitForMessageRestricted:
.LVL563:
.LFB39:
.LM1731:
	.cfi_startproc
.LM1732:
.LM1733:
	addi	sp,sp,-16
	.cfi_def_cfa_offset 16
	sw	s0,8(sp)
	sw	s1,4(sp)
	sw	s2,0(sp)
	.cfi_offset 8, -8
	.cfi_offset 9, -12
	.cfi_offset 18, -16
	mv	s0,a0
.LVL564:
.LM1734:
.LM1735:
	sw	ra,12(sp)
	.cfi_offset 1, -4
.LM1736:
	mv	s1,a1
	mv	s2,a2
.LM1737:
	call	vTaskEnterCritical
.LVL565:
.LM1738:
.LM1739:
	lbu	a5,68(s0)
.LM1740:
	li	a4,-1
.LM1741:
	slli	a5,a5,24
	srai	a5,a5,24
.LM1742:
	bne	a5,a4,.L522
.LM1743:
.LM1744:
	sb	zero,68(s0)
.L522:
.LM1745:
.LM1746:
	lbu	a5,69(s0)
.LM1747:
	li	a4,-1
.LM1748:
	slli	a5,a5,24
	srai	a5,a5,24
.LM1749:
	bne	a5,a4,.L523
.LM1750:
.LM1751:
	sb	zero,69(s0)
.L523:
.LM1752:
	call	vTaskExitCritical
.LVL566:
.LM1753:
.LM1754:
	lw	a5,56(s0)
.LM1755:
	beq	a5,zero,.L526
.LM1756:
.LM1757:
	mv	a0,s0
.LM1758:
	lw	s0,8(sp)
	.cfi_remember_state
	.cfi_restore 8
.LVL567:
.LM1759:
	lw	ra,12(sp)
	.cfi_restore 1
	lw	s1,4(sp)
	.cfi_restore 9
.LVL568:
.LM1760:
	lw	s2,0(sp)
	.cfi_restore 18
.LVL569:
.LM1761:
	addi	sp,sp,16
	.cfi_def_cfa_offset 0
.LM1762:
	tail	prvUnlockQueue
.LVL570:
.L526:
	.cfi_restore_state
.LM1763:
	addi	a0,s0,36
	mv	a2,s2
	mv	a1,s1
	call	vTaskPlaceOnEventListRestricted
.LVL571:
.LM1764:
.LM1765:
	mv	a0,s0
.LM1766:
	lw	s0,8(sp)
	.cfi_restore 8
.LVL572:
.LM1767:
	lw	ra,12(sp)
	.cfi_restore 1
	lw	s1,4(sp)
	.cfi_restore 9
.LVL573:
.LM1768:
	lw	s2,0(sp)
	.cfi_restore 18
.LVL574:
.LM1769:
	addi	sp,sp,16
	.cfi_def_cfa_offset 0
.LM1770:
	tail	prvUnlockQueue
.LVL575:
.LM1771:
	.cfi_endproc
.LFE39:
	.size	vQueueWaitForMessageRestricted, .-vQueueWaitForMessageRestricted
	.globl	xQueueRegistry
	.section	.bss.xQueueRegistry,"aw",@nobits
	.align	2
	.type	xQueueRegistry, @object
	.size	xQueueRegistry, 64
xQueueRegistry:
	.zero	64
	.text
.Letext0:
	.section	.note.GNU-stack,"",@progbits
