	.file	"tc_blfdt_dump.c"
	.option nopic
	.attribute arch, "rv32i2p1_m2p0_f2p2_c2p0_zicsr2p0_zmmul1p0_zca1p0_zcf1p0"
	.attribute unaligned_access, 0
	.attribute stack_align, 16
	.text
.Ltext0:
	.cfi_sections	.debug_frame
	.section	.text.fdt32_to_cpu,"ax",@progbits
	.align	1
	.type	fdt32_to_cpu, @function
fdt32_to_cpu:
.LVL0:
.LFB7:
.LM1:
	.cfi_startproc
.LM2:
.LM3:
	srli	a4,a0,8
	andi	a4,a4,0xff
.LM4:
	slli	a5,a0,24
.LM5:
	slli	a4,a4,16
.LM6:
	or	a5,a5,a4
.LM7:
	srli	a4,a0,24
.LM8:
	srli	a0,a0,16
.LVL1:
.LM9:
	andi	a0,a0,0xff
.LM10:
	or	a5,a5,a4
.LM11:
	slli	a0,a0,8
.LM12:
	or	a0,a5,a0
	ret
	.cfi_endproc
.LFE7:
	.size	fdt32_to_cpu, .-fdt32_to_cpu
	.section	.text.fdt32_ld,"ax",@progbits
	.align	1
	.type	fdt32_ld, @function
fdt32_ld:
.LVL2:
.LFB12:
.LM13:
	.cfi_startproc
.LM14:
.LM15:
.LM16:
	lbu	a5,0(a0)
.LM17:
	lbu	a4,1(a0)
.LM18:
	slli	a5,a5,24
.LM19:
	slli	a4,a4,16
.LM20:
	or	a5,a5,a4
.LM21:
	lbu	a4,3(a0)
.LM22:
	lbu	a0,2(a0)
.LVL3:
.LM23:
	or	a5,a5,a4
.LM24:
	slli	a0,a0,8
.LM25:
	or	a0,a5,a0
	ret
	.cfi_endproc
.LFE12:
	.size	fdt32_ld, .-fdt32_ld
	.section	.text.util_is_printable_string,"ax",@progbits
	.align	1
	.globl	util_is_printable_string
	.type	util_is_printable_string, @function
util_is_printable_string:
.LVL4:
.LFB42:
.LM26:
	.cfi_startproc
.LM27:
.LM28:
.LM29:
.LM30:
	mv	a5,a0
.LM31:
	beq	a1,zero,.L11
.LVL5:
.LBB15:
.LBI15:
.LM32:
.LBB16:
.LM33:
.LM34:
	add	a1,a0,a1
.LVL6:
.LM35:
	lbu	a4,-1(a1)
.LBE16:
.LBE15:
.LM36:
	li	a0,0
.LVL7:
.LBB19:
.LBB17:
.LM37:
	bne	a4,zero,.L4
.LM38:
.LVL8:
.LM39:
.LM40:
	lui	a2,%hi(_ctype_+1)
	addi	a2,a2,%lo(_ctype_+1)
.LVL9:
.L5:
.LM41:
	bgtu	a1,a5,.L12
.LM42:
	li	a0,1
	ret
.LVL10:
.L7:
.LM43:
.LM44:
	addi	a4,a4,1
.LVL11:
.L8:
.LM45:
.LM46:
	lbu	a3,0(a4)
.LM47:
	beq	a1,a4,.L6
.LM48:
	beq	a3,zero,.L6
.LM49:
	add	a3,a3,a2
.LM50:
	lbu	a3,0(a3)
	andi	a3,a3,151
	bne	a3,zero,.L7
.LVL12:
.L11:
.LM51:
.LBE17:
.LBE19:
.LM52:
	li	a0,0
.L4:
.LM53:
	ret
.LVL13:
.L12:
.LBB20:
.LBB18:
.LM54:
	mv	a4,a5
	j	.L8
.LVL14:
.L6:
.LM55:
.LM56:
	beq	a4,a5,.L11
	bne	a3,zero,.L11
.LM57:
.LM58:
	addi	a5,a4,1
	j	.L5
.LBE18:
.LBE20:
	.cfi_endproc
.LFE42:
	.size	util_is_printable_string, .-util_is_printable_string
	.section	.rodata.utilfdt_print_data.str1.4,"aMS",@progbits,1
	.align	2
.LC0:
	.string	" "
	.align	2
.LC1:
	.string	""
	.align	2
.LC2:
	.string	" = "
	.align	2
.LC3:
	.string	"\"%s\""
	.align	2
.LC4:
	.string	", "
	.align	2
.LC5:
	.string	" = <"
	.align	2
.LC6:
	.string	"0x%08x%s"
	.align	2
.LC7:
	.string	">"
	.align	2
.LC8:
	.string	" = ["
	.align	2
.LC9:
	.string	"%02x%s"
	.align	2
.LC10:
	.string	"]"
	.section	.text.utilfdt_print_data,"ax",@progbits
	.align	1
	.globl	utilfdt_print_data
	.type	utilfdt_print_data, @function
utilfdt_print_data:
.LVL15:
.LFB43:
.LM59:
	.cfi_startproc
.LM60:
.LM61:
.LM62:
.LM63:
	beq	a1,zero,.L32
.LM64:
	addi	sp,sp,-32
	.cfi_def_cfa_offset 32
	sw	s0,24(sp)
	sw	s2,16(sp)
	sw	ra,28(sp)
	sw	s1,20(sp)
	sw	s3,12(sp)
	sw	s4,8(sp)
	sw	s5,4(sp)
	sw	s6,0(sp)
	.cfi_offset 8, -8
	.cfi_offset 18, -16
	.cfi_offset 1, -4
	.cfi_offset 9, -12
	.cfi_offset 19, -20
	.cfi_offset 20, -24
	.cfi_offset 21, -28
	.cfi_offset 22, -32
	mv	s2,a0
	mv	s0,a1
.LVL16:
.LBB25:
.LBI25:
.LM65:
.LBB26:
.LM66:
.LM67:
	call	util_is_printable_string
.LVL17:
.LM68:
	beq	a0,zero,.L19
.LM69:
	lui	a0,%hi(.LC2)
	addi	a0,a0,%lo(.LC2)
	call	printf
.LVL18:
.LM70:
.LM71:
	mv	s1,s2
.LM72:
	lui	a5,%hi(.LC3)
.LM73:
	add	s0,s2,s0
.LVL19:
.LM74:
	lui	s2,%hi(.LC4)
.LVL20:
.LM75:
	addi	s3,a5,%lo(.LC3)
.LM76:
	addi	s2,s2,%lo(.LC4)
.LVL21:
.L21:
.LM77:
.LM78:
	mv	a1,s1
	mv	a0,s3
	call	printf
.LVL22:
.LM79:
.LM80:
	mv	a0,s1
	call	strlen
.LVL23:
.LM81:
	addi	a0,a0,1
.LM82:
	add	s1,s1,a0
.LVL24:
.LM83:
.LM84:
	bgeu	s1,s0,.L16
.LM85:
	mv	a0,s2
	call	printf
.LVL25:
.LM86:
	j	.L21
.LVL26:
.L19:
.LM87:
	andi	s1,s0,3
.LM88:
	bne	s1,zero,.L22
.LBB27:
.LM89:
.LVL27:
.LM90:
	lui	a0,%hi(.LC5)
	addi	a0,a0,%lo(.LC5)
	call	printf
.LVL28:
.LM91:
.LM92:
	li	a5,4
	div	s0,s0,a5
.LVL29:
.LM93:
	lui	a5,%hi(.LC6)
.LM94:
	lui	s4,%hi(.LC1)
.LM95:
	lui	s5,%hi(.LC0)
.LM96:
	addi	s6,a5,%lo(.LC6)
.LM97:
	addi	s3,s0,-1
.LVL30:
.L23:
.LM98:
	bgt	s0,s1,.L25
.LM99:
	lui	a0,%hi(.LC7)
	addi	a0,a0,%lo(.LC7)
.LVL31:
.L35:
.LM100:
.LBE27:
.LBE26:
.LBE25:
.LM101:
	lw	s0,24(sp)
	.cfi_remember_state
	.cfi_restore 8
.LVL32:
.LM102:
	lw	ra,28(sp)
	.cfi_restore 1
	lw	s1,20(sp)
	.cfi_restore 9
.LVL33:
.LM103:
	lw	s2,16(sp)
	.cfi_restore 18
.LVL34:
.LM104:
	lw	s3,12(sp)
	.cfi_restore 19
	lw	s4,8(sp)
	.cfi_restore 20
	lw	s5,4(sp)
	.cfi_restore 21
	lw	s6,0(sp)
	.cfi_restore 22
	addi	sp,sp,32
	.cfi_def_cfa_offset 0
.LBB32:
.LBB31:
.LBB28:
.LM105:
	tail	printf
.LVL35:
.L25:
	.cfi_restore_state
.LM106:
.LBE28:
.LBB29:
.LM107:
.LM108:
	slli	a5,s1,2
	add	a5,s2,a5
	lw	a0,0(a5)
	call	fdt32_to_cpu
.LVL36:
	mv	a1,a0
.LM109:
	addi	a2,s4,%lo(.LC1)
.LM110:
	bge	s1,s3,.L24
.LM111:
	addi	a2,s5,%lo(.LC0)
.L24:
.LM112:
	mv	a0,s6
	call	printf
.LVL37:
.LM113:
	addi	s1,s1,1
.LVL38:
.LM114:
	j	.L23
.LVL39:
.L22:
.LM115:
.LBE29:
.LBB30:
.LM116:
.LM117:
	lui	a0,%hi(.LC8)
	addi	a0,a0,%lo(.LC8)
	call	printf
.LVL40:
.LM118:
.LM119:
	lui	a5,%hi(.LC9)
.LM120:
	li	s1,0
.LM121:
	addi	s3,s0,-1
.LM122:
	lui	s4,%hi(.LC1)
.LM123:
	lui	s5,%hi(.LC0)
.LM124:
	addi	s6,a5,%lo(.LC9)
.LVL41:
.L26:
.LM125:
	bgt	s0,s1,.L28
.LM126:
	lui	a0,%hi(.LC10)
	addi	a0,a0,%lo(.LC10)
	j	.L35
.L28:
.LM127:
.LVL42:
.LM128:
	add	a5,s2,s1
.LM129:
	lbu	a1,0(a5)
.LM130:
	addi	a2,s4,%lo(.LC1)
.LM131:
	ble	s3,s1,.L27
.LM132:
	addi	a2,s5,%lo(.LC0)
.L27:
.LM133:
	mv	a0,s6
	call	printf
.LVL43:
.LM134:
	addi	s1,s1,1
.LVL44:
.LM135:
	j	.L26
.LVL45:
.L16:
.LM136:
.LBE30:
.LBE31:
.LBE32:
.LM137:
	lw	ra,28(sp)
	.cfi_restore 1
	lw	s0,24(sp)
	.cfi_restore 8
	lw	s1,20(sp)
	.cfi_restore 9
.LVL46:
.LM138:
	lw	s2,16(sp)
	.cfi_restore 18
	lw	s3,12(sp)
	.cfi_restore 19
	lw	s4,8(sp)
	.cfi_restore 20
	lw	s5,4(sp)
	.cfi_restore 21
	lw	s6,0(sp)
	.cfi_restore 22
	addi	sp,sp,32
	.cfi_def_cfa_offset 0
	jr	ra
.LVL47:
.L32:
.LM139:
	ret
	.cfi_endproc
.LFE43:
	.size	utilfdt_print_data, .-utilfdt_print_data
	.section	.rodata.tc_blfdtdump.str1.4,"aMS",@progbits,1
	.align	2
.LC11:
	.string	"FDT_???"
	.align	2
.LC12:
	.string	"/"
	.align	2
.LC13:
	.string	"fdtbuff"
	.align	2
.LC14:
	.string	"%s: skipping fdt magic at offset %#tx\r\n"
	.align	2
.LC15:
	.string	"tc_blfdt_dump.c"
	.align	2
.LC16:
	.string	"\033[31mERROR \033[0m"
	.align	2
.LC17:
	.string	"[%10u][%s: %s:%4d] %s: could not locate fdt magic\r\n"
	.align	2
.LC18:
	.string	"dump failed\r\n"
	.align	2
.LC19:
	.string	"%s: found fdt at offset %#tx\r\n"
	.align	2
.LC20:
	.string	"\033[32mINFO  \033[0m"
	.align	2
.LC21:
	.string	"[%10u][%s: %s:%4d] dump_blob."
	.align	2
.LC22:
	.string	"/dts-v1/;\r\n"
	.align	2
.LC23:
	.string	"// magic:\t\t0x%lx\r\n"
	.align	2
.LC24:
	.string	"// totalsize:\t\t0x%lx (%lu)\r\n"
	.align	2
.LC25:
	.string	"// off_dt_struct:\t0x%lx\r\n"
	.align	2
.LC26:
	.string	"// off_dt_strings:\t0x%lx\r\n"
	.align	2
.LC27:
	.string	"// off_mem_rsvmap:\t0x%lx\r\n"
	.align	2
.LC28:
	.string	"// version:\t\t%lu\r\n"
	.align	2
.LC29:
	.string	"// last_comp_version:\t%lu\r\n"
	.align	2
.LC30:
	.string	"// boot_cpuid_phys:\t0x%lx\r\n"
	.align	2
.LC31:
	.string	"// size_dt_strings:\t0x%lx\r\n"
	.align	2
.LC32:
	.string	"// size_dt_struct:\t0x%lx\r\n"
	.align	2
.LC33:
	.string	"\r\n"
	.align	2
.LC34:
	.string	"// %04x: tag: 0x%08lx (%s)\r\n"
	.align	2
.LC35:
	.string	"%*s%s {\r\n"
	.align	2
.LC36:
	.string	"%*s};\r\n"
	.align	2
.LC37:
	.string	"%*s// [NOP]\r\n"
	.align	2
.LC38:
	.string	"[%10u][%s: %s:%4d] %*s ** Unknown tag 0x%08lx\r\n"
	.align	2
.LC39:
	.string	"// %04x: string: %s\r\n"
	.align	2
.LC40:
	.string	"// %04x: value\r\n"
	.align	2
.LC41:
	.string	"%*s%s"
	.align	2
.LC42:
	.string	";\r\n"
	.align	2
.LC43:
	.string	"dump successed\r\n"
	.section	.text.tc_blfdtdump,"ax",@progbits
	.align	1
	.globl	tc_blfdtdump
	.type	tc_blfdtdump, @function
tc_blfdtdump:
.LFB47:
.LM140:
	.cfi_startproc
.LM141:
.LM142:
.LBB63:
.LBI63:
.LM143:
.LVL48:
.LBB64:
.LM144:
.LM145:
.LM146:
.LM147:
.LM148:
.LM149:
.LM150:
.LBB65:
.LM151:
.LM152:
.LM153:
.LM154:
.LBB66:
.LBI66:
.LM155:
.LBB67:
.LM156:
.LM157:
.LM158:
.LBE67:
.LBE66:
.LM159:
.LBE65:
.LBE64:
.LBE63:
.LM160:
	addi	sp,sp,-80
	.cfi_def_cfa_offset 80
	sw	s0,72(sp)
	.cfi_offset 8, -8
.LBB99:
.LBB94:
.LBB72:
.LM161:
	lui	s0,%hi(tc_wifi_dtb)
.LBE72:
.LBE94:
.LBE99:
.LM162:
	sw	s1,68(sp)
	sw	s3,60(sp)
	sw	s4,56(sp)
.LBB100:
.LBB95:
.LBB73:
.LM163:
	addi	s0,s0,%lo(tc_wifi_dtb)
	.cfi_offset 9, -12
	.cfi_offset 19, -20
	.cfi_offset 20, -24
.LM164:
	lui	s1,%hi(tc_wifi_dtb+4783)
.LM165:
	lui	s3,%hi(.LC13)
	lui	s4,%hi(.LC14)
.LBE73:
.LBE95:
.LBE100:
.LM166:
	sw	s5,52(sp)
	sw	s6,48(sp)
	sw	ra,76(sp)
	sw	s2,64(sp)
	sw	s7,44(sp)
	sw	s8,40(sp)
	sw	s9,36(sp)
	sw	s10,32(sp)
	sw	s11,28(sp)
	.cfi_offset 21, -28
	.cfi_offset 22, -32
	.cfi_offset 1, -4
	.cfi_offset 18, -16
	.cfi_offset 23, -36
	.cfi_offset 24, -40
	.cfi_offset 25, -44
	.cfi_offset 26, -48
	.cfi_offset 27, -52
	mv	s5,s0
.LBB101:
.LBB96:
.LBB74:
.LM167:
	addi	s1,s1,%lo(tc_wifi_dtb+4783)
.LM168:
	li	s6,39
.LM169:
	addi	s3,s3,%lo(.LC13)
	addi	s4,s4,%lo(.LC14)
.LVL49:
.L37:
.LM170:
.LM171:
	sub	a2,s1,s0
.LM172:
	bgt	a2,s6,.L42
.L41:
.LM173:
.LM174:
	sub	s1,s1,s0
.LM175:
	li	a5,39
	bgtu	s1,a5,.L76
.L38:
.LVL50:
.LM176:
.LM177:
.LM178:
.LBB68:
.LBI68:
.LM179:
.LBB69:
.LM180:
.LM181:
	lui	a5,%hi(TrapNetCounter)
.LBE69:
.LBE68:
.LM182:
	lw	a5,%lo(TrapNetCounter)(a5)
	beq	a5,zero,.L43
.LM183:
	call	xTaskGetTickCountFromISR
.LVL51:
.L78:
.LM184:
	mv	a1,a0
.LM185:
	lui	a5,%hi(.LC13)
	lui	a3,%hi(.LC15)
	lui	a2,%hi(.LC16)
	lui	a0,%hi(.LC17)
	addi	a5,a5,%lo(.LC13)
	li	a4,329
	addi	a3,a3,%lo(.LC15)
	addi	a2,a2,%lo(.LC16)
	addi	a0,a0,%lo(.LC17)
	call	bl_printk
.LVL52:
.LM186:
.LM187:
.LM188:
.LM189:
.LBE74:
.LBE96:
.LBE101:
.LM190:
.LM191:
	lui	a0,%hi(.LC18)
	addi	a0,a0,%lo(.LC18)
	call	printf
.LVL53:
	li	a0,-1
.LVL54:
.L36:
.LM192:
	lw	ra,76(sp)
	.cfi_remember_state
	.cfi_restore 1
	lw	s0,72(sp)
	.cfi_restore 8
	lw	s1,68(sp)
	.cfi_restore 9
	lw	s2,64(sp)
	.cfi_restore 18
	lw	s3,60(sp)
	.cfi_restore 19
	lw	s4,56(sp)
	.cfi_restore 20
	lw	s5,52(sp)
	.cfi_restore 21
	lw	s6,48(sp)
	.cfi_restore 22
	lw	s7,44(sp)
	.cfi_restore 23
	lw	s8,40(sp)
	.cfi_restore 24
	lw	s9,36(sp)
	.cfi_restore 25
	lw	s10,32(sp)
	.cfi_restore 26
	lw	s11,28(sp)
	.cfi_restore 27
	addi	sp,sp,80
	.cfi_def_cfa_offset 0
	jr	ra
.LVL55:
.L42:
	.cfi_restore_state
.LBB102:
.LBB97:
.LBB75:
.LM193:
.LM194:
	mv	a0,s0
	addi	a2,a2,-40
	li	a1,208
	call	memchr
.LVL56:
	mv	s0,a0
.LVL57:
.LM195:
.LM196:
	beq	a0,zero,.L38
.LM197:
.LM198:
	call	fdt32_ld
.LVL58:
.LM199:
	li	a5,-804388864
	addi	a5,a5,-275
	bne	a0,a5,.L39
.LM200:
.LM201:
	sub	s2,s1,s0
.LVL59:
.LM202:
.LBB70:
.LBI70:
.LM203:
.LBB71:
.LM204:
.LM205:
	bleu	s2,s6,.L40
.LM206:
	addi	a0,s0,20
	call	fdt32_ld
.LVL60:
.LM207:
	li	s7,17
	bgtu	a0,s7,.L40
.LM208:
	addi	a0,s0,24
	call	fdt32_ld
.LVL61:
.LM209:
	bgtu	a0,s7,.L40
.LM210:
	addi	a0,s0,4
	call	fdt32_ld
.LVL62:
.LM211:
	bleu	s2,a0,.L40
.LM212:
	addi	a0,s0,8
	call	fdt32_ld
.LVL63:
.LM213:
	bleu	s2,a0,.L40
.LM214:
	addi	a0,s0,12
	call	fdt32_ld
.LVL64:
.LM215:
	bgtu	s2,a0,.L41
.L40:
.LM216:
.LVL65:
.LM217:
.LBE71:
.LBE70:
.LM218:
.LM219:
	sub	a2,s0,s5
	mv	a1,s3
	mv	a0,s4
	call	printf
.LVL66:
.L39:
.LM220:
	addi	s0,s0,1
.LVL67:
.LM221:
	j	.L37
.LVL68:
.L43:
.LM222:
	call	xTaskGetTickCount
.LVL69:
	j	.L78
.LVL70:
.L76:
.LM223:
	lui	a1,%hi(.LC13)
	lui	a0,%hi(.LC19)
	sub	a2,s0,s5
	addi	a1,a1,%lo(.LC13)
	addi	a0,a0,%lo(.LC19)
	call	printf
.LVL71:
.LM224:
.LM225:
.LBE75:
.LM226:
.LM227:
.LM228:
.LBB76:
.LBI76:
.LM229:
.LBB77:
.LM230:
.LM231:
	lui	s7,%hi(TrapNetCounter)
.LBE77:
.LBE76:
.LM232:
	lw	a5,%lo(TrapNetCounter)(s7)
	beq	a5,zero,.L46
.LM233:
	call	xTaskGetTickCountFromISR
.LVL72:
.L79:
.LM234:
	mv	a1,a0
.LM235:
	lui	s8,%hi(.LC15)
	lui	a2,%hi(.LC20)
	lui	a0,%hi(.LC21)
	li	a4,339
	addi	a3,s8,%lo(.LC15)
	addi	a2,a2,%lo(.LC20)
	addi	a0,a0,%lo(.LC21)
	call	bl_printk
.LVL73:
.LM236:
.LM237:
.LM238:
.LBB78:
.LBI78:
.LM239:
.LBB79:
.LM240:
.LM241:
.LM242:
.LM243:
	lw	a0,16(s0)
	call	fdt32_to_cpu
.LVL74:
	mv	s5,a0
.LVL75:
.LM244:
.LM245:
	lw	a0,8(s0)
.LVL76:
.LM246:
	call	fdt32_to_cpu
.LVL77:
	mv	s3,a0
.LVL78:
.LM247:
.LM248:
	lw	a0,12(s0)
.LVL79:
.LM249:
	add	s2,s0,s3
.LM250:
	call	fdt32_to_cpu
.LVL80:
	sw	a0,0(sp)
.LVL81:
.LM251:
.LM252:
.LM253:
.LM254:
.LM255:
	lw	a0,20(s0)
.LVL82:
.LM256:
	call	fdt32_to_cpu
.LVL83:
	mv	s1,a0
.LVL84:
.LM257:
.LM258:
	lw	a0,4(s0)
	call	fdt32_to_cpu
.LVL85:
	mv	s4,a0
.LVL86:
.LM259:
.LM260:
.LM261:
.LM262:
.LM263:
.LM264:
.LM265:
.LM266:
	lui	a0,%hi(.LC22)
.LVL87:
.LM267:
	addi	a0,a0,%lo(.LC22)
	call	printf
.LVL88:
.LM268:
	lw	a0,0(s0)
	call	fdt32_to_cpu
.LVL89:
	mv	a1,a0
.LM269:
	lui	a0,%hi(.LC23)
	addi	a0,a0,%lo(.LC23)
	call	printf
.LVL90:
.LM270:
	lui	a0,%hi(.LC24)
	mv	a2,s4
	mv	a1,s4
	addi	a0,a0,%lo(.LC24)
	call	printf
.LVL91:
.LM271:
	lui	a0,%hi(.LC25)
	mv	a1,s3
	addi	a0,a0,%lo(.LC25)
	call	printf
.LVL92:
.LM272:
	lw	a1,0(sp)
	lui	a0,%hi(.LC26)
	addi	a0,a0,%lo(.LC26)
	call	printf
.LVL93:
.LM273:
	lui	a0,%hi(.LC27)
	mv	a1,s5
	addi	a0,a0,%lo(.LC27)
	call	printf
.LVL94:
.LM274:
	lui	a0,%hi(.LC28)
	mv	a1,s1
	addi	a0,a0,%lo(.LC28)
	call	printf
.LVL95:
.LM275:
	lw	a0,24(s0)
	call	fdt32_to_cpu
.LVL96:
	mv	a1,a0
.LM276:
	lui	a0,%hi(.LC29)
	addi	a0,a0,%lo(.LC29)
	call	printf
.LVL97:
.LM277:
.LM278:
	li	a5,1
	bleu	s1,a5,.L49
.LM279:
	lw	a0,28(s0)
	call	fdt32_to_cpu
.LVL98:
	mv	a1,a0
.LM280:
	lui	a0,%hi(.LC30)
	addi	a0,a0,%lo(.LC30)
	call	printf
.LVL99:
.LM281:
.LM282:
	li	a5,2
	beq	s1,a5,.L49
.LM283:
	lw	a0,32(s0)
	call	fdt32_to_cpu
.LVL100:
	mv	a1,a0
.LM284:
	lui	a0,%hi(.LC31)
	addi	a0,a0,%lo(.LC31)
	call	printf
.LVL101:
.LM285:
.LM286:
	li	a5,16
	bleu	s1,a5,.L49
.LM287:
	lw	a0,36(s0)
	call	fdt32_to_cpu
.LVL102:
	mv	a1,a0
.LM288:
	lui	a0,%hi(.LC32)
	addi	a0,a0,%lo(.LC32)
	call	printf
.LVL103:
.L49:
.LM289:
	lui	a0,%hi(.LC33)
	addi	a0,a0,%lo(.LC33)
	call	printf
.LVL104:
.LM290:
.LM291:
.LM292:
.LM293:
.LM294:
	sltiu	a5,s1,16
	sw	a5,8(sp)
.LM295:
	li	a5,-4
	sub	a5,a5,s0
	sw	a5,12(sp)
.LBB80:
.LBB81:
.LM296:
	lui	a5,%hi(names.0)
.LBE81:
.LBE80:
.LM297:
	li	s3,0
.LVL105:
.LM298:
	li	s10,9
.LBB85:
.LBB82:
.LM299:
	lui	s9,%hi(.LC11)
.LM300:
	addi	s11,a5,%lo(names.0)
.LVL106:
.L51:
.LM301:
.LBE82:
.LBE85:
.LM302:
.LM303:
	lw	a0,0(s2)
	call	fdt32_to_cpu
.LVL107:
	mv	s5,a0
.LVL108:
.LM304:
	beq	a0,s10,.L61
.LM305:
	lw	a5,12(sp)
.LM306:
	addi	s1,s2,4
.LVL109:
.LM307:
.LM308:
.LM309:
.LBB86:
.LBB83:
.LM310:
	addi	a3,s9,%lo(.LC11)
.LBE83:
.LBE86:
.LM311:
	add	a1,s1,a5
.LVL110:
.LBB87:
.LBI80:
.LM312:
.LBB84:
.LM313:
.LM314:
.LM315:
	bgtu	s5,s10,.L52
.LM316:
.LM317:
	slli	a5,s5,2
	add	a5,s11,a5
	lw	a3,0(a5)
.LM318:
	bne	a3,zero,.L52
.LM319:
	addi	a3,s9,%lo(.LC11)
.L52:
.LVL111:
.LM320:
.LBE84:
.LBE87:
.LM321:
	lui	a0,%hi(.LC34)
.LVL112:
.LM322:
	mv	a2,s5
	addi	a0,a0,%lo(.LC34)
	call	printf
.LVL113:
.LM323:
.LM324:
.LM325:
	li	a5,1
	lui	s4,%hi(.LC1)
	bne	s5,a5,.L53
.LM326:
.LVL114:
.LM327:
.LM328:
	mv	a0,s1
	call	strlen
.LVL115:
.LM329:
	lbu	a5,4(s2)
.LM330:
	add	s5,s1,a0
.LVL116:
.LM331:
	addi	s5,s5,4
.LVL117:
.LM332:
.LM333:
	bne	a5,zero,.L54
.LM334:
	lui	s1,%hi(.LC12)
.LVL118:
.LM335:
	addi	s1,s1,%lo(.LC12)
.L54:
.LVL119:
.LM336:
	lui	a0,%hi(.LC35)
	mv	a3,s1
	slli	a1,s3,2
	addi	a2,s4,%lo(.LC1)
	addi	a0,a0,%lo(.LC35)
	call	printf
.LVL120:
.LM337:
.LM338:
	addi	s3,s3,1
.LVL121:
.LM339:
.LM340:
	andi	s1,s5,-4
.LVL122:
.L55:
.LM341:
	mv	s2,s1
	j	.L51
.LVL123:
.L46:
.LM342:
.LBE79:
.LBE78:
.LM343:
	call	xTaskGetTickCount
.LVL124:
	j	.L79
.LVL125:
.L53:
.LBB92:
.LBB90:
.LM344:
.LM345:
	li	a5,2
	bne	s5,a5,.L56
.LM346:
.LM347:
	addi	s3,s3,-1
.LVL126:
.LM348:
	lui	a0,%hi(.LC36)
	addi	a2,s4,%lo(.LC1)
	slli	a1,s3,2
	addi	a0,a0,%lo(.LC36)
.L81:
.LM349:
	call	printf
.LVL127:
.LM350:
	j	.L55
.L56:
.LM351:
.LM352:
	slli	a5,s3,2
	sw	a5,4(sp)
.LM353:
	li	a5,4
	bne	s5,a5,.L57
.LM354:
	lui	a0,%hi(.LC37)
	addi	a2,s4,%lo(.LC1)
	slli	a1,s3,2
	addi	a0,a0,%lo(.LC37)
	j	.L81
.L57:
.LM355:
.LM356:
	li	a5,3
	beq	s5,a5,.L58
.LM357:
.LM358:
.LM359:
.LBB88:
.LBI88:
.LM360:
.LBB89:
.LM361:
.LBE89:
.LBE88:
.LM362:
	lw	a5,%lo(TrapNetCounter)(s7)
	beq	a5,zero,.L59
.LM363:
	call	xTaskGetTickCountFromISR
.LVL128:
.L80:
.LM364:
	lw	a5,4(sp)
.LM365:
	mv	a1,a0
.LM366:
	lui	a2,%hi(.LC16)
	lui	a0,%hi(.LC38)
	mv	a7,s5
	addi	a6,s4,%lo(.LC1)
	li	a4,247
	addi	a3,s8,%lo(.LC15)
	addi	a2,a2,%lo(.LC16)
	addi	a0,a0,%lo(.LC38)
	call	bl_printk
.LVL129:
.LM367:
.LM368:
.LM369:
.LM370:
.LBE90:
.LBE92:
.LBE97:
.LBE102:
.LM371:
.L61:
.LM372:
	lui	a0,%hi(.LC43)
	addi	a0,a0,%lo(.LC43)
	call	printf
.LVL130:
	li	a0,0
.LM373:
.LM374:
	j	.L36
.LVL131:
.L59:
.LBB103:
.LBB98:
.LBB93:
.LBB91:
.LM375:
	call	xTaskGetTickCount
.LVL132:
	j	.L80
.L58:
.LM376:
.LVL133:
.LM377:
	lw	a0,4(s2)
.LM378:
	addi	s5,s2,12
.LVL134:
.LM379:
	call	fdt32_to_cpu
.LVL135:
	mv	s6,a0
.LVL136:
.LM380:
.LM381:
	lw	a0,8(s2)
.LVL137:
.LM382:
	call	fdt32_to_cpu
.LVL138:
	lw	a5,0(sp)
	add	a1,a5,a0
.LM383:
	slti	a5,s6,8
.LM384:
	add	a3,s0,a1
.LVL139:
.LM385:
.LM386:
	bne	a5,zero,.L62
	lw	a5,8(sp)
	beq	a5,zero,.L62
.LM387:
.LM388:
	addi	s2,s2,19
.LM389:
	andi	s5,s2,-8
.LVL140:
.L62:
.LM390:
.LM391:
.LM392:
	lui	a0,%hi(.LC39)
	mv	a2,a3
	addi	a0,a0,%lo(.LC39)
	sw	a3,4(sp)
	call	printf
.LVL141:
.LM393:
	lui	a0,%hi(.LC40)
	sub	a1,s5,s0
	addi	a0,a0,%lo(.LC40)
	call	printf
.LVL142:
.LM394:
	lw	a3,4(sp)
	lui	a0,%hi(.LC41)
	addi	a2,s4,%lo(.LC1)
	slli	a1,s3,2
	addi	a0,a0,%lo(.LC41)
	call	printf
.LVL143:
.LM395:
	mv	a0,s5
	mv	a1,s6
	call	utilfdt_print_data
.LVL144:
.LM396:
	add	s1,s5,s6
.LM397:
	lui	a0,%hi(.LC42)
.LM398:
	addi	s1,s1,3
.LM399:
	addi	a0,a0,%lo(.LC42)
.LM400:
	andi	s1,s1,-4
.LVL145:
.LM401:
.LM402:
.LM403:
.LM404:
.LM405:
.LM406:
.LM407:
.LM408:
.LM409:
.LM410:
.LM411:
	call	printf
.LVL146:
	j	.L55
.LBE91:
.LBE93:
.LBE98:
.LBE103:
	.cfi_endproc
.LFE47:
	.size	tc_blfdtdump, .-tc_blfdtdump
	.section	.rodata.str1.4,"aMS",@progbits,1
	.align	2
.LC44:
	.string	"FDT_BEGIN_NODE"
	.align	2
.LC45:
	.string	"FDT_END_NODE"
	.align	2
.LC46:
	.string	"FDT_PROP"
	.align	2
.LC47:
	.string	"FDT_NOP"
	.align	2
.LC48:
	.string	"FDT_END"
	.section	.rodata.names.0,"a"
	.align	2
	.type	names.0, @object
	.size	names.0, 40
names.0:
	.zero	4
	.word	.LC44
	.word	.LC45
	.word	.LC46
	.word	.LC47
	.zero	16
	.word	.LC48
	.globl	tc_wifi_dtb
	.section	.rodata.tc_wifi_dtb,"a"
	.align	2
	.type	tc_wifi_dtb, @object
	.size	tc_wifi_dtb, 4783
tc_wifi_dtb:
	.base64	"0A3+7QAAEqsAAAA4AAAQwAAAACgAAAARAAAAEAAAAAAAAAHrAAAQiAAAAAAAAAAAAAAAAAAAAAAAAAABAAAAAAAAAAMAAAATAAAAAGJsIGJsNjB4IEFWQiBib2FyZAAAAAAAAwAAACAAAAAGYmwsYmw2MHgtc2FtcGxlAGJsLGJsNjB4LWNvbW1vbgAAAAADAAAABAAAABEAAAABAAAAAwAAAAQAAAAgAAAAAQAAAAFpcGMAAAAAAwAAAAQAAAARAAAAAQAAAAMAAAAEAAAAIAAAAAEAAAABaXBjQDQwMDFDMDAwAAAAAAAAAAMAAAAIAAAALGRpc2FibGUAAAAA"
	.base64	"AwAAAAgAAAAzQAHAAAAAAQAAAAACAAAAAgAAAAFpMnMAAAAAAwAAAAQAAAARAAAAAQAAAAMAAAAEAAAAIAAAAAEAAAABaTJzQDQwMDE3MDAwAAAAAAAAAAMAAAAFAAAALG9rYXkAAAAAAAAAAwAAAAoAAAAGYmw2MHhfaTJzAAAAAAAAAwAAAAgAAAAzQAFwAAAAAQAAAAADAAAABQAAADdva2F5AAAAAAAAAAFwaW4AAAAAAwAAAAQAAABBAAAACwAAAAIAAAACAAAAAWkyc0A0MDAxNzEwMAAAAAAAAAADAAAABQAAACxva2F5AAAAAAAAAAMAAAAKAAAABmJs"
	.base64	"NjB4X2kycwAAAAAAAAMAAAAIAAAAM0ABcQAAAAEAAAAAAwAAAAgAAAA3ZGlzYWJsZQAAAAABcGluAAAAAAMAAAAEAAAARgAAAAwAAAADAAAABAAAAEsAAAAdAAAAAwAAAAQAAABOAAAAHgAAAAMAAAAEAAAAUQAAAB8AAAACAAAAAgAAAAIAAAABaTJjAAAAAAMAAAAEAAAAEQAAAAEAAAADAAAABAAAACAAAAABAAAAAWkyY0A0MDAxMTAwMAAAAAAAAAADAAAABQAAACxva2F5AAAAAAAAAAMAAAAKAAAABmJsNjB4X2kyYwAAAAAAAAMAAAAIAAAAM0ABEAAA"
	.base64	"AAEAAAAAAXBpbgAAAAADAAAABAAAAFQAAAAgAAAAAwAAAAQAAABYAAAADQAAAAIAAAABZGV2aWNlcwAAAAADAAAACAAAAFwAAAAYAAAAIQAAAAMAAAAXAAAAZmkyY19lczgzMTEAaTJjX2djMDMwOD4AAAAAAAIAAAACAAAAAWkyY0A0MDAxMTEwMAAAAAAAAAADAAAACAAAACxkaXNhYmxlAAAAAAMAAAAKAAAABmJsNjB4X2kyYwAAAAAAAAMAAAAIAAAAM0ABEQAAAAEAAAAAAXBpbgAAAAACAAAAAgAAAAIAAAABbWpwZWcAAAAAAAADAAAABAAAABEAAAAB"
	.base64	"AAAAAwAAAAQAAAAgAAAAAQAAAAFtanBlZ0A0MDAxNjAwMAAAAAAAAwAAAAUAAAAsb2theQAAAAAAAAADAAAADAAAAAZibDYweF9tanBlZwAAAAADAAAACAAAADNAAWAAAAABAAAAAAIAAAACAAAAAXRpbWVyAAAAAAAAAwAAAAQAAAARAAAAAQAAAAMAAAAEAAAAIAAAAAEAAAABdGltZXJANDAwMTQwMDAAAAAAAAMAAAAIAAAALGRpc2FibGUAAAAAAwAAAAwAAAAGYmw2MHhfdGltZXIAAAAAAwAAAAgAAAAzQAFAAAAAAQAAAAACAAAAAXRpbWVyQDQwMDE0"
	.base64	"MTAwAAAAAAADAAAACAAAACxkaXNhYmxlAAAAAAMAAAAMAAAABmJsNjB4X3RpbWVyAAAAAAMAAAAIAAAAM0ABQQAAAAEAAAAAAgAAAAIAAAABcHdtAAAAAAMAAAAEAAAAEQAAAAEAAAADAAAABAAAACAAAAABAAAAAXB3bUA0MDAxMjAwMAAAAAAAAAADAAAACAAAACxkaXNhYmxlAAAAAAMAAAAKAAAABmJsNjB4X3B3bQAAAAAAAAMAAAAIAAAAM0ABIAAAAAEAAAAAAXBpbgAAAAACAAAAAgAAAAIAAAABdWFydAAAAAAAAAADAAAABAAAABEAAAABAAAAAwAA"
	.base64	"AAQAAAAgAAAAAQAAAAF1YXJ0QDQwMDEwMDAwAAAAAAAAAwAAAAgAAAAsZGlzYWJsZQAAAAADAAAABAAAAHIAAAAAAAAAAwAAAAsAAAAGYmw2MHhfdWFydAAAAAAAAwAAAAsAAAB1L2Rldi90dHlTMAAAAAAAAwAAAAgAAAAzQAEAAAAAAQAAAAADAAAABAAAAHoAAcIAAAAAAXBpbgAAAAACAAAAAWZlYXR1cmUAAAAAAwAAAAgAAAB+ZGlzYWJsZQAAAAADAAAACAAAAIJkaXNhYmxlAAAAAAMAAAAIAAAAhmRpc2FibGUAAAAAAwAAAAgAAACJZGlzYWJsZQAA"
	.base64	"AAACAAAAAgAAAAF1YXJ0QDQwMDEwMTAwAAAAAAAAAwAAAAgAAAAsZGlzYWJsZQAAAAADAAAABAAAAHIAAAABAAAAAwAAAAsAAAAGYmw2MHhfdWFydAAAAAAAAwAAAAsAAAB1L2Rldi90dHlTMQAAAAAAAwAAAAgAAAAzQAEBAAAAAQAAAAADAAAABAAAAIwAAcIAAAAAAXBpbgAAAAACAAAAAWZlYXR1cmUAAAAAAwAAAAgAAAB+ZGlzYWJsZQAAAAADAAAACAAAAIJkaXNhYmxlAAAAAAMAAAAIAAAAhmRpc2FibGUAAAAAAwAAAAgAAACJZGlzYWJsZQAAAAAC"
	.base64	"AAAAAgAAAAF1YXJ0QDQwMDEwMjAwAAAAAAAAAwAAAAUAAAAsb2theQAAAAAAAAADAAAABAAAAHIAAAACAAAAAwAAAAsAAAAGYmw2MHhfdWFydAAAAAAAAwAAAAsAAAB1L2Rldi90dHlTMgAAAAAAAwAAAAgAAAAzQAECAAAAAQAAAAADAAAABAAAAIwATEtAAAAAAXBpbgAAAAADAAAABAAAAIkAAAAOAAAAAwAAAAQAAACGAAAABwAAAAIAAAABZmVhdHVyZQAAAAADAAAABQAAAIlva2F5AAAAAAAAAAMAAAAFAAAAhm9rYXkAAAAAAAAAAwAAAAgAAACCZGlz"
	.base64	"YWJsZQAAAAADAAAACAAAAH5kaXNhYmxlAAAAAAIAAAACAAAAAgAAAAFzcGkAAAAAAwAAAAQAAAARAAAAAQAAAAMAAAAEAAAAIAAAAAEAAAABc3BpQDQwMDBGMDAwAAAAAAAAAAMAAAAIAAAALGRpc2FibGUAAAAAAwAAAAgAAAAzQADwAAAAAQAAAAACAAAAAgAAAAFncGlwAAAAAAAAAAMAAAAEAAAAEQAAAAEAAAADAAAABAAAACAAAAABAAAAAWFkY19rZXkAAAAAAwAAAAUAAAAsb2theQAAAAAAAAADAAAABAAAAJUAAAAJAAAAAwAAAAQAAACZAAAAAwAA"
	.base64	"AAMAAAAUAAAAowAAAAAAAABkAAABkAAAASwAAAH0AAAAAwAAABQAAACrU1cxAFNXMgBTVzMAU1c0AFNXNQAAAAADAAAAGAAAALNVc3IxAFVzcjIAU3RhcnQAVXAARG93bgAAAAADAAAAFAAAAL0AAAABAAAAAgAAAAMAAAAEAAAABQAAAAIAAAACAAAAAXBkbQAAAAADAAAABAAAABEAAAABAAAAAwAAAAQAAAAgAAAAAQAAAAFwZG1ANDAwMEMwMDAAAAAAAAAAAwAAAAgAAAAsZGlzYWJsZQAAAAADAAAACAAAADNAAMAAAAABAAAAAAIAAAACAAAAAWNhbQAA"
	.base64	"AAADAAAABAAAABEAAAABAAAAAwAAAAQAAAAgAAAAAQAAAAFjYW1ANDAwMEIwMDAAAAAAAAAAAwAAAAUAAAAsb2theQAAAAAAAAADAAAACgAAAAZibDYweF9jYW0AAAAAAAADAAAACAAAADNAALAAAAAQAAAAAAFwaW4AAAAAAwAAAAQAAADFAAAAAAAAAAMAAAAEAAAAzQAAAAEAAAADAAAABAAAANcAAAACAAAAAwAAAAQAAADgAAAAAwAAAAMAAAAEAAAA6QAAAAQAAAADAAAABAAAAPIAAAAFAAAAAwAAAAQAAAD7AAAABgAAAAMAAAAEAAABBAAAABkAAAAD"
	.base64	"AAAABAAAAQ0AAAAaAAAAAwAAAAQAAAEWAAAAGwAAAAMAAAAEAAABHwAAABwAAAADAAAABAAAASgAAAAPAAAAAwAAAAQAAAExAAAAGAAAAAIAAAABZmVhdHVyZQAAAAADAAAACQAAAT1IQVJEV0FSRQAAAAAAAAACAAAAAWNvbmYAAAAAAAAAAwAAAAUAAAFCYXV0bwAAAAAAAAACAAAAAgAAAAIAAAABcXNwaQAAAAAAAAADAAAABAAAABEAAAABAAAAAwAAAAQAAAAgAAAAAQAAAAFxc3BpQDQwMDBBMDAwAAAAAAAAAwAAAAgAAAAsZGlzYWJsZQAAAAADAAAA"
	.base64	"CAAAADNAAKAAAAAQAAAAAAIAAAACAAAAAXNkaAAAAAADAAAABAAAABEAAAABAAAAAwAAAAQAAAAgAAAAAQAAAAFzZGhANDAwMDMwMDAAAAAAAAAAAwAAAAUAAAAsb2theQAAAAAAAAADAAAACgAAAAZibDYweF9zZGgAAAAAAAADAAAACAAAADNAADAAAAAQAAAAAAFwaW4AAAAAAwAAAAQAAABCAAAAEAAAAAMAAAAEAAABSQAAABEAAAADAAAABAAAAU0AAAASAAAAAwAAAAQAAAFSAAAAEwAAAAMAAAAEAAABVwAAABQAAAADAAAABAAAAVwAAAAVAAAAAgAA"
	.base64	"AAIAAAACAAAAAXdpZmkAAAAAAAAAAwAAAAQAAAARAAAAAQAAAAMAAAAEAAAAIAAAAAEAAAABcmVnaW9uAAAAAAADAAAABAAAAWEAAABWAAAAAgAAAAFtYWMAAAAAAwAAAAYAAAFuyENXgnNAAAAAAAADAAAABgAAAXvIQ1eCcwIAAAAAAAIAAAABYXAAAAAAAAMAAAAPAAABh0JMNjB4X0NhbWVyYTAzAAAAAAADAAAADAAAAYwxMjM0NTY3ODkwYQAAAAADAAAABAAAAZAAAAALAAAAAwAAAAgAAAGbZGlzYWJsZQAAAAACAAAAAWJyZF9yZgAAAAAAAwAAABQA"
	.base64	"AAGsAAAAKQAAACkAAAAAAAAAPwAAAD8AAAADAAABAAAAAbEAAAAEAAAAAwAAAAMAAAC6AAAABAAAAAMAAAAEAAAAsAAAAAQAAAADAAAABQAAAKcAAAADAAAAAwAAAAAAAACfAAAAAwAAAAMAAAABAAAAlQAAAAMAAAADAAAAAgAAAIwAAAADAAAAAwAAAAMAAACBAAAAAwAAAAMAAAAEAAAAdwAAAAMAAAADAAAABQAAAG4AAAACAAAAAwAAAAAAAABlAAAAAgAAAAMAAAABAAAAWwAAAAIAAAADAAAAAgAAAFIAAAACAAAAAwAAAAMAAABIAAAAAgAAAAMAAAAE"
	.base64	"AAAAPgAAAAIAAAADAAAABQAAADQAAAABAAAAAwAAAAMAAAAKAAAAAwAAADwAAAG7FPAAABT7HHEVBjjjFRFVVRUccccVJ444FTKqqhU9xxwVSOOOFVQAABVfHHEVajjjFXVVVRWQAAAVwAAAAAAAAwAAADgAAAHNAACngAAAp9gAAKgxAACoigAAqOMAAKk8AACplQAAqe4AAKpHAACqoAAAqvgAAKtRAACrqgAArIAAAAADAAAABAAAAd8AAAgAAAAAAgAAAAIAAAACAAAACW1vZGVsAGNvbXBhdGlibGUAI2FkZHJlc3MtY2VsbHMAI3NpemUtY2VsbHMAc3Rh"
	.base64	"dHVzAHJlZwBtY2xrX29ubHkAbWNsawBiY2xrAGZzAGRvAGRpAHNjbABzZGEAbGlzdF9hZGRyAGxpc3RfZHJpdmVyAGlkAHBhdGgAY2ZnAHJ0cwBjdHMAcngAdHgAYmF1ZHJhdGUAcGluAGludGVycnVwdABrZXlfdm9sAGtleV9wY2IAa2V5X2V2ZW50AGtleV9yYXcAUElYX0NMSwBGUkFNRV9WTEQATElORV9WTEQAUElYX0RBVDAAUElYX0RBVDEAUElYX0RBVDIAUElYX0RBVDMAUElYX0RBVDQAUElYX0RBVDUAUElYX0RBVDYAUElYX0RBVDcAQ0FNX1BX"
	.base64	"RE4AQ0FNX1JFRl9DTEsAbW9kZQBzZW5zb3IAY21kAGRhdDAAZGF0MQBkYXQyAGRhdDMAY291bnRyeV9jb2RlAHN0YV9tYWNfYWRkcgBhcF9tYWNfYWRkcgBzc2lkAHB3ZABhcF9jaGFubmVsAGF1dG9fY2hhbl9kZXRlY3QAeHRhbABwd3JfdGFibGUAY2hhbm5lbF9kaXZfdGFibGUAY2hhbm5lbF9jbnRfdGFibGUAbG9fZmNhbF9kaXYA"
	.zero	4
	.text
.Letext0:
	.section	.note.GNU-stack,"",@progbits
