	.file	"bl_adc.c"
	.option nopic
	.attribute arch, "rv32i2p1_m2p0_f2p2_c2p0_zicsr2p0_zmmul1p0_zca1p0_zcf1p0"
	.attribute unaligned_access, 0
	.attribute stack_align, 16
	.text
.Ltext0:
	.cfi_sections	.debug_frame
	.section	.text.adc_data_update,"ax",@progbits
	.align	1
	.type	adc_data_update, @function
adc_data_update:
.LFB34:
.LM1:
	.cfi_startproc
.LM2:
.LM3:
.LM4:
	addi	sp,sp,-16
	.cfi_def_cfa_offset 16
.LM5:
	li	a0,1
.LM6:
	sw	ra,12(sp)
	.cfi_offset 1, -4
.LM7:
	call	bl_dma_find_ctx_by_channel
.LVL0:
.LM8:
.LM9:
	beq	a0,zero,.L1
.LM10:
.LM11:
	lw	a4,12(a0)
.LM12:
	lw	a5,8(a0)
.LM13:
	bne	a4,zero,.L4
.LM14:
.LM15:
	lw	a1,4(a5)
.LM16:
	li	a5,1
.L5:
.LM17:
	sw	a5,12(a0)
.LM18:
.LM19:
	lw	a5,24(a0)
.LM20:
	sw	a1,4(a0)
.LM21:
	beq	a5,zero,.L1
.LM22:
.LM23:
	lw	a2,20(a0)
.LM24:
	lw	ra,12(sp)
	.cfi_remember_state
	.cfi_restore 1
.LM25:
	lw	a0,0(a0)
.LVL1:
.LM26:
	addi	sp,sp,16
	.cfi_def_cfa_offset 0
.LM27:
	jr	a5
.LVL2:
.L4:
	.cfi_restore_state
.LM28:
.LM29:
	lw	a1,20(a5)
.LM30:
.LM31:
	li	a5,0
	j	.L5
.L1:
.LM32:
	lw	ra,12(sp)
	.cfi_restore 1
	addi	sp,sp,16
	.cfi_def_cfa_offset 0
	jr	ra
	.cfi_endproc
.LFE34:
	.size	adc_data_update, .-adc_data_update
	.section	.text.ADC_Clock_Init,"ax",@progbits
	.align	1
	.globl	ADC_Clock_Init
	.type	ADC_Clock_Init, @function
ADC_Clock_Init:
.LVL3:
.LFB27:
.LM33:
	.cfi_startproc
.LM34:
.LM35:
	mv	a2,a0
.LM36:
	li	a1,0
	li	a0,1
.LVL4:
.LM37:
	tail	GLB_Set_ADC_CLK
.LVL5:
.LM38:
	.cfi_endproc
.LFE27:
	.size	ADC_Clock_Init, .-ADC_Clock_Init
	.section	.text.TSEN_Calibration,"ax",@progbits
	.align	1
	.globl	TSEN_Calibration
	.type	TSEN_Calibration, @function
TSEN_Calibration:
.LFB28:
.LM39:
	.cfi_startproc
.LM40:
.LM41:
	addi	sp,sp,-16
	.cfi_def_cfa_offset 16
	sw	ra,12(sp)
	.cfi_offset 1, -4
.LM42:
	call	ADC_SET_TSVBE_LOW
.LVL6:
.LM43:
	call	ADC_Start
.LVL7:
.LM44:
	li	a0,100
	call	BL602_Delay_MS
.LVL8:
.LM45:
.L13:
.LM46:
.LM47:
	call	ADC_Get_FIFO_Count
.LVL9:
.LM48:
	beq	a0,zero,.L13
.LM49:
	call	ADC_Read_FIFO
.LVL10:
.LM50:
	call	ADC_SET_TSVBE_HIGH
.LVL11:
.LM51:
	call	ADC_Start
.LVL12:
.LM52:
	li	a0,100
	call	BL602_Delay_MS
.LVL13:
.LM53:
.L14:
.LM54:
.LM55:
	call	ADC_Get_FIFO_Count
.LVL14:
.LM56:
	beq	a0,zero,.L14
.LM57:
	call	ADC_Read_FIFO
.LVL15:
.LM58:
.LM59:
	lw	ra,12(sp)
	.cfi_restore 1
	addi	sp,sp,16
	.cfi_def_cfa_offset 0
.LM60:
	tail	ADC_SET_TSVBE_LOW
.LVL16:
	.cfi_endproc
.LFE28:
	.size	TSEN_Calibration, .-TSEN_Calibration
	.section	.text.test_adc_init,"ax",@progbits
	.align	1
	.globl	test_adc_init
	.type	test_adc_init, @function
test_adc_init:
.LFB30:
.LM61:
	.cfi_startproc
.LM62:
.LM63:
	addi	sp,sp,-16
	.cfi_def_cfa_offset 16
.LM64:
	li	a0,2
.LM65:
	sw	ra,12(sp)
	.cfi_offset 1, -4
.LM66:
	call	ADC_Clock_Init
.LVL17:
.LM67:
	call	ADC_Reset
.LVL18:
.LM68:
	call	ADC_Disable
.LVL19:
.LM69:
	call	ADC_Enable
.LVL20:
.LM70:
	lui	a0,%hi(adcCfg)
	addi	a0,a0,%lo(adcCfg)
	call	ADC_Init
.LVL21:
.LM71:
	li	a2,0
	li	a1,23
	li	a0,14
	call	ADC_Channel_Config
.LVL22:
.LM72:
	li	a0,0
	call	ADC_Tsen_Init
.LVL23:
.LM73:
	lui	a0,%hi(adcFifoCfg)
	addi	a0,a0,%lo(adcFifoCfg)
	call	ADC_FIFO_Cfg
.LVL24:
.LM74:
	call	TSEN_Calibration
.LVL25:
.LM75:
.LM76:
	lw	ra,12(sp)
	.cfi_restore 1
	li	a0,0
	addi	sp,sp,16
	.cfi_def_cfa_offset 0
	jr	ra
	.cfi_endproc
.LFE30:
	.size	test_adc_init, .-test_adc_init
	.section	.text.test_adc_get,"ax",@progbits
	.align	1
	.globl	test_adc_get
	.type	test_adc_get, @function
test_adc_get:
.LVL26:
.LFB31:
.LM77:
	.cfi_startproc
.LM78:
.LM79:
.LM80:
	addi	sp,sp,-48
	.cfi_def_cfa_offset 48
	sw	s0,40(sp)
	sw	s1,36(sp)
	sw	s2,32(sp)
	sw	s3,28(sp)
	sw	ra,44(sp)
	.cfi_offset 8, -8
	.cfi_offset 9, -12
	.cfi_offset 18, -16
	.cfi_offset 19, -20
	.cfi_offset 1, -4
.LM81:
	mv	s3,a0
.LM82:
	sw	zero,4(sp)
.LM83:
.LM84:
.LM85:
.LVL27:
.LM86:
.LM87:
.LM88:
	li	s1,0
.LM89:
	li	s2,0
.LM90:
	li	s0,0
.LVL28:
.L29:
.LM91:
	call	ADC_Start
.LVL29:
.LM92:
.L23:
.LM93:
.LM94:
	call	ADC_Get_FIFO_Count
.LVL30:
.LM95:
	beq	a0,zero,.L24
.L27:
.LM96:
.LM97:
.LM98:
	call	ADC_Read_FIFO
.LVL31:
.LM99:
	sw	a0,4(sp)
.LM100:
	addi	a2,sp,8
	li	a1,1
	addi	a0,sp,4
	call	ADC_Parse_Result
.LVL32:
.LM101:
	lhu	a5,10(sp)
.LM102:
	bne	s0,zero,.L25
.LM103:
.LVL33:
.LM104:
	mv	s2,a5
.LVL34:
.L26:
.LM105:
.LM106:
	call	ADC_Get_FIFO_Count
.LVL35:
.LM107:
	bne	a0,zero,.L27
.LM108:
.LM109:
	bne	s0,zero,.L28
.LM110:
.LM111:
	call	ADC_SET_TSVBE_HIGH
.LVL36:
.LM112:
.LM113:
.LM114:
	li	s0,1
	j	.L29
.LVL37:
.L24:
.LBB9:
.LM115:
.LM116:
	li	a0,1
	call	aos_msleep
.LVL38:
	j	.L23
.L25:
.LBE9:
.LM117:
.LVL39:
.LM118:
	mv	s1,a5
	j	.L26
.LVL40:
.L28:
.LM119:
.LM120:
	fcvt.s.w	fa4,s1
.LM121:
	fcvt.s.w	fa5,s2
.LM122:
	lui	a5,%hi(.LC1)
	flw	fa0,%lo(.LC1)(a5)
.LM123:
	fsub.s	fa5,fa5,fa4
.LVL41:
.LM124:
.LM125:
.LM126:
	fsub.s	fa0,fa5,fa0
.LVL42:
.LM127:
	call	__extendsfdf2
.LVL43:
.LM128:
	lui	a5,%hi(.LC2)
	lw	a2,%lo(.LC2)(a5)
	lw	a3,%lo(.LC2+4)(a5)
	call	__divdf3
.LVL44:
.LM129:
.LM130:
	call	__truncdfsf2
.LVL45:
.LM131:
	fcvt.w.s a5,fa0,rtz
	sh	a5,0(s3)
.LM132:
.LM133:
	call	ADC_SET_TSVBE_LOW
.LVL46:
.LM134:
.LM135:
.LM136:
.LM137:
	lw	ra,44(sp)
	.cfi_restore 1
	lw	s0,40(sp)
	.cfi_restore 8
	lw	s1,36(sp)
	.cfi_restore 9
	lw	s2,32(sp)
	.cfi_restore 18
	lw	s3,28(sp)
	.cfi_restore 19
.LVL47:
.LM138:
	li	a0,0
	addi	sp,sp,48
	.cfi_def_cfa_offset 0
	jr	ra
	.cfi_endproc
.LFE31:
	.size	test_adc_get, .-test_adc_get
	.section	.text.test_adc_test,"ax",@progbits
	.align	1
	.globl	test_adc_test
	.type	test_adc_test, @function
test_adc_test:
.LFB32:
.LM139:
	.cfi_startproc
.LM140:
.LBB12:
.LBI12:
.LM141:
.LBB13:
.LM142:
.LM143:
.LBE13:
.LBE12:
.LM144:
	addi	sp,sp,-32
	.cfi_def_cfa_offset 32
	sw	ra,28(sp)
	sw	s0,24(sp)
	sw	s1,20(sp)
	.cfi_offset 1, -4
	.cfi_offset 8, -8
	.cfi_offset 9, -12
.LBB16:
.LBB14:
.LM145:
	sw	zero,4(sp)
.LM146:
.LVL48:
.LM147:
.LM148:
.LM149:
	call	ADC_Reset
.LVL49:
.LM150:
	call	ADC_Disable
.LVL50:
.LM151:
	call	ADC_Enable
.LVL51:
.LM152:
	lui	a0,%hi(adcCfg)
	addi	a0,a0,%lo(adcCfg)
	call	ADC_Init
.LVL52:
.LM153:
	li	a2,0
	li	a1,23
	li	a0,14
	call	ADC_Channel_Config
.LVL53:
.LM154:
	li	a0,0
	call	ADC_Tsen_Init
.LVL54:
.LM155:
	lui	a0,%hi(adcFifoCfg)
	addi	a0,a0,%lo(adcFifoCfg)
	call	ADC_FIFO_Cfg
.LVL55:
.LM156:
	call	TSEN_Calibration
.LVL56:
.LM157:
.LM158:
.LM159:
	li	s0,0
.LM160:
	li	s1,40
.LVL57:
.L37:
.LM161:
	call	ADC_Start
.LVL58:
.LM162:
.L33:
.LM163:
.LM164:
	call	ADC_Get_FIFO_Count
.LVL59:
.LM165:
	beq	a0,zero,.L33
.L34:
.LM166:
.LM167:
.LM168:
	call	ADC_Read_FIFO
.LVL60:
.LM169:
	sw	a0,4(sp)
.LM170:
	addi	a2,sp,8
	li	a1,1
	addi	a0,sp,4
	call	ADC_Parse_Result
.LVL61:
.LM171:
.LM172:
.LM173:
.LM174:
	call	ADC_Get_FIFO_Count
.LVL62:
.LM175:
	bne	a0,zero,.L34
.LM176:
.LM177:
	andi	a5,s0,1
	beq	a5,zero,.L35
.LM178:
.LM179:
.LM180:
.LVL63:
.LM181:
.LM182:
.LM183:
.LM184:
	call	ADC_SET_TSVBE_LOW
.LVL64:
.L36:
.LM185:
.LM186:
	addi	s0,s0,1
.LVL65:
.LM187:
	li	a0,500
.LM188:
	andi	s0,s0,0xff
.LM189:
	call	BL602_Delay_MS
.LVL66:
.LM190:
.LM191:
	bne	s0,s1,.L37
.LVL67:
.LM192:
.LBE14:
.LBE16:
.LM193:
.LM194:
	lw	ra,28(sp)
	.cfi_remember_state
	.cfi_restore 1
	lw	s0,24(sp)
	.cfi_restore 8
	lw	s1,20(sp)
	.cfi_restore 9
	li	a0,0
	addi	sp,sp,32
	.cfi_def_cfa_offset 0
	jr	ra
.LVL68:
.L35:
	.cfi_restore_state
.LBB17:
.LBB15:
.LM195:
.LM196:
.LM197:
.LM198:
	call	ADC_SET_TSVBE_HIGH
.LVL69:
	j	.L36
.LBE15:
.LBE17:
	.cfi_endproc
.LFE32:
	.size	test_adc_test, .-test_adc_test
	.section	.rodata.bl_tsen_adc_get.str1.4,"aMS",@progbits,1
	.align	2
.LC3:
	.string	"bl_adc.c"
	.align	2
.LC4:
	.string	"\033[31mERROR \033[0m"
	.align	2
.LC5:
	.string	"[%10u][%s: %s:%4d] read efuse data failed\r\n"
	.align	2
.LC6:
	.string	"\033[32mINFO  \033[0m"
	.align	2
.LC7:
	.string	"[%10u][%s: %s:%4d] offset = %d\r\n"
	.align	2
.LC8:
	.string	"temperature = %f Celsius\r\n"
	.section	.text.bl_tsen_adc_get,"ax",@progbits
	.align	1
	.globl	bl_tsen_adc_get
	.type	bl_tsen_adc_get, @function
bl_tsen_adc_get:
.LVL70:
.LFB33:
.LM199:
	.cfi_startproc
.LM200:
.LM201:
.LM202:
.LM203:
	addi	sp,sp,-80
	.cfi_def_cfa_offset 80
	sw	s0,72(sp)
	.cfi_offset 8, -8
.LM204:
	lui	s0,%hi(tsen_offset.0)
.LM205:
	lhu	a4,%lo(tsen_offset.0)(s0)
	li	a5,65536
.LM206:
	sw	s1,68(sp)
	sw	s3,60(sp)
	sw	ra,76(sp)
	sw	s2,64(sp)
	fsw	fs0,44(sp)
	.cfi_offset 9, -12
	.cfi_offset 19, -20
	.cfi_offset 1, -4
	.cfi_offset 18, -16
	.cfi_offset 40, -36
.LM207:
	addi	a5,a5,-1
.LM208:
	mv	s1,a0
	mv	s3,a1
.LM209:
	bne	a4,a5,.L44
.LBB18:
.LM210:
.LM211:
	lui	a1,%hi(.LANCHOR0)
.LVL71:
.LM212:
	li	a2,14
	addi	a1,a1,%lo(.LANCHOR0)
	addi	a0,sp,16
.LVL72:
.LM213:
	sh	zero,%lo(tsen_offset.0)(s0)
.LM214:
.LM215:
	call	memcpy
.LVL73:
.LM216:
.LM217:
	li	a2,7
	li	a1,0
	li	a0,1
.LM218:
	sh	zero,12(sp)
.LM219:
	call	GLB_Set_ADC_CLK
.LVL74:
.LM220:
	call	ADC_Disable
.LVL75:
.LM221:
	call	ADC_Enable
.LVL76:
.LM222:
	call	ADC_Reset
.LVL77:
.LM223:
	addi	a0,sp,16
	call	ADC_Init
.LVL78:
.LM224:
	li	a2,0
	li	a1,23
	li	a0,14
	call	ADC_Channel_Config
.LVL79:
.LM225:
	li	a0,0
	call	ADC_Tsen_Init
.LVL80:
.LM226:
	addi	a0,sp,12
	call	ADC_FIFO_Cfg
.LVL81:
.LM227:
.LM228:
	addi	a0,s0,%lo(tsen_offset.0)
	call	ADC_Trim_TSEN
.LVL82:
.LBB19:
.LBB20:
.LM229:
	lui	a5,%hi(TrapNetCounter)
.LBE20:
.LBE19:
.LM230:
	li	a4,1
.LBB23:
.LBB21:
.LM231:
	lw	a5,%lo(TrapNetCounter)(a5)
	lui	s2,%hi(.LC3)
.LBE21:
.LBE23:
.LM232:
	bne	a0,a4,.L45
.LM233:
.LM234:
.LM235:
.LBB24:
.LBI19:
.LM236:
.LBB22:
.LM237:
.LBE22:
.LBE24:
.LM238:
	beq	a5,zero,.L46
.LM239:
	call	xTaskGetTickCountFromISR
.LVL83:
.L60:
.LM240:
	mv	a1,a0
.LM241:
	lui	a2,%hi(.LC4)
	lui	a0,%hi(.LC5)
	li	a4,267
	addi	a3,s2,%lo(.LC3)
	addi	a2,a2,%lo(.LC4)
	addi	a0,a0,%lo(.LC5)
	call	bl_printk
.LVL84:
.LM242:
.LM243:
.L44:
.LBE18:
.LM244:
.LM245:
	lhu	a0,%lo(tsen_offset.0)(s0)
	call	TSEN_Get_Temp
.LVL85:
	fmv.s	fs0,fa0
.LVL86:
.LM246:
.LM247:
	beq	s3,zero,.L51
.LM248:
	call	__extendsfdf2
.LVL87:
	mv	a2,a0
	lui	a0,%hi(.LC8)
	mv	a3,a1
	addi	a0,a0,%lo(.LC8)
	call	printf
.LVL88:
.L51:
.LM249:
.LM250:
	beq	s1,zero,.L52
.LM251:
.LM252:
	fcvt.w.s a5,fs0,rtz
	sh	a5,0(s1)
.L52:
.LM253:
.LM254:
	lw	ra,76(sp)
	.cfi_remember_state
	.cfi_restore 1
	lw	s0,72(sp)
	.cfi_restore 8
	lw	s1,68(sp)
	.cfi_restore 9
.LVL89:
.LM255:
	lw	s2,64(sp)
	.cfi_restore 18
	lw	s3,60(sp)
	.cfi_restore 19
.LVL90:
.LM256:
	flw	fs0,44(sp)
	.cfi_restore 40
.LVL91:
.LM257:
	li	a0,0
	addi	sp,sp,80
	.cfi_def_cfa_offset 0
	jr	ra
.LVL92:
.L46:
	.cfi_restore_state
.LBB25:
.LM258:
	call	xTaskGetTickCount
.LVL93:
	j	.L60
.L45:
.LM259:
.LM260:
.LM261:
.LM262:
	beq	a5,zero,.L49
.LM263:
	call	xTaskGetTickCountFromISR
.LVL94:
.L61:
.LM264:
	lhu	a5,%lo(tsen_offset.0)(s0)
.LM265:
	mv	a1,a0
.LM266:
	lui	a2,%hi(.LC6)
	lui	a0,%hi(.LC7)
	li	a4,269
	addi	a3,s2,%lo(.LC3)
	addi	a2,a2,%lo(.LC6)
	addi	a0,a0,%lo(.LC7)
	call	bl_printk
.LVL95:
.LM267:
.LM268:
	j	.L44
.L49:
.LM269:
	call	xTaskGetTickCount
.LVL96:
	j	.L61
.LBE25:
	.cfi_endproc
.LFE33:
	.size	bl_tsen_adc_get, .-bl_tsen_adc_get
	.section	.text.bl_adc_freq_init,"ax",@progbits
	.align	1
	.globl	bl_adc_freq_init
	.type	bl_adc_freq_init, @function
bl_adc_freq_init:
.LVL97:
.LFB35:
.LM270:
	.cfi_startproc
.LM271:
.LM272:
.LM273:
.LM274:
.LM275:
	snez	a0,a0
.LVL98:
.LM276:
	neg	a0,a0
	andi	a0,a0,-11
.LM277:
	li	a5,4096
	addi	a5,a5,-1024
.LM278:
	addi	a0,a0,12
.LVL99:
.LM279:
.LM280:
	mul	a0,a0,a5
.LVL100:
.LM281:
	li	a5,96002048
	addi	a5,a5,-2048
.LM282:
	addi	sp,sp,-16
	.cfi_def_cfa_offset 16
	sw	ra,12(sp)
	.cfi_offset 1, -4
.LM283:
	divu	a5,a5,a0
.LVL101:
.LM284:
.LM285:
	divu	a3,a5,a1
.LVL102:
.LM286:
.LM287:
	addi	a2,a3,1
.LM288:
	mul	a4,a2,a1
.LM289:
	sub	a4,a4,a5
.LM290:
	remu	a5,a5,a1
.LVL103:
.LM291:
	bltu	a4,a5,.L64
.LM292:
	mv	a2,a3
.L64:
.LVL104:
.LM293:
.LM294:
.LM295:
	li	a5,64
	bleu	a2,a5,.L65
	mv	a2,a5
.LVL105:
.L65:
.LM296:
	addi	a2,a2,-1
	andi	a2,a2,0xff
	li	a1,0
.LVL106:
.LM297:
	li	a0,1
.LVL107:
.LM298:
	call	GLB_Set_ADC_CLK
.LVL108:
.LM299:
.LM300:
	lw	ra,12(sp)
	.cfi_restore 1
	li	a0,0
	addi	sp,sp,16
	.cfi_def_cfa_offset 0
	jr	ra
	.cfi_endproc
.LFE35:
	.size	bl_adc_freq_init, .-bl_adc_freq_init
	.section	.text.bl_adc_dma_init,"ax",@progbits
	.align	1
	.globl	bl_adc_dma_init
	.type	bl_adc_dma_init, @function
bl_adc_dma_init:
.LVL109:
.LFB38:
.LM301:
	.cfi_startproc
.LM302:
.LM303:
.LM304:
.LM305:
.LM306:
.LM307:
	bne	a1,zero,.L69
.LM308:
	li	a0,-1
.LVL110:
.LM309:
	ret
.LVL111:
.L71:
	.cfi_def_cfa_offset 48
	.cfi_offset 1, -4
	.cfi_offset 8, -8
	.cfi_offset 9, -12
	.cfi_offset 18, -16
	.cfi_offset 19, -20
	.cfi_offset 20, -24
.LM310:
	li	a0,-1
.L68:
.LM311:
	lw	ra,44(sp)
	.cfi_restore 1
	lw	s0,40(sp)
	.cfi_restore 8
	lw	s1,36(sp)
	.cfi_restore 9
.LVL112:
.LM312:
	lw	s2,32(sp)
	.cfi_restore 18
.LVL113:
.LM313:
	lw	s3,28(sp)
	.cfi_restore 19
	lw	s4,24(sp)
	.cfi_restore 20
.LVL114:
.LM314:
	addi	sp,sp,48
	.cfi_def_cfa_offset 0
	jr	ra
.LVL115:
.L69:
.LM315:
	addi	sp,sp,-48
	.cfi_def_cfa_offset 48
	sw	s4,24(sp)
	.cfi_offset 20, -24
	mv	s4,a0
.LM316:
.LM317:
	li	a0,28
.LVL116:
.LM318:
	sw	s1,36(sp)
	sw	s2,32(sp)
	sw	ra,44(sp)
	sw	s0,40(sp)
	sw	s3,28(sp)
	.cfi_offset 9, -12
	.cfi_offset 18, -16
	.cfi_offset 1, -4
	.cfi_offset 8, -8
	.cfi_offset 19, -20
	mv	s2,a1
.LM319:
	call	pvPortMalloc
.LVL117:
.LM320:
	mv	s1,a0
.LVL118:
.LM321:
.LM322:
	beq	a0,zero,.L71
.LM323:
.LM324:
	li	a0,32
	call	pvPortMalloc
.LVL119:
	mv	s0,a0
.LVL120:
.LM325:
.LM326:
	beq	a0,zero,.L71
.LM327:
.LM328:
	slli	a0,s2,3
	call	pvPortMalloc
.LVL121:
	mv	s3,a0
.LVL122:
.LM329:
.LM330:
	beq	a0,zero,.L71
.LM331:
.LM332:
.LM333:
.LM334:
	li	a5,4096
	addi	a5,a5,1538
.LM335:
	li	a0,1
.LVL123:
.LM336:
	sh	a5,12(sp)
.LM337:
	sb	zero,14(sp)
.LM338:
	call	DMA_Channel_Disable
.LVL124:
.LM339:
.LBB28:
.LBI28:
.LM340:
.LBB29:
.LM341:
.LM342:
.LM343:
.LM344:
.LM345:
.LM346:
.LM347:
.LM348:
.LM349:
.LM350:
.LM351:
.LM352:
.LM353:
	addi	a5,s0,16
.LM354:
	sw	a5,8(s0)
.LM355:
	slli	a5,s2,20
	li	a4,-2008547328
	srli	a5,a5,20
	or	a5,a5,a4
	lw	a4,12(s0)
	li	a2,33554432
.LM356:
	li	a3,1073750016
.LM357:
	and	a4,a4,a2
	or	a4,a5,a4
	sw	a4,12(s0)
.LM358:
	lw	a4,28(s0)
.LM359:
	addi	a3,a3,4
.LM360:
	sw	s3,4(s0)
.LM361:
	and	a4,a4,a2
	or	a5,a5,a4
.LM362:
	addi	s3,s3,48
.LVL125:
.LM363:
	sw	a3,0(s0)
.LM364:
.LM365:
.LM366:
.LM367:
.LM368:
	sw	a3,16(s0)
.LM369:
.LM370:
	sw	a5,28(s0)
.LBE29:
.LBE28:
.LM371:
	addi	a1,sp,12
	li	a0,1
.LBB31:
.LBB30:
.LM372:
	sw	s3,20(s0)
.LM373:
.LM374:
	sw	s0,24(s0)
.LM375:
.LM376:
.LVL126:
.LM377:
.LBE30:
.LBE31:
.LM378:
	call	DMA_LLI_Init
.LVL127:
.LM379:
	mv	a1,s0
	li	a0,1
	call	DMA_LLI_Update
.LVL128:
.LM380:
.LM381:
	lui	a1,%hi(adc_data_update)
.LM382:
	sw	s4,0(s1)
.LM383:
.LM384:
	sw	s0,8(s1)
.LM385:
.LM386:
	sw	zero,12(s1)
.LM387:
.LM388:
	sw	zero,16(s1)
.LM389:
.LM390:
	sw	zero,4(s1)
.LM391:
.LM392:
	sw	s2,20(s1)
.LM393:
.LM394:
	sw	zero,24(s1)
.LM395:
	mv	a3,s1
	li	a2,0
	addi	a1,a1,%lo(adc_data_update)
	li	a0,1
	call	bl_dma_irq_register
.LVL129:
.LM396:
.LM397:
	li	a0,0
	j	.L68
	.cfi_endproc
.LFE38:
	.size	bl_adc_dma_init, .-bl_adc_dma_init
	.section	.text.bl_adc_start,"ax",@progbits
	.align	1
	.globl	bl_adc_start
	.type	bl_adc_start, @function
bl_adc_start:
.LFB39:
.LM398:
	.cfi_startproc
.LM399:
	li	a2,1
.LM400:
	addi	sp,sp,-16
	.cfi_def_cfa_offset 16
.LM401:
	mv	a0,a2
	li	a1,2
.LM402:
	sw	ra,12(sp)
	.cfi_offset 1, -4
.LM403:
	call	DMA_IntMask
.LVL130:
.LM404:
	li	a2,0
	li	a1,0
	li	a0,1
	call	DMA_IntMask
.LVL131:
.LM405:
	li	a1,1
	mv	a0,a1
	li	a2,0
	call	DMA_IntMask
.LVL132:
.LM406:
	call	ADC_Start
.LVL133:
.LM407:
	call	DMA_Enable
.LVL134:
.LM408:
	li	a0,1
	call	DMA_Channel_Enable
.LVL135:
.LM409:
.LM410:
	lw	ra,12(sp)
	.cfi_restore 1
	li	a0,0
	addi	sp,sp,16
	.cfi_def_cfa_offset 0
	jr	ra
	.cfi_endproc
.LFE39:
	.size	bl_adc_start, .-bl_adc_start
	.section	.text.bl_adc_gpio_init,"ax",@progbits
	.align	1
	.globl	bl_adc_gpio_init
	.type	bl_adc_gpio_init, @function
bl_adc_gpio_init:
.LVL136:
.LFB40:
.LM411:
	.cfi_startproc
.LM412:
.LM413:
	addi	sp,sp,-32
	.cfi_def_cfa_offset 32
.LM414:
	sb	a0,15(sp)
.LM415:
	addi	a1,sp,15
	li	a2,1
	li	a0,10
.LVL137:
.LM416:
	sw	ra,28(sp)
	.cfi_offset 1, -4
.LM417:
	call	GLB_GPIO_Func_Init
.LVL138:
.LM418:
.LM419:
	lw	ra,28(sp)
	.cfi_restore 1
	li	a0,0
	addi	sp,sp,32
	.cfi_def_cfa_offset 0
	jr	ra
	.cfi_endproc
.LFE40:
	.size	bl_adc_gpio_init, .-bl_adc_gpio_init
	.section	.text.bl_adc_parse_data,"ax",@progbits
	.align	1
	.globl	bl_adc_parse_data
	.type	bl_adc_parse_data, @function
bl_adc_parse_data:
.LVL139:
.LFB42:
.LM420:
	.cfi_startproc
.LM421:
.LM422:
.LM423:
.LM424:
	li	a4,0
.LVL140:
.L89:
.LM425:
	blt	a4,a1,.L93
.LM426:
	li	a0,-1
.LVL141:
.L88:
.LM427:
	ret
.LVL142:
.L93:
.LM428:
.LM429:
	slli	a5,a4,2
	add	a5,a0,a5
	lw	a5,0(a5)
.LM430:
	srli	a6,a5,21
.LM431:
	bne	a6,a2,.L90
.LM432:
	slli	a0,a5,16
.LVL143:
.LM433:
	srli	a0,a0,16
.LM434:
	beq	a3,zero,.L88
.LM435:
.LVL144:
.LBB32:
.LBI32:
.LM436:
.LBB33:
.LM437:
.LM438:
.LM439:
.LM440:
.LM441:
	li	a5,4096
	addi	a5,a5,-896
	mul	a0,a0,a5
.LM442:
	srli	a0,a0,16
.LVL145:
.LM443:
.LBE33:
.LBE32:
.LM444:
.LM445:
	ret
.LVL146:
.L90:
.LM446:
	addi	a4,a4,1
.LVL147:
.LM447:
	j	.L89
	.cfi_endproc
.LFE42:
	.size	bl_adc_parse_data, .-bl_adc_parse_data
	.section	.text.bl_adc_get_channel_by_gpio,"ax",@progbits
	.align	1
	.globl	bl_adc_get_channel_by_gpio
	.type	bl_adc_get_channel_by_gpio, @function
bl_adc_get_channel_by_gpio:
.LVL148:
.LFB43:
.LM448:
	.cfi_startproc
.LM449:
.LM450:
	addi	a0,a0,-4
.LVL149:
.LM451:
	li	a5,11
	bgtu	a0,a5,.L96
	lui	a5,%hi(CSWTCH.42)
	addi	a5,a5,%lo(CSWTCH.42)
	add	a5,a5,a0
	lb	a0,0(a5)
.LVL150:
.LM452:
	ret
.L96:
.LM453:
	li	a0,-1
.LM454:
	ret
	.cfi_endproc
.LFE43:
	.size	bl_adc_get_channel_by_gpio, .-bl_adc_get_channel_by_gpio
	.section	.text.bl_adc_init,"ax",@progbits
	.align	1
	.globl	bl_adc_init
	.type	bl_adc_init, @function
bl_adc_init:
.LVL151:
.LFB36:
.LM455:
	.cfi_startproc
.LM456:
.LM457:
.LM458:
.LM459:
.LM460:
.LM461:
.LM462:
.LM463:
.LM464:
.LM465:
.LM466:
.LM467:
.LM468:
.LM469:
.LM470:
.LM471:
.LM472:
.LM473:
.LM474:
.LM475:
.LM476:
	li	a5,393216
.LM477:
	addi	sp,sp,-80
	.cfi_def_cfa_offset 80
.LM478:
	addi	a5,a5,258
	sw	a5,48(sp)
.LM479:
	li	a5,196608
.LM480:
	sw	ra,76(sp)
	sw	a1,12(sp)
.LM481:
	sw	a5,56(sp)
.LM482:
	sw	s0,72(sp)
	sw	s1,68(sp)
	.cfi_offset 1, -4
	.cfi_offset 8, -8
	.cfi_offset 9, -12
	mv	s0,a0
	sw	s2,64(sp)
	.cfi_offset 18, -16
.LM483:
	sw	zero,52(sp)
.LM484:
	sh	zero,60(sp)
.LM485:
	call	ADC_Disable
.LVL152:
.LM486:
	call	ADC_Enable
.LVL153:
.LM487:
	call	ADC_Reset
.LVL154:
.LM488:
	addi	a0,sp,48
	call	ADC_Init
.LVL155:
.LM489:
	addi	s1,sp,24
	addi	s2,sp,36
.LM490:
	bne	s0,zero,.L98
.LM491:
	li	a3,23
.LM492:
	li	a5,12
.LVL156:
.L99:
.LM493:
.LM494:
	add	a4,s1,s0
	sb	s0,0(a4)
.LM495:
.LM496:
	add	a4,s2,s0
	sb	a3,0(a4)
.LM497:
	addi	s0,s0,1
.LVL157:
.LM498:
	bne	s0,a5,.L99
.LVL158:
.L100:
.LM499:
	andi	a2,s0,0xff
	mv	a1,s2
	mv	a0,s1
	li	a3,1
	call	ADC_Scan_Channel_Config
.LVL159:
.LM500:
.LM501:
.LM502:
	addi	a0,sp,20
.LM503:
	li	a5,256
	sh	a5,20(sp)
.LM504:
	call	ADC_FIFO_Cfg
.LVL160:
.LM505:
.LM506:
	lw	ra,76(sp)
	.cfi_remember_state
	.cfi_restore 1
	lw	s0,72(sp)
	.cfi_restore 8
.LVL161:
.LM507:
	lw	s1,68(sp)
	.cfi_restore 9
	lw	s2,64(sp)
	.cfi_restore 18
	li	a0,0
	addi	sp,sp,80
	.cfi_def_cfa_offset 0
.LVL162:
.LM508:
	jr	ra
.LVL163:
.L98:
	.cfi_restore_state
.LM509:
.LM510:
	lw	a0,12(sp)
.LM511:
	li	s0,1
.LVL164:
.LM512:
	call	bl_adc_get_channel_by_gpio
.LVL165:
.LM513:
.LM514:
	li	a5,23
.LM515:
	sb	a0,24(sp)
.LM516:
.LM517:
	sb	a5,36(sp)
.LM518:
.LVL166:
.LM519:
	j	.L100
	.cfi_endproc
.LFE36:
	.size	bl_adc_init, .-bl_adc_init
	.section	.rodata.CSWTCH.42,"a"
	.align	2
	.type	CSWTCH.42, @object
	.size	CSWTCH.42, 12
CSWTCH.42:
	.byte	1
	.byte	4
	.byte	5
	.byte	-1
	.byte	-1
	.byte	7
	.byte	9
	.byte	10
	.byte	0
	.byte	3
	.byte	2
	.byte	11
	.section	.sdata.tsen_offset.0,"aw"
	.align	1
	.type	tsen_offset.0, @object
	.size	tsen_offset.0, 2
tsen_offset.0:
	.half	-1
	.globl	adcFifoCfg
	.section	.sbss.adcFifoCfg,"aw",@nobits
	.align	2
	.type	adcFifoCfg, @object
	.size	adcFifoCfg, 2
adcFifoCfg:
	.zero	2
	.globl	adcCfg
	.section	.data.adcCfg,"aw"
	.align	2
	.type	adcCfg, @object
	.size	adcCfg, 14
adcCfg:
	.byte	2
	.byte	1
	.byte	4
	.byte	0
	.byte	0
	.byte	2
	.byte	0
	.byte	0
	.byte	1
	.byte	0
	.byte	4
	.byte	0
	.half	0
	.section	.srodata.cst4,"aM",@progbits,4
	.align	2
.LC1:
	.word	1158733824
	.section	.srodata.cst8,"aM",@progbits,8
	.align	3
.LC2:
	.word	1855425872
	.word	1075774226
	.section	.rodata
	.align	2
	.set	.LANCHOR0,. + 0
.LC0:
	.byte	2
	.byte	1
	.byte	7
	.byte	1
	.byte	1
	.byte	2
	.byte	0
	.byte	0
	.byte	1
	.byte	0
	.byte	4
	.byte	0
	.half	0
	.text
.Letext0:
	.section	.note.GNU-stack,"",@progbits
