	.file	"bl_boot2.c"
	.option nopic
	.attribute arch, "rv32i2p1_m2p0_f2p2_c2p0_zicsr2p0_zmmul1p0_zca1p0_zcf1p0"
	.attribute unaligned_access, 0
	.attribute stack_align, 16
	.text
.Ltext0:
	.cfi_sections	.debug_frame
	.section	.text.PtTable_Update_Entry,"ax",@progbits
	.align	1
	.globl	PtTable_Update_Entry
	.type	PtTable_Update_Entry, @function
PtTable_Update_Entry:
.LVL0:
.LFB8:
.LM1:
	.cfi_startproc
.LM2:
.LM3:
.LM4:
.LM5:
.LM6:
.LM7:
.LM8:
.LM9:
.LM10:
	beq	a2,zero,.L11
	beq	a3,zero,.L11
.LM11:
.LVL1:
.LM12:
.LM13:
.LM14:
	li	a5,2
.LM15:
	li	a0,1
.LVL2:
.LM16:
	beq	a1,a5,.L16
.LM17:
	addi	sp,sp,-48
	.cfi_def_cfa_offset 48
	sw	s2,32(sp)
	sw	s3,28(sp)
	sw	ra,44(sp)
	sw	s0,40(sp)
	sw	s1,36(sp)
	.cfi_offset 18, -16
	.cfi_offset 19, -20
	.cfi_offset 1, -4
	.cfi_offset 8, -8
	.cfi_offset 9, -12
.LM18:
	addi	s2,a2,16
.LVL3:
.LM19:
.LM20:
	li	s3,61440
.LM21:
	bne	a1,zero,.L3
.LM22:
	li	s3,57344
.L3:
.LM23:
	lhu	a5,6(a2)
	mv	a1,a3
.LVL4:
.LM24:
	mv	s0,a2
.LVL5:
.LM25:
.LM26:
	mv	a0,s2
.LM27:
	li	s1,0
.LVL6:
.L4:
.LM28:
	bleu	a5,s1,.L6
.LM29:
.LM30:
	lbu	a3,0(a0)
	lbu	a4,0(a1)
	bne	a3,a4,.L5
.LM31:
	li	a2,36
	sw	a1,12(sp)
	call	memcpy
.LVL7:
.LM32:
	lw	a1,12(sp)
.LVL8:
.L6:
.LM33:
.LM34:
	lhu	a5,6(s0)
.LM35:
	bne	a5,s1,.L8
.LM36:
.LM37:
	li	a5,15
.LM38:
	li	a0,3
.LM39:
	bgtu	s1,a5,.L2
.LM40:
.LM41:
	li	a2,36
	mul	a0,s1,a2
.LM42:
	add	a0,s2,a0
	call	memcpy
.LVL9:
.LM43:
.LM44:
	lhu	a5,6(s0)
	addi	a5,a5,1
	sh	a5,6(s0)
.L8:
.LM45:
.LM46:
	lw	a5,8(s0)
.LM47:
	li	a1,12
	mv	a0,s0
.LM48:
	addi	a5,a5,1
	sw	a5,8(s0)
.LM49:
.LM50:
	call	BFLB_Soft_CRC32
.LVL10:
.LM51:
	lhu	s1,6(s0)
.LVL11:
.LM52:
	li	a5,36
.LM53:
	sw	a0,12(s0)
.LM54:
.LM55:
	mul	s1,s1,a5
.LVL12:
.LM56:
.LM57:
.LM58:
	mv	a0,s2
	mv	a1,s1
	call	BFLB_Soft_CRC32
.LVL13:
.LM59:
	add	s2,s2,s1
.LVL14:
.LM60:
	sw	a0,0(s2)
.LM61:
.LM62:
	addi	a1,s1,20
	mv	a0,s3
	call	bl_flash_erase
.LVL15:
.LM63:
.LM64:
	andi	a0,a0,0xff
.LM65:
	beq	a0,zero,.L9
.LVL16:
.L10:
.LM66:
	li	a0,7
.LVL17:
.L2:
.LM67:
	lw	ra,44(sp)
	.cfi_remember_state
	.cfi_restore 1
	lw	s0,40(sp)
	.cfi_restore 8
.LVL18:
.LM68:
	lw	s1,36(sp)
	.cfi_restore 9
	lw	s2,32(sp)
	.cfi_restore 18
	lw	s3,28(sp)
	.cfi_restore 19
.LVL19:
.LM69:
	addi	sp,sp,48
	.cfi_def_cfa_offset 0
	jr	ra
.LVL20:
.L5:
	.cfi_restore_state
.LM70:
	addi	a0,a0,36
.LM71:
	addi	s1,s1,1
.LVL21:
.LM72:
	j	.L4
.LVL22:
.L9:
.LM73:
.LM74:
	li	a2,596
	mv	a1,s0
	mv	a0,s3
.LVL23:
.LM75:
	call	bl_flash_write
.LVL24:
.LM76:
	andi	a0,a0,0xff
.LVL25:
.LM77:
.LM78:
	beq	a0,zero,.L2
	j	.L10
.LVL26:
.L11:
	.cfi_def_cfa_offset 0
	.cfi_restore 1
	.cfi_restore 8
	.cfi_restore 9
	.cfi_restore 18
	.cfi_restore 19
.LM79:
	li	a0,5
.LVL27:
.LM80:
	ret
.LVL28:
.L16:
.LM81:
	ret
	.cfi_endproc
.LFE8:
	.size	PtTable_Update_Entry, .-PtTable_Update_Entry
	.section	.text.PtTable_Get_Active_Entries,"ax",@progbits
	.align	1
	.globl	PtTable_Get_Active_Entries
	.type	PtTable_Get_Active_Entries, @function
PtTable_Get_Active_Entries:
.LVL29:
.LFB9:
.LM82:
	.cfi_startproc
.LM83:
.LM84:
.LM85:
	beq	a2,zero,.L24
	mv	a4,a0
	beq	a0,zero,.L24
.LM86:
	lhu	a0,6(a0)
.LVL30:
.LM87:
	addi	a3,a4,16
.LM88:
	li	a5,0
.LVL31:
.L21:
.LM89:
	bgtu	a0,a5,.L23
.LM90:
	li	a0,2
	ret
.L23:
.LM91:
.LM92:
	lbu	a6,0(a3)
	addi	a3,a3,36
	bne	a6,a1,.L22
	mv	a0,a2
.LM93:
.LM94:
	li	a2,36
.LVL32:
.LM95:
	mul	a5,a5,a2
.LVL33:
.LM96:
	addi	sp,sp,-16
	.cfi_def_cfa_offset 16
	sw	ra,12(sp)
	.cfi_offset 1, -4
.LM97:
	addi	a5,a5,16
.LM98:
	add	a1,a4,a5
.LVL34:
.LM99:
	call	memcpy
.LVL35:
.LM100:
.LM101:
	lw	ra,12(sp)
	.cfi_restore 1
.LM102:
	li	a0,0
.LM103:
	addi	sp,sp,16
	.cfi_def_cfa_offset 0
	jr	ra
.LVL36:
.L22:
.LM104:
	addi	a5,a5,1
.LVL37:
.LM105:
	j	.L21
.LVL38:
.L24:
.LM106:
	li	a0,5
.LVL39:
.LM107:
	ret
	.cfi_endproc
.LFE9:
	.size	PtTable_Get_Active_Entries, .-PtTable_Get_Active_Entries
	.text
.Letext0:
	.section	.note.GNU-stack,"",@progbits
