	.file	"bl_cks.c"
	.option nopic
	.attribute arch, "rv32i2p1_m2p0_f2p2_c2p0_zicsr2p0_zmmul1p0_zca1p0_zcf1p0"
	.attribute unaligned_access, 0
	.attribute stack_align, 16
	.text
.Ltext0:
	.cfi_sections	.debug_frame
	.section	.text._cb_cmd,"ax",@progbits
	.align	1
	.type	_cb_cmd, @function
_cb_cmd:
.LVL0:
.LFB27:
.LM1:
	.cfi_startproc
.LM2:
.LM3:
.LM4:
.LM5:
.LM6:
	sw	zero,8(a0)
.LM7:
	ret
	.cfi_endproc
.LFE27:
	.size	_cb_cmd, .-_cb_cmd
	.section	.text.bl_cks_test,"ax",@progbits
	.align	1
	.globl	bl_cks_test
	.type	bl_cks_test, @function
bl_cks_test:
.LFB29:
.LM8:
	.cfi_startproc
.LM9:
.LM10:
.LBB12:
.LBI12:
.LM11:
.LBB13:
.LM12:
.LM13:
.LM14:
.LM15:
.LM16:
.LM17:
.LM18:
.LBE13:
.LBE12:
.LM19:
	addi	sp,sp,-128
	.cfi_def_cfa_offset 128
.LBB17:
.LBB14:
.LM20:
	li	a5,1073782784
	li	a4,1
.LBE14:
.LBE17:
.LM21:
	sw	ra,124(sp)
	sw	s0,120(sp)
	sw	s1,116(sp)
	sw	s2,112(sp)
	sw	s3,108(sp)
	.cfi_offset 1, -4
	.cfi_offset 8, -8
	.cfi_offset 9, -12
	.cfi_offset 18, -16
	.cfi_offset 19, -20
.LBB18:
.LBB15:
.LM22:
	sb	a4,1792(a5)
.LM23:
.LVL1:
.LM24:
.LM25:
	lui	a3,%hi(data_src1.0)
.LM26:
	li	a4,1073782784
.LM27:
	li	a5,0
.LM28:
	addi	a3,a3,%lo(data_src1.0)
.LM29:
	addi	a4,a4,1796
.LM30:
	li	a2,20
.LVL2:
.L3:
.LM31:
.LM32:
	add	a1,a5,a3
	lbu	a1,0(a1)
.LM33:
	addi	a5,a5,1
.LVL3:
.LM34:
	sb	a1,0(a4)
.LM35:
.LVL4:
.LM36:
	bne	a5,a2,.L3
.LM37:
.LM38:
	li	a5,1073782784
.LVL5:
.LM39:
	lhu	a5,1800(a5)
.LVL6:
.LM40:
.LM41:
.LM42:
	li	a4,1
	li	a5,1073782784
	sb	a4,1792(a5)
.LM43:
.LM44:
	li	a4,2
	sb	a4,1792(a5)
.LM45:
.LVL7:
.LM46:
.LM47:
	li	a5,1073782784
.LM48:
	li	a4,0
.LM49:
	addi	a5,a5,1796
.LM50:
	li	a2,20
.LVL8:
.L4:
.LM51:
.LM52:
	add	a1,a3,a4
	lbu	a1,0(a1)
.LM53:
	addi	a4,a4,1
.LVL9:
.LM54:
	sb	a1,0(a5)
.LM55:
.LVL10:
.LM56:
	bne	a4,a2,.L4
.LM57:
.LM58:
	li	a2,1073782784
.LBE15:
.LBE18:
.LBB19:
.LBB20:
.LM59:
	li	a0,1
.LBE20:
.LBE19:
.LBB22:
.LBB16:
.LM60:
	lhu	a4,1800(a2)
.LVL11:
.LM61:
.LM62:
.LBE16:
.LBE22:
.LM63:
.LM64:
.LBB23:
.LBI19:
.LM65:
.LBB21:
.LM66:
.LM67:
.LM68:
.LM69:
.LM70:
.LM71:
	li	a3,31
.LM72:
	sb	a0,1792(a2)
.LM73:
.LM74:
.LVL12:
.LM75:
.LM76:
.LM77:
.LM78:
	sb	a3,0(a5)
.LM79:
.LM80:
	li	a1,63
	sb	a1,0(a5)
.LM81:
.LVL13:
.LM82:
.LM83:
.LM84:
.LM85:
	lhu	a6,1800(a2)
.LVL14:
.LM86:
.LM87:
.LM88:
	sb	a0,1792(a2)
.LM89:
.LM90:
	li	a6,2
	sb	a6,1792(a2)
.LM91:
.LM92:
.LVL15:
.LM93:
.LM94:
.LM95:
.LM96:
	sb	a3,0(a5)
.LM97:
.LM98:
	sb	a1,0(a5)
.LM99:
.LVL16:
.LM100:
.LM101:
.LM102:
.LM103:
	lhu	a5,1800(a2)
.LM104:
.LM105:
.LM106:
.LM107:
.LVL17:
.LM108:
.LBE21:
.LBE23:
.LM109:
.LM110:
.LBB24:
.LBI24:
.LM111:
.LBB25:
.LM112:
.LM113:
.LM114:
.LM115:
.LM116:
.LM117:
	li	a4,1000
.LM118:
	li	a5,1073782784
.LM119:
	sb	a0,1792(a2)
.LM120:
.LM121:
.LVL18:
.LM122:
.LM123:
	addi	a5,a5,1796
.LVL19:
.L5:
.LM124:
.LM125:
.LM126:
	sb	a3,0(a5)
.LM127:
.LM128:
	sb	a1,0(a5)
.LM129:
.LVL20:
.LM130:
	addi	a4,a4,-1
.LVL21:
.LM131:
	bne	a4,zero,.L5
	li	a5,16158720
	addi	a5,a5,280
.LVL22:
.L6:
.LM132:
.LM133:
	srli	a4,a5,16
.LM134:
	li	a5,36864
.LVL23:
.LM135:
	addi	a5,a5,526
.LM136:
	bne	a4,zero,.L6
.LM137:
.LM138:
	li	a5,1073782784
	lhu	a5,1800(a5)
.LVL24:
.LM139:
.LM140:
.LM141:
	li	a4,1
	li	a5,1073782784
	sb	a4,1792(a5)
.LM142:
.LM143:
	li	a4,2
	sb	a4,1792(a5)
.LM144:
.LM145:
.LVL25:
.LM146:
.LM147:
	li	a5,1073782784
.LM148:
	li	a4,1000
.LM149:
	addi	a5,a5,1796
	li	a2,31
.LM150:
	li	a3,63
.LVL26:
.L7:
.LM151:
.LM152:
.LM153:
	sb	a2,0(a5)
.LM154:
.LM155:
	sb	a3,0(a5)
.LM156:
.LVL27:
.LM157:
	addi	a4,a4,-1
.LVL28:
.LM158:
	bne	a4,zero,.L7
	li	a5,16158720
	addi	a5,a5,280
.LVL29:
.L8:
.LM159:
.LM160:
	srli	a4,a5,16
.LM161:
	li	a5,36864
.LVL30:
.LM162:
	addi	a5,a5,526
.LM163:
	bne	a4,zero,.L8
.LM164:
.LM165:
	li	s1,1073782784
	lhu	a5,1800(s1)
.LM166:
.LM167:
.LM168:
.LM169:
.LVL31:
.LM170:
.LBE25:
.LBE24:
.LM171:
.LM172:
.LBB27:
.LBI27:
.LM173:
.LBB28:
.LM174:
.LM175:
.LM176:
.LM177:
.LM178:
.LM179:
.LM180:
	li	a1,31
.LM181:
	li	a5,1
	sb	a5,1792(s1)
.LM182:
.LM183:
.LVL32:
.LM184:
.LM185:
.LM186:
.LM187:
	sb	a1,1796(s1)
.LM188:
.LM189:
	li	a2,63
	sb	a2,1796(s1)
.LM190:
.LVL33:
.LM191:
.LM192:
.LM193:
.LM194:
.LM195:
.LM196:
	li	a4,-95
	sb	a4,1796(s1)
.LM197:
.LM198:
	lhu	a3,1800(s1)
.LVL34:
.LM199:
.LM200:
.LM201:
	sb	a5,1792(s1)
.LM202:
.LM203:
	li	a3,2
	sb	a3,1792(s1)
.LM204:
	sb	a1,1796(s1)
.LM205:
	sb	a2,1796(s1)
.LM206:
	sb	a4,1796(s1)
.LM207:
	lhu	a4,1800(s1)
.LBE28:
.LBE27:
.LBB31:
.LBB32:
.LM208:
	addi	s3,sp,12
.LM209:
	li	a4,16384
	addi	a4,a4,-225
.LM210:
	li	a2,28
	li	a1,0
	mv	a0,s3
.LM211:
	sw	a5,4(sp)
.LM212:
	sh	a4,0(sp)
.LM213:
	sw	a3,8(sp)
.LM214:
	sh	zero,2(sp)
.LM215:
	call	memset
.LVL35:
.LM216:
	li	a2,28
	li	a1,0
	addi	a0,sp,40
	call	memset
.LVL36:
.LM217:
	li	a2,28
	li	a1,0
	addi	a0,sp,68
	call	memset
.LVL37:
.LM218:
	addi	a5,sp,4
.LM219:
	sw	a5,24(sp)
.LM220:
	addi	a5,sp,52
.LM221:
	sw	a5,32(sp)
.LM222:
	li	a5,71827456
	addi	a5,a5,2
	sw	a5,36(sp)
.LM223:
	lui	a5,%hi(_cb_cmd)
	addi	a5,a5,%lo(_cb_cmd)
	sw	a5,16(sp)
.LM224:
	addi	a5,sp,80
.LM225:
	sw	a5,60(sp)
.LM226:
	li	a5,262144
	addi	a5,a5,1000
	sw	a5,64(sp)
.LM227:
	addi	a5,sp,2
.LM228:
	sw	a5,84(sp)
.LM229:
	li	a5,-2145124352
.LBE32:
.LBE31:
.LBB36:
.LBB29:
.LM230:
	addi	s2,s1,1792
.LM231:
.LM232:
.LVL38:
.LM233:
.LM234:
.LM235:
.LM236:
.LM237:
.LM238:
.LM239:
.LM240:
.LM241:
.LM242:
.LM243:
	addi	s0,s1,1796
.LM244:
.LBE29:
.LBE36:
.LBB37:
.LBB33:
.LM245:
	addi	a5,a5,1
.LBE33:
.LBE37:
.LBB38:
.LBB26:
.LM246:
	addi	s1,s1,1800
.LBE26:
.LBE38:
.LBB39:
.LBB30:
.LM247:
.LM248:
.LM249:
.LM250:
.LVL39:
.LM251:
.LBE30:
.LBE39:
.LM252:
.LM253:
.LBB40:
.LBI31:
.LM254:
.LBB34:
.LM255:
.LM256:
.LM257:
.LM258:
.LM259:
.LM260:
.LM261:
.LM262:
.LM263:
.LM264:
.LM265:
.LM266:
	mv	a0,s3
.LM267:
	sw	s2,28(sp)
.LM268:
.LM269:
.LM270:
.LM271:
.LM272:
	sw	s3,20(sp)
.LM273:
.LM274:
	sw	sp,52(sp)
.LM275:
.LM276:
	sw	s0,56(sp)
.LM277:
.LM278:
.LM279:
.LM280:
	sw	zero,44(sp)
.LM281:
.LM282:
	sw	zero,48(sp)
.LM283:
.LM284:
	sw	s1,80(sp)
.LM285:
.LM286:
.LM287:
	sw	zero,88(sp)
.LM288:
.LM289:
	sw	a5,92(sp)
.LM290:
.LM291:
	sw	zero,72(sp)
.LM292:
.LM293:
	sw	zero,76(sp)
.LM294:
	call	bl_dma_copy
.LVL40:
.LM295:
.L9:
.LM296:
	lw	a5,20(sp)
	bne	a5,zero,.L10
.LM297:
.LM298:
.LM299:
.LBE34:
.LBE40:
.LM300:
.LM301:
	lw	ra,124(sp)
	.cfi_remember_state
	.cfi_restore 1
	lw	s0,120(sp)
	.cfi_restore 8
	lw	s1,116(sp)
	.cfi_restore 9
	lw	s2,112(sp)
	.cfi_restore 18
	lw	s3,108(sp)
	.cfi_restore 19
	li	a0,0
	addi	sp,sp,128
	.cfi_def_cfa_offset 0
	jr	ra
.L10:
	.cfi_restore_state
.LBB41:
.LBB35:
.LM302:
	li	a0,2
	call	vTaskDelay
.LVL41:
	j	.L9
.LBE35:
.LBE41:
	.cfi_endproc
.LFE29:
	.size	bl_cks_test, .-bl_cks_test
	.section	.rodata.data_src1.0,"a"
	.align	2
	.type	data_src1.0, @object
	.size	data_src1.0, 20
data_src1.0:
	.string	"E"
	.base64	"AHMAAEAAQBEAAMCoAAHAqADH"
	.text
.Letext0:
	.section	.note.GNU-stack,"",@progbits
