	.file	"bl_chip.c"
	.option nopic
	.attribute arch, "rv32i2p1_m2p0_f2p2_c2p0_zicsr2p0_zmmul1p0_zca1p0_zcf1p0"
	.attribute unaligned_access, 0
	.attribute stack_align, 16
	.text
.Ltext0:
	.cfi_sections	.debug_frame
	.section	.rodata.bl_chip_info.str1.4,"aMS",@progbits,1
	.align	2
.LC0:
	.string	"RV32"
	.align	2
.LC1:
	.string	"RV64"
	.align	2
.LC2:
	.string	"RV128"
	.align	2
.LC3:
	.string	"RVxx"
	.section	.text.bl_chip_info,"ax",@progbits
	.align	1
	.globl	bl_chip_info
	.type	bl_chip_info, @function
bl_chip_info:
.LVL0:
.LFB2:
.LM1:
	.cfi_startproc
.LM2:
.LM3:
.LM4:
.LBB4:
.LBI4:
.LM5:
.LBB5:
.LM6:
.LBE5:
.LBE4:
.LM7:
	addi	sp,sp,-32
	.cfi_def_cfa_offset 32
	sw	s0,24(sp)
	sw	ra,28(sp)
	sw	s1,20(sp)
	.cfi_offset 8, -8
	.cfi_offset 1, -4
	.cfi_offset 9, -12
.LM8:
	mv	s0,a0
.LBB7:
.LBB6:
.LM9:
	sw	zero,12(sp)
.LM10:
 #APP
# 39 "/home/shivani/bl602_iot_sdk/components/hal_drv/bl602_hal/bl_chip.c" 1
	csrr a5, misa
# 0 "" 2
 #NO_APP
	sw	a5,12(sp)
.LM11:
.LM12:
	lw	s1,12(sp)
.LVL1:
.LM13:
.LBE6:
.LBE7:
.LM14:
.LM15:
	li	a4,2
.LM16:
	srli	a5,s1,30
.LVL2:
.LM17:
	beq	a5,a4,.L2
	li	a4,3
	beq	a5,a4,.L3
	li	a4,1
.LM18:
	li	a2,4
.LM19:
	bne	a5,a4,.L4
.LM20:
	lui	a1,%hi(.LC0)
	addi	a1,a1,%lo(.LC0)
.L13:
.LM21:
	call	memcpy
.LVL3:
.LM22:
.LM23:
	addi	s0,s0,4
.LVL4:
.LM24:
	j	.L5
.LVL5:
.L2:
.LM25:
	lui	a1,%hi(.LC1)
	li	a2,4
	addi	a1,a1,%lo(.LC1)
	j	.L13
.L3:
.LM26:
	lui	a1,%hi(.LC2)
	li	a2,5
	addi	a1,a1,%lo(.LC2)
.LM27:
	addi	s0,a0,5
.LVL6:
.LM28:
	call	memcpy
.LVL7:
.LM29:
.LM30:
.L5:
.LM31:
.LM32:
	li	a5,45
	sb	a5,0(s0)
.LM33:
	addi	a4,s0,1
.LVL8:
.LM34:
.LM35:
.LM36:
	li	a5,0
.LM37:
	li	a1,1
.LM38:
	li	a2,26
.LVL9:
.L7:
.LM39:
.LM40:
	sll	a3,a1,a5
.LM41:
	and	a3,a3,s1
.LM42:
	beq	a3,zero,.L6
.LM43:
.LVL10:
.LM44:
	addi	a3,a5,65
.LM45:
	sb	a3,0(a4)
.LM46:
	addi	a4,a4,1
.LVL11:
.L6:
.LM47:
	addi	a5,a5,1
.LVL12:
.LM48:
	bne	a5,a2,.L7
.LM49:
.LM50:
	sb	zero,0(a4)
.LM51:
.LM52:
	lw	ra,28(sp)
	.cfi_remember_state
	.cfi_restore 1
	lw	s0,24(sp)
	.cfi_restore 8
	lw	s1,20(sp)
	.cfi_restore 9
.LVL13:
.LM53:
	li	a0,0
	addi	sp,sp,32
	.cfi_def_cfa_offset 0
	jr	ra
.LVL14:
.L4:
	.cfi_restore_state
.LM54:
	lui	a1,%hi(.LC3)
	addi	a1,a1,%lo(.LC3)
	j	.L13
	.cfi_endproc
.LFE2:
	.size	bl_chip_info, .-bl_chip_info
	.section	.text.bl_chip_banner,"ax",@progbits
	.align	1
	.globl	bl_chip_banner
	.type	bl_chip_banner, @function
bl_chip_banner:
.LVL15:
.LFB3:
.LM55:
	.cfi_startproc
.LM56:
.LM57:
	lui	a5,%hi(bannder_shadow_bl602)
	addi	a5,a5,%lo(bannder_shadow_bl602)
	sw	a5,0(a0)
.LM58:
.LM59:
	li	a0,0
.LVL16:
.LM60:
	ret
	.cfi_endproc
.LFE3:
	.size	bl_chip_banner, .-bl_chip_banner
	.section	.rodata.bl_chip_memory_ram.str1.4,"aMS",@progbits,1
	.align	2
.LC4:
	.string	"flash"
	.align	2
.LC5:
	.string	"tcm"
	.align	2
.LC6:
	.string	"wifi"
	.section	.text.bl_chip_memory_ram,"ax",@progbits
	.align	1
	.globl	bl_chip_memory_ram
	.type	bl_chip_memory_ram, @function
bl_chip_memory_ram:
.LVL17:
.LFB4:
.LM61:
	.cfi_startproc
.LM62:
.LM63:
	lw	a4,0(a0)
	li	a5,2
	ble	a4,a5,.L17
.LM64:
	addi	sp,sp,-16
	.cfi_def_cfa_offset 16
	sw	ra,12(sp)
	sw	s0,8(sp)
	sw	s1,4(sp)
	sw	s2,0(sp)
	.cfi_offset 1, -4
	.cfi_offset 8, -8
	.cfi_offset 9, -12
	.cfi_offset 18, -16
.LM65:
	li	a5,3
	sw	a5,0(a0)
.LM66:
	lui	a5,%hi(_ld_ram_addr0)
	addi	a5,a5,%lo(_ld_ram_addr0)
	sw	a5,0(a1)
.LM67:
	lui	a5,%hi(_ld_ram_size0)
	mv	s2,a1
.LM68:
.LM69:
.LM70:
.LM71:
.LM72:
.LM73:
.LM74:
	addi	a5,a5,%lo(_ld_ram_size0)
.LM75:
	lui	a1,%hi(.LC4)
.LVL18:
.LM76:
	sw	a5,0(a2)
.LM77:
	mv	a0,a3
.LVL19:
.LM78:
	addi	a1,a1,%lo(.LC4)
	mv	s0,a3
	mv	s1,a2
	call	strcpy
.LVL20:
.LM79:
.LM80:
	lui	a5,%hi(_ld_ram_addr1)
	addi	a5,a5,%lo(_ld_ram_addr1)
	sw	a5,4(s2)
.LM81:
.LM82:
	lui	a5,%hi(_ld_ram_size1)
	addi	a5,a5,%lo(_ld_ram_size1)
.LM83:
	lui	a1,%hi(.LC5)
.LM84:
	sw	a5,4(s1)
.LM85:
	addi	a1,a1,%lo(.LC5)
	addi	a0,s0,6
	call	strcpy
.LVL21:
.LM86:
.LM87:
	lui	a5,%hi(_ld_ram_addr2)
	addi	a5,a5,%lo(_ld_ram_addr2)
	sw	a5,8(s2)
.LM88:
.LM89:
	lui	a5,%hi(_ld_ram_size2)
	addi	a5,a5,%lo(_ld_ram_size2)
.LM90:
	lui	a1,%hi(.LC6)
.LM91:
	sw	a5,8(s1)
.LM92:
	addi	a0,s0,12
	addi	a1,a1,%lo(.LC6)
	call	strcpy
.LVL22:
.LM93:
.LM94:
	lw	ra,12(sp)
	.cfi_restore 1
	lw	s0,8(sp)
	.cfi_restore 8
.LVL23:
.LM95:
	lw	s1,4(sp)
	.cfi_restore 9
.LVL24:
.LM96:
	lw	s2,0(sp)
	.cfi_restore 18
.LVL25:
.LM97:
	li	a0,0
.LM98:
	addi	sp,sp,16
	.cfi_def_cfa_offset 0
	jr	ra
.LVL26:
.L17:
.LM99:
	li	a0,-1
.LVL27:
.LM100:
	ret
	.cfi_endproc
.LFE4:
	.size	bl_chip_memory_ram, .-bl_chip_memory_ram
	.section	.rodata.bannder_shadow_bl602,"a"
	.align	2
	.type	bannder_shadow_bl602, @object
	.size	bannder_shadow_bl602, 697
bannder_shadow_bl602:
	.base64	"4paI4paI4paI4paI4paI4paI4pWXIOKWiOKWiOKVlyAgICAgIOKWiOKWiOKWiOKWiOKWiOKWiOKVlyAg4paI4paI4paI4paI4paI4paI4pWXIOKWiOKWiOKWiOKWiOKWiOKWiOKVlwoN4paI4paI4pWU4pWQ4pWQ4paI4paI4pWX4paI4paI4pWRICAgICDilojilojilZTilZDilZDilZDilZDilZ0g4paI4paI4pWU4pWQ4paI4paI4paI4paI4pWX4pWa4pWQ4pWQ4pWQ4pWQ4paI4paI4pWXCg3ilojilojilojilojilojilojilZTilZ3ilojilojilZEg"
	.base64	"ICAgIOKWiOKWiOKWiOKWiOKWiOKWiOKWiOKVlyDilojilojilZHilojilojilZTilojilojilZEg4paI4paI4paI4paI4paI4pWU4pWdCg3ilojilojilZTilZDilZDilojilojilZfilojilojilZEgICAgIOKWiOKWiOKVlOKVkOKVkOKVkOKWiOKWiOKVl+KWiOKWiOKWiOKWiOKVlOKVneKWiOKWiOKVkeKWiOKWiOKVlOKVkOKVkOKVkOKVnQoN4paI4paI4paI4paI4paI4paI4pWU4pWd4paI4paI4paI4paI4paI4paI4paI4pWX4pWa4paI4paI4paI"
	.base64	"4paI4paI4paI4pWU4pWd4pWa4paI4paI4paI4paI4paI4paI4pWU4pWd4paI4paI4paI4paI4paI4paI4paI4pWXCg3ilZrilZDilZDilZDilZDilZDilZ0g4pWa4pWQ4pWQ4pWQ4pWQ4pWQ4pWQ4pWdIOKVmuKVkOKVkOKVkOKVkOKVkOKVnSAg4pWa4pWQ4pWQ4pWQ4pWQ4pWQ4pWdIOKVmuKVkOKVkOKVkOKVkOKVkOKVkOKVnQoNAA=="
	.text
.Letext0:
	.section	.note.GNU-stack,"",@progbits
