	.file	"bl_efuse.c"
	.option nopic
	.attribute arch, "rv32i2p1_m2p0_f2p2_c2p0_zicsr2p0_zmmul1p0_zca1p0_zcf1p0"
	.attribute unaligned_access, 0
	.attribute stack_align, 16
	.text
.Ltext0:
	.cfi_sections	.debug_frame
	.section	.text.bl_efuse_read_mac,"ax",@progbits
	.align	1
	.globl	bl_efuse_read_mac
	.type	bl_efuse_read_mac, @function
bl_efuse_read_mac:
.LVL0:
.LFB8:
.LM1:
	.cfi_startproc
.LM2:
.LM3:
	addi	sp,sp,-16
	.cfi_def_cfa_offset 16
	sw	ra,12(sp)
	.cfi_offset 1, -4
.LM4:
	call	EF_Ctrl_Read_MAC_Address
.LVL1:
.LM5:
.LM6:
	lw	ra,12(sp)
	.cfi_restore 1
	li	a0,0
	addi	sp,sp,16
	.cfi_def_cfa_offset 0
	jr	ra
	.cfi_endproc
.LFE8:
	.size	bl_efuse_read_mac, .-bl_efuse_read_mac
	.section	.text.bl_efuse_read_mac_factory,"ax",@progbits
	.align	1
	.globl	bl_efuse_read_mac_factory
	.type	bl_efuse_read_mac_factory, @function
bl_efuse_read_mac_factory:
.LVL2:
.LFB9:
.LM7:
	.cfi_startproc
.LM8:
.LM9:
	addi	sp,sp,-16
	.cfi_def_cfa_offset 16
.LM10:
	li	a1,1
.LM11:
	sw	ra,12(sp)
	.cfi_offset 1, -4
.LM12:
	call	mfg_media_read_macaddr
.LVL3:
.LM13:
	lw	ra,12(sp)
	.cfi_restore 1
.LM14:
	snez	a0,a0
.LM15:
	neg	a0,a0
	addi	sp,sp,16
	.cfi_def_cfa_offset 0
	jr	ra
	.cfi_endproc
.LFE9:
	.size	bl_efuse_read_mac_factory, .-bl_efuse_read_mac_factory
	.section	.text.bl_efuse_read_capcode,"ax",@progbits
	.align	1
	.globl	bl_efuse_read_capcode
	.type	bl_efuse_read_capcode, @function
bl_efuse_read_capcode:
.LVL4:
.LFB10:
.LM16:
	.cfi_startproc
.LM17:
.LM18:
	addi	sp,sp,-16
	.cfi_def_cfa_offset 16
.LM19:
	li	a1,1
.LM20:
	sw	ra,12(sp)
	.cfi_offset 1, -4
.LM21:
	call	mfg_media_read_xtal_capcode
.LVL5:
.LM22:
	lw	ra,12(sp)
	.cfi_restore 1
.LM23:
	snez	a0,a0
.LM24:
	neg	a0,a0
	addi	sp,sp,16
	.cfi_def_cfa_offset 0
	jr	ra
	.cfi_endproc
.LFE10:
	.size	bl_efuse_read_capcode, .-bl_efuse_read_capcode
	.section	.text.bl_efuse_read_pwroft,"ax",@progbits
	.align	1
	.globl	bl_efuse_read_pwroft
	.type	bl_efuse_read_pwroft, @function
bl_efuse_read_pwroft:
.LVL6:
.LFB11:
.LM25:
	.cfi_startproc
.LM26:
.LM27:
	addi	sp,sp,-16
	.cfi_def_cfa_offset 16
.LM28:
	li	a1,1
.LM29:
	sw	ra,12(sp)
	.cfi_offset 1, -4
.LM30:
	call	mfg_media_read_poweroffset
.LVL7:
.LM31:
	lw	ra,12(sp)
	.cfi_restore 1
.LM32:
	snez	a0,a0
.LM33:
	neg	a0,a0
	addi	sp,sp,16
	.cfi_def_cfa_offset 0
	jr	ra
	.cfi_endproc
.LFE11:
	.size	bl_efuse_read_pwroft, .-bl_efuse_read_pwroft
	.text
.Letext0:
	.section	.note.GNU-stack,"",@progbits
