	.file	"bl_irq.c"
	.option nopic
	.attribute arch, "rv32i2p1_m2p0_f2p2_c2p0_zicsr2p0_zmmul1p0_zca1p0_zcf1p0"
	.attribute unaligned_access, 0
	.attribute stack_align, 16
	.text
.Ltext0:
	.cfi_sections	.debug_frame
	.section	.text.bl_irq_enable,"ax",@progbits
	.align	1
	.globl	bl_irq_enable
	.type	bl_irq_enable, @function
bl_irq_enable:
.LVL0:
.LFB9:
.LM1:
	.cfi_startproc
.LM2:
.LM3:
	li	a5,41943040
	addi	a5,a5,1024
	add	a0,a0,a5
.LVL1:
.LM4:
	li	a5,1
	sb	a5,0(a0)
.LM5:
	ret
	.cfi_endproc
.LFE9:
	.size	bl_irq_enable, .-bl_irq_enable
	.section	.text.bl_irq_disable,"ax",@progbits
	.align	1
	.globl	bl_irq_disable
	.type	bl_irq_disable, @function
bl_irq_disable:
.LVL2:
.LFB10:
.LM6:
	.cfi_startproc
.LM7:
.LM8:
	li	a5,41943040
	addi	a5,a5,1024
	add	a0,a0,a5
.LVL3:
.LM9:
	sb	zero,0(a0)
.LM10:
	ret
	.cfi_endproc
.LFE10:
	.size	bl_irq_disable, .-bl_irq_disable
	.section	.text.bl_irq_pending_set,"ax",@progbits
	.align	1
	.globl	bl_irq_pending_set
	.type	bl_irq_pending_set, @function
bl_irq_pending_set:
.LVL4:
.LFB11:
.LM11:
	.cfi_startproc
.LM12:
.LM13:
	li	a5,41943040
	add	a0,a0,a5
.LVL5:
.LM14:
	li	a5,1
	sb	a5,0(a0)
.LM15:
	ret
	.cfi_endproc
.LFE11:
	.size	bl_irq_pending_set, .-bl_irq_pending_set
	.section	.text.bl_irq_pending_clear,"ax",@progbits
	.align	1
	.globl	bl_irq_pending_clear
	.type	bl_irq_pending_clear, @function
bl_irq_pending_clear:
.LVL6:
.LFB12:
.LM16:
	.cfi_startproc
.LM17:
.LM18:
	li	a5,41943040
	add	a0,a0,a5
.LVL7:
.LM19:
	sb	zero,0(a0)
.LM20:
	ret
	.cfi_endproc
.LFE12:
	.size	bl_irq_pending_clear, .-bl_irq_pending_clear
	.section	.rodata.bl_irq_exception_trigger.str1.4,"aMS",@progbits,1
	.align	2
.LC0:
	.string	"Trigger exception val is %08lx\r\n"
	.section	.text.bl_irq_exception_trigger,"ax",@progbits
	.align	1
	.globl	bl_irq_exception_trigger
	.type	bl_irq_exception_trigger, @function
bl_irq_exception_trigger:
.LVL8:
.LFB13:
.LM21:
	.cfi_startproc
.LM22:
.LM23:
.LM24:
	li	a5,2
	bgtu	a0,a5,.L6
	bne	a0,zero,.L7
.LM25:
.LM26:
	lw	a1,0(a1)
.LVL9:
.LM27:
.L15:
.LM28:
.LM29:
	lui	a0,%hi(.LC0)
.LVL10:
.LM30:
	addi	a0,a0,%lo(.LC0)
	j	.L17
.LVL11:
.L6:
.LM31:
	li	a5,3
	beq	a0,a5,.L9
.L14:
.LM32:
	li	a1,305418240
.LVL12:
.LM33:
	addi	a1,a1,1656
	j	.L15
.LVL13:
.L7:
.LM34:
.LM35:
	li	a5,305418240
	addi	a5,a5,1656
	sw	a5,0(a1)
.LM36:
	j	.L14
.L9:
.LBB10:
.LM37:
.LM38:
.LM39:
.LBE10:
.LM40:
	addi	sp,sp,-32
	.cfi_def_cfa_offset 32
.LVL14:
.LBB11:
.LM41:
.LBE11:
.LM42:
	sw	ra,28(sp)
	.cfi_offset 1, -4
.LBB12:
.LM43:
	addi	a5,sp,12
.LVL15:
.LM44:
	jalr	a5
.LVL16:
.LM45:
.LBE12:
.LM46:
.LM47:
	li	a1,305418240
.LM48:
	lui	a0,%hi(.LC0)
.LM49:
	lw	ra,28(sp)
	.cfi_restore 1
.LM50:
	addi	a1,a1,1656
.LVL17:
.LM51:
.LM52:
.LM53:
.LM54:
	addi	a0,a0,%lo(.LC0)
.LM55:
	addi	sp,sp,32
	.cfi_def_cfa_offset 0
.LVL18:
.L17:
.LM56:
	tail	printf
.LVL19:
.LM57:
	.cfi_endproc
.LFE13:
	.size	bl_irq_exception_trigger, .-bl_irq_exception_trigger
	.section	.text.bl_irq_default,"ax",@progbits
	.align	1
	.globl	bl_irq_default
	.type	bl_irq_default, @function
bl_irq_default:
.LFB14:
.LM58:
	.cfi_startproc
.L19:
.LM59:
.LM60:
.LM61:
	j	.L19
	.cfi_endproc
.LFE14:
	.size	bl_irq_default, .-bl_irq_default
	.section	.text.bl_irq_register_with_ctx,"ax",@progbits
	.align	1
	.globl	bl_irq_register_with_ctx
	.type	bl_irq_register_with_ctx, @function
bl_irq_register_with_ctx:
.LVL20:
.LFB16:
.LM62:
	.cfi_startproc
.LM63:
.LBB19:
.LBI19:
.LM64:
.LBB20:
.LM65:
.LM66:
	li	a5,79
	bleu	a0,a5,.L21
.L22:
.LM67:
.LM68:
.LM69:
.LM70:
	j	.L22
.L21:
.LVL21:
.LM71:
.LBE20:
.LBE19:
.LM72:
.LM73:
.LM74:
.LM75:
	beq	a1,zero,.L20
.LVL22:
.LBB21:
.LBI21:
.LM76:
.LBB22:
.LM77:
	lui	a5,%hi(handler_list)
	addi	a5,a5,%lo(handler_list)
	slli	a4,a0,2
.LM78:
	add	a4,a5,a4
	addi	a0,a0,80
.LVL23:
.LM79:
	slli	a0,a0,2
.LVL24:
.LM80:
	sw	a1,0(a4)
.LM81:
.LM82:
	add	a5,a5,a0
.LM83:
	bne	a2,zero,.L24
.LM84:
.LM85:
	sw	zero,0(a5)
	ret
.L24:
.LM86:
.LM87:
	sw	a2,0(a5)
.LVL25:
.L20:
.LM88:
.LBE22:
.LBE21:
.LM89:
	ret
	.cfi_endproc
.LFE16:
	.size	bl_irq_register_with_ctx, .-bl_irq_register_with_ctx
	.section	.text.bl_irq_ctx_get,"ax",@progbits
	.align	1
	.globl	bl_irq_ctx_get
	.type	bl_irq_ctx_get, @function
bl_irq_ctx_get:
.LVL26:
.LFB17:
.LM90:
	.cfi_startproc
.LM91:
.LBB23:
.LBI23:
.LM92:
.LBB24:
.LM93:
.LM94:
	li	a5,79
	bleu	a0,a5,.L29
.L30:
.LM95:
.LM96:
.LM97:
.LM98:
	j	.L30
.L29:
.LVL27:
.LM99:
.LBE24:
.LBE23:
.LM100:
.LM101:
	lui	a5,%hi(handler_list)
	addi	a0,a0,80
.LVL28:
.LM102:
	slli	a0,a0,2
.LVL29:
.LM103:
	addi	a5,a5,%lo(handler_list)
	add	a5,a5,a0
.LM104:
	lw	a5,0(a5)
	sw	a5,0(a1)
.LM105:
.LM106:
	ret
	.cfi_endproc
.LFE17:
	.size	bl_irq_ctx_get, .-bl_irq_ctx_get
	.section	.text.bl_irq_register,"ax",@progbits
	.align	1
	.globl	bl_irq_register
	.type	bl_irq_register, @function
bl_irq_register:
.LVL30:
.LFB18:
.LM107:
	.cfi_startproc
.LM108:
	li	a2,0
	tail	bl_irq_register_with_ctx
.LVL31:
.LM109:
	.cfi_endproc
.LFE18:
	.size	bl_irq_register, .-bl_irq_register
	.section	.text.bl_irq_unregister,"ax",@progbits
	.align	1
	.globl	bl_irq_unregister
	.type	bl_irq_unregister, @function
bl_irq_unregister:
.LVL32:
.LFB19:
.LM110:
	.cfi_startproc
.LM111:
.LBB25:
.LBI25:
.LM112:
.LBB26:
.LM113:
.LM114:
	li	a5,79
	bleu	a0,a5,.L33
.L34:
.LM115:
.LM116:
.LM117:
.LM118:
	j	.L34
.L33:
.LVL33:
.LM119:
.LBE26:
.LBE25:
.LM120:
.LM121:
.LM122:
.LM123:
	lui	a5,%hi(handler_list)
	slli	a0,a0,2
.LVL34:
.LM124:
	addi	a5,a5,%lo(handler_list)
	add	a5,a5,a0
	sw	a1,0(a5)
.LM125:
	ret
	.cfi_endproc
.LFE19:
	.size	bl_irq_unregister, .-bl_irq_unregister
	.section	.rodata.interrupt_entry.str1.4,"aMS",@progbits,1
	.align	2
.LC1:
	.string	"Cannot handle mcause 0x%lx:%lu, adjust to externel(0x%lx:%lu)\r\n"
	.section	.text.interrupt_entry,"ax",@progbits
	.align	1
	.globl	interrupt_entry
	.type	interrupt_entry, @function
interrupt_entry:
.LVL35:
.LFB20:
.LM126:
	.cfi_startproc
.LM127:
.LM128:
.LM129:
	slli	a2,a0,5
	srli	a2,a2,5
.LVL36:
.LM130:
.LM131:
	li	a5,79
	bgtu	a2,a5,.L36
.LM132:
.LM133:
	lui	a5,%hi(handler_list)
	addi	a5,a5,%lo(handler_list)
	slli	a4,a2,2
	add	a4,a5,a4
	lw	a4,0(a4)
.LVL37:
.LM134:
.LM135:
	beq	a4,zero,.L36
.LM136:
.LM137:
	addi	a2,a2,80
.LVL38:
.LM138:
	slli	a2,a2,2
.LVL39:
.LM139:
	add	a5,a5,a2
	lw	a0,0(a5)
.LVL40:
.LM140:
	beq	a0,zero,.L37
.LM141:
.LM142:
	jr	a4
.LVL41:
.L37:
.LM143:
.LM144:
	jr	a4
.LVL42:
.L36:
.LM145:
	addi	a4,a2,-16
	lui	a0,%hi(.LC1)
.LM146:
	addi	sp,sp,-16
	.cfi_def_cfa_offset 16
.LM147:
	mv	a3,a4
	mv	a1,a2
	addi	a0,a0,%lo(.LC1)
.LM148:
	sw	ra,12(sp)
	.cfi_offset 1, -4
.LM149:
	call	printf
.LVL43:
.L38:
.LM150:
.LM151:
.LM152:
	j	.L38
	.cfi_endproc
.LFE20:
	.size	interrupt_entry, .-interrupt_entry
	.section	.rodata.exception_entry.str1.4,"aMS",@progbits,1
	.align	2
.LC2:
	.string	"Exception Entry--->>>\r\n"
	.align	2
.LC3:
	.string	"mcause %08lx, mepc %08lx, mtval %08lx\r\n"
	.align	2
.LC4:
	.string	"Exception code: %lu\r\n"
	.align	2
.LC5:
	.string	"  msg: Instruction address misaligned\r\n"
	.align	2
.LC6:
	.string	"  msg: Instruction access fault\r\n"
	.align	2
.LC7:
	.string	"  msg: Illegal instruction\r\n"
	.align	2
.LC8:
	.string	"  msg: Breakpoint\r\n"
	.align	2
.LC9:
	.string	"  msg: Load address misaligned\r\n"
	.align	2
.LC10:
	.string	"  msg: Load access fault\r\n"
	.align	2
.LC11:
	.string	"  msg: Store/AMO access misaligned\r\n"
	.align	2
.LC12:
	.string	"  msg: Store/AMO access fault\r\n"
	.align	2
.LC13:
	.string	"  msg: Environment call from U-mode\r\n"
	.align	2
.LC14:
	.string	"  msg: Environment call from S-mode\r\n"
	.align	2
.LC15:
	.string	"  msg: Reserved\r\n"
	.align	2
.LC16:
	.string	"  msg: Environment call from M-mode\r\n"
	.align	2
.LC17:
	.string	"  msg: Instruction page fault\r\n"
	.align	2
.LC18:
	.string	"  msg: Load page fault\r\n"
	.align	2
.LC19:
	.string	"  msg: Store/AMO page fault\r\n"
	.align	2
.LC20:
	.string	"  msg: Reserved default exception\r\n"
	.section	.text.exception_entry,"ax",@progbits
	.align	1
	.globl	exception_entry
	.type	exception_entry, @function
exception_entry:
.LVL44:
.LFB22:
.LM153:
	.cfi_startproc
.LM154:
.LM155:
	addi	sp,sp,-32
	.cfi_def_cfa_offset 32
	sw	s0,24(sp)
	.cfi_offset 8, -8
	mv	s0,a0
	sw	ra,28(sp)
	mv	a0,a3
.LVL45:
.LM156:
	sw	s1,20(sp)
	.cfi_offset 1, -4
	.cfi_offset 9, -12
.LM157:
	andi	a4,s0,1023
.LM158:
	li	a3,4
.LVL46:
.LM159:
	bne	a4,a3,.L45
.LM160:
	mv	a2,a1
.LVL47:
.LM161:
	mv	a1,s0
.LVL48:
.LM162:
	lw	s0,24(sp)
	.cfi_remember_state
	.cfi_restore 8
.LVL49:
.LM163:
	lw	ra,28(sp)
	.cfi_restore 1
	lw	s1,20(sp)
	.cfi_restore 9
	addi	sp,sp,32
	.cfi_def_cfa_offset 0
.LM164:
	tail	misaligned_load_trap
.LVL50:
.L45:
	.cfi_restore_state
.LM165:
.LM166:
	li	a3,6
	bne	a4,a3,.L46
.LM167:
	mv	a2,a1
.LVL51:
.LM168:
	mv	a1,s0
.LVL52:
.LM169:
	lw	s0,24(sp)
	.cfi_remember_state
	.cfi_restore 8
.LVL53:
.LM170:
	lw	ra,28(sp)
	.cfi_restore 1
	lw	s1,20(sp)
	.cfi_restore 9
	addi	sp,sp,32
	.cfi_def_cfa_offset 0
.LM171:
	tail	misaligned_store_trap
.LVL54:
.L46:
	.cfi_restore_state
.LM172:
	mv	s1,a0
.LM173:
	lui	a0,%hi(.LC2)
.LVL55:
.LM174:
	addi	a0,a0,%lo(.LC2)
	sw	a2,12(sp)
	sw	a1,8(sp)
.LM175:
	call	puts
.LVL56:
.LM176:
	lw	a3,12(sp)
	lw	a2,8(sp)
	lui	a0,%hi(.LC3)
	mv	a1,s0
	addi	a0,a0,%lo(.LC3)
	call	printf
.LVL57:
.LM177:
	slli	s0,s0,16
.LVL58:
.LM178:
	srli	s0,s0,16
.LVL59:
.LBB29:
.LBI29:
.LM179:
.LBB30:
.LM180:
	lui	a0,%hi(.LC4)
	mv	a1,s0
	addi	a0,a0,%lo(.LC4)
	call	printf
.LVL60:
.LM181:
	li	a5,15
	bgtu	s0,a5,.L47
.LM182:
	lui	a4,%hi(.L49)
	slli	a5,s0,2
	addi	a4,a4,%lo(.L49)
	add	a5,a5,a4
	lw	a5,0(a5)
	jr	a5
	.section	.rodata.exception_entry,"a",@progbits
	.align	2
	.align	2
.L49:
	.word	.L63
	.word	.L62
	.word	.L61
	.word	.L60
	.word	.L59
	.word	.L58
	.word	.L57
	.word	.L56
	.word	.L55
	.word	.L54
	.word	.L50
	.word	.L53
	.word	.L52
	.word	.L51
	.word	.L50
	.word	.L48
	.section	.text.exception_entry
.L63:
.LM183:
	lui	a0,%hi(.LC5)
	addi	a0,a0,%lo(.LC5)
.L67:
.LM184:
	call	puts
.LVL61:
.LM185:
.LBE30:
.LBE29:
.LM186:
	lui	a0,%hi(printf)
	mv	a1,s1
	addi	a0,a0,%lo(printf)
	call	backtrace_now
.LVL62:
.L65:
.LM187:
.LM188:
.LM189:
	j	.L65
.LVL63:
.L62:
.LBB32:
.LBB31:
.LM190:
	lui	a0,%hi(.LC6)
	addi	a0,a0,%lo(.LC6)
	j	.L67
.L61:
.LM191:
	lui	a0,%hi(.LC7)
	addi	a0,a0,%lo(.LC7)
	j	.L67
.L60:
.LM192:
	lui	a0,%hi(.LC8)
	addi	a0,a0,%lo(.LC8)
	j	.L67
.L59:
.LM193:
	lui	a0,%hi(.LC9)
	addi	a0,a0,%lo(.LC9)
	j	.L67
.L58:
.LM194:
	lui	a0,%hi(.LC10)
	addi	a0,a0,%lo(.LC10)
	j	.L67
.L57:
.LM195:
	lui	a0,%hi(.LC11)
	addi	a0,a0,%lo(.LC11)
	j	.L67
.L56:
.LM196:
	lui	a0,%hi(.LC12)
	addi	a0,a0,%lo(.LC12)
	j	.L67
.L55:
.LM197:
	lui	a0,%hi(.LC13)
	addi	a0,a0,%lo(.LC13)
	j	.L67
.L54:
.LM198:
	lui	a0,%hi(.LC14)
	addi	a0,a0,%lo(.LC14)
	j	.L67
.L50:
.LM199:
	lui	a0,%hi(.LC15)
	addi	a0,a0,%lo(.LC15)
	j	.L67
.L53:
.LM200:
	lui	a0,%hi(.LC16)
	addi	a0,a0,%lo(.LC16)
	j	.L67
.L52:
.LM201:
	lui	a0,%hi(.LC17)
	addi	a0,a0,%lo(.LC17)
	j	.L67
.L51:
.LM202:
	lui	a0,%hi(.LC18)
	addi	a0,a0,%lo(.LC18)
	j	.L67
.L48:
.LM203:
	lui	a0,%hi(.LC19)
	addi	a0,a0,%lo(.LC19)
	j	.L67
.L47:
.LM204:
	lui	a0,%hi(.LC20)
	addi	a0,a0,%lo(.LC20)
	j	.L67
.LBE31:
.LBE32:
	.cfi_endproc
.LFE22:
	.size	exception_entry, .-exception_entry
	.section	.rodata.bl_irq_init.str1.4,"aMS",@progbits,1
	.align	2
.LC21:
	.string	"[IRQ] Clearing and Disable all the pending IRQ...\r\n"
	.section	.text.bl_irq_init,"ax",@progbits
	.align	1
	.globl	bl_irq_init
	.type	bl_irq_init, @function
bl_irq_init:
.LFB23:
.LM205:
	.cfi_startproc
.LM206:
.LM207:
	lui	a0,%hi(.LC21)
.LM208:
	addi	sp,sp,-16
	.cfi_def_cfa_offset 16
.LM209:
	addi	a0,a0,%lo(.LC21)
.LM210:
	sw	ra,12(sp)
	.cfi_offset 1, -4
.LM211:
	call	puts
.LVL64:
.LM212:
.LM213:
.LM214:
	li	a5,41943040
.LM215:
	li	a4,41943040
.LM216:
	addi	a5,a5,1024
.LM217:
	addi	a4,a4,1152
.LVL65:
.L69:
.LM218:
.LM219:
	sb	zero,0(a5)
.LM220:
	addi	a5,a5,1
.LVL66:
.LM221:
	bne	a5,a4,.L69
.LM222:
	li	a5,41943040
.LVL67:
.LM223:
	addi	a4,a5,128
.LVL68:
.L70:
.LM224:
.LM225:
	sb	zero,0(a5)
.LM226:
	addi	a5,a5,1
.LVL69:
.LM227:
	bne	a5,a4,.L70
.LM228:
	lw	ra,12(sp)
	.cfi_restore 1
	addi	sp,sp,16
	.cfi_def_cfa_offset 0
	jr	ra
	.cfi_endproc
.LFE23:
	.size	bl_irq_init, .-bl_irq_init
	.section	.bss.handler_list,"aw",@nobits
	.align	2
	.type	handler_list, @object
	.size	handler_list, 640
handler_list:
	.zero	640
	.text
.Letext0:
	.section	.note.GNU-stack,"",@progbits
