	.file	"bl_pds.c"
	.option nopic
	.attribute arch, "rv32i2p1_m2p0_f2p2_c2p0_zicsr2p0_zmmul1p0_zca1p0_zcf1p0"
	.attribute unaligned_access, 0
	.attribute stack_align, 16
	.text
.Ltext0:
	.cfi_sections	.debug_frame
	.section	.tcm_code,"ax",@progbits
	.align	1
	.globl	bl_pds_init
	.type	bl_pds_init, @function
bl_pds_init:
.LFB8:
.LM1:
	.cfi_startproc
.LM2:
.LBB10:
.LBI10:
.LM3:
.LBB11:
.LM4:
.LBE11:
.LBE10:
.LM5:
	addi	sp,sp,-16
	.cfi_def_cfa_offset 16
	sw	ra,12(sp)
	.cfi_offset 1, -4
.LBB13:
.LBB12:
.LM6:
 #APP
# 94 "/home/shivani/bl602_iot_sdk/components/bl602/bl602_std/bl602_std/RISCV/Core/Include/cmsis_compatible_gcc.h" 1
	csrci mstatus, 8
# 0 "" 2
 #NO_APP
.LBE12:
.LBE13:
.LM7:
	call	SFlash_Cache_Flush
.LVL0:
.LM8:
	lui	a1,%hi(flashCfg)
	li	a0,587202560
	li	a2,84
	addi	a1,a1,%lo(flashCfg)
	addi	a0,a0,12
	call	XIP_SFlash_Read_Via_Cache_Need_Lock
.LVL1:
.LM9:
	lui	a1,%hi(xtalType)
	li	a0,587202560
	li	a2,1
	addi	a1,a1,%lo(xtalType)
	addi	a0,a0,104
	call	XIP_SFlash_Read_Via_Cache_Need_Lock
.LVL2:
.LM10:
	call	SFlash_Cache_Flush
.LVL3:
.LM11:
.LBB14:
.LBI14:
.LM12:
.LBB15:
.LM13:
 #APP
# 89 "/home/shivani/bl602_iot_sdk/components/bl602/bl602_std/bl602_std/RISCV/Core/Include/cmsis_compatible_gcc.h" 1
	csrsi mstatus, 8
# 0 "" 2
 #NO_APP
.LBE15:
.LBE14:
.LM14:
.LM15:
	li	a5,1073786880
	lw	a5,20(a5)
.LM16:
	lui	a4,%hi(flashContRead)
.LM17:
	li	a0,0
.LM18:
	srli	a5,a5,27
	andi	a5,a5,1
	xori	a5,a5,1
.LM19:
	sb	a5,%lo(flashContRead)(a4)
.LM20:
	call	HBN_32K_Sel
.LVL4:
.LM21:
	li	a1,2
	li	a0,1
	call	GLB_AHB_Slave1_Clock_Gate
.LVL5:
.LM22:
	li	a1,3
	li	a0,1
	call	GLB_AHB_Slave1_Clock_Gate
.LVL6:
.LM23:
	li	a1,8
	li	a0,1
	call	GLB_AHB_Slave1_Clock_Gate
.LVL7:
.LM24:
	li	a1,12
	li	a0,1
	call	GLB_AHB_Slave1_Clock_Gate
.LVL8:
.LM25:
	li	a1,13
	li	a0,1
	call	GLB_AHB_Slave1_Clock_Gate
.LVL9:
.LM26:
	li	a1,18
	li	a0,1
	call	GLB_AHB_Slave1_Clock_Gate
.LVL10:
.LM27:
	li	a1,19
	li	a0,1
	call	GLB_AHB_Slave1_Clock_Gate
.LVL11:
.LM28:
	li	a1,20
	li	a0,1
	call	GLB_AHB_Slave1_Clock_Gate
.LVL12:
.LM29:
	li	a1,22
	li	a0,1
	call	GLB_AHB_Slave1_Clock_Gate
.LVL13:
.LM30:
.LM31:
	lw	ra,12(sp)
	.cfi_restore 1
.LM32:
	li	a1,23
.LM33:
.LM34:
	li	a0,1
.LM35:
	addi	sp,sp,16
	.cfi_def_cfa_offset 0
.LM36:
	tail	GLB_AHB_Slave1_Clock_Gate
.LVL14:
	.cfi_endproc
.LFE8:
	.size	bl_pds_init, .-bl_pds_init
	.section	.text.bl_pds_fastboot_cfg,"ax",@progbits
	.align	1
	.globl	bl_pds_fastboot_cfg
	.type	bl_pds_fastboot_cfg, @function
bl_pds_fastboot_cfg:
.LVL15:
.LFB9:
.LM37:
	.cfi_startproc
.LM38:
.LM39:
	addi	sp,sp,-16
	.cfi_def_cfa_offset 16
	sw	ra,12(sp)
	.cfi_offset 1, -4
.LM40:
	call	HBN_Set_Wakeup_Addr
.LVL16:
.LM41:
.LM42:
	lw	ra,12(sp)
	.cfi_restore 1
.LM43:
	li	a0,1312968704
.LM44:
.LM45:
	addi	a0,a0,-1979
.LM46:
	addi	sp,sp,16
	.cfi_def_cfa_offset 0
.LM47:
	tail	HBN_Set_Status_Flag
.LVL17:
	.cfi_endproc
.LFE9:
	.size	bl_pds_fastboot_cfg, .-bl_pds_fastboot_cfg
	.section	.tcm_code
	.align	1
	.globl	bl_pds_enter
	.type	bl_pds_enter, @function
bl_pds_enter:
.LVL18:
.LFB10:
.LM48:
	.cfi_startproc
.LM49:
.LM50:
.LM51:
	li	a5,7
	bgtu	a0,a5,.L20
	lui	a5,%hi(.L8)
	addi	a5,a5,%lo(.L8)
	slli	a0,a0,2
.LVL19:
.LM52:
	add	a0,a0,a5
	lw	a5,0(a0)
.LM53:
	addi	sp,sp,-32
	.cfi_def_cfa_offset 32
	sw	ra,28(sp)
	sw	s0,24(sp)
	sw	s1,20(sp)
	sw	s2,16(sp)
	sw	s3,12(sp)
	sw	s4,8(sp)
	sw	s5,4(sp)
	.cfi_offset 1, -4
	.cfi_offset 8, -8
	.cfi_offset 9, -12
	.cfi_offset 18, -16
	.cfi_offset 19, -20
	.cfi_offset 20, -24
	.cfi_offset 21, -28
	jr	a5
	.section	.rodata
	.align	2
	.align	2
.L8:
	.word	.L12
	.word	.L16
	.word	.L10
	.word	.L9
	.word	.L5
	.word	.L5
	.word	.L5
	.word	.L7
	.section	.tcm_code
.L12:
.LM54:
	lui	s0,%hi(pdsCfgLevel0)
	addi	s0,s0,%lo(pdsCfgLevel0)
.L11:
	mv	s5,a1
.LVL20:
.LM55:
.LBB16:
.LBI16:
.LM56:
.LBB17:
.LM57:
 #APP
# 94 "/home/shivani/bl602_iot_sdk/components/bl602/bl602_std/bl602_std/RISCV/Core/Include/cmsis_compatible_gcc.h" 1
	csrci mstatus, 8
# 0 "" 2
 #NO_APP
.LBE17:
.LBE16:
.LM58:
	li	a0,0
	call	HBN_Hw_Pu_Pd_Cfg
.LVL21:
.LM59:
	li	a0,0
	call	HBN_Aon_Pad_IeSmt_Cfg
.LVL22:
.LM60:
	call	SEC_Eng_Turn_Off_Sec_Ring
.LVL23:
.LM61:
	call	Sec_Eng_Trng_Disable
.LVL24:
.LM62:
	li	a0,0
	call	SF_Ctrl_Set_Owner
.LVL25:
.LM63:
	lui	s3,%hi(flashCfg)
	addi	a0,s3,%lo(flashCfg)
	call	SFlash_Reset_Continue_Read
.LVL26:
.LM64:
	call	SFlash_Powerdown
.LVL27:
.LM65:
.LM66:
.LM67:
	li	s1,23
.LM68:
	li	s2,29
.LVL28:
.L13:
.LM69:
	andi	a0,s1,0xff
.LM70:
	addi	s1,s1,1
.LVL29:
.LM71:
	call	GLB_GPIO_Set_HZ
.LVL30:
.LM72:
.LM73:
	bne	s1,s2,.L13
.LM74:
	li	s2,65536
.LM75:
	li	s1,0
.LVL31:
.LM76:
	addi	s2,s2,128
.LM77:
	li	s4,23
.LVL32:
.L15:
.LM78:
.LM79:
	srl	a5,s2,s1
	andi	a5,a5,1
.LM80:
	bne	a5,zero,.L14
.LM81:
	andi	a0,s1,0xff
	call	GLB_GPIO_Set_HZ
.LVL33:
.L14:
.LM82:
	addi	s1,s1,1
.LVL34:
.LM83:
	bne	s1,s4,.L15
.LM84:
	li	a0,0
	call	HBN_Set_ROOT_CLK_Sel
.LVL35:
.LM85:
	call	PDS_Power_Off_PLL
.LVL36:
.LM86:
	mv	a2,s5
	li	a1,0
	mv	a0,s0
	call	PDS_Default_Level_Config
.LVL37:
.LM87:
	lui	a5,%hi(xtalType)
	lbu	a0,%lo(xtalType)(a5)
	call	PDS_Power_On_PLL
.LVL38:
.LM88:
	li	a0,2
	call	HBN_Set_ROOT_CLK_Sel
.LVL39:
.LM89:
	li	a1,1
	li	a0,0
	call	SF_Cfg_Init_Flash_Gpio
.LVL40:
.LM90:
	li	a0,0
	call	SF_Ctrl_Set_Owner
.LVL41:
.LM91:
	lui	a5,%hi(flashContRead)
	lbu	a1,%lo(flashContRead)(a5)
	addi	a0,s3,%lo(flashCfg)
	call	SFlash_Restore_From_Powerdown
.LVL42:
.LM92:
	call	SEC_Eng_Turn_On_Sec_Ring
.LVL43:
.LM93:
	call	Sec_Eng_Trng_Enable
.LVL44:
.LM94:
	li	a0,1
	call	HBN_Aon_Pad_IeSmt_Cfg
.LVL45:
.LM95:
	li	a0,1
	call	HBN_Hw_Pu_Pd_Cfg
.LVL46:
.LM96:
.LBB18:
.LBI18:
.LM97:
.LBB19:
.LM98:
 #APP
# 89 "/home/shivani/bl602_iot_sdk/components/bl602/bl602_std/bl602_std/RISCV/Core/Include/cmsis_compatible_gcc.h" 1
	csrsi mstatus, 8
# 0 "" 2
.LVL47:
 #NO_APP
.L5:
.LM99:
.LBE19:
.LBE18:
.LM100:
	lw	ra,28(sp)
	.cfi_remember_state
	.cfi_restore 1
	lw	s0,24(sp)
	.cfi_restore 8
	lw	s1,20(sp)
	.cfi_restore 9
	lw	s2,16(sp)
	.cfi_restore 18
	lw	s3,12(sp)
	.cfi_restore 19
	lw	s4,8(sp)
	.cfi_restore 20
	lw	s5,4(sp)
	.cfi_restore 21
	addi	sp,sp,32
	.cfi_def_cfa_offset 0
	jr	ra
.LVL48:
.L10:
	.cfi_restore_state
.LM101:
	lui	s0,%hi(pdsCfgLevel2)
	addi	s0,s0,%lo(pdsCfgLevel2)
	j	.L11
.L9:
	lui	s0,%hi(pdsCfgLevel3)
	addi	s0,s0,%lo(pdsCfgLevel3)
	j	.L11
.L7:
	lui	s0,%hi(pdsCfgLevel7)
	addi	s0,s0,%lo(pdsCfgLevel7)
	j	.L11
.L16:
	lui	s0,%hi(pdsCfgLevel1)
	addi	s0,s0,%lo(pdsCfgLevel1)
	j	.L11
.LVL49:
.L20:
	.cfi_def_cfa_offset 0
	.cfi_restore 1
	.cfi_restore 8
	.cfi_restore 9
	.cfi_restore 18
	.cfi_restore 19
	.cfi_restore 20
	.cfi_restore 21
.LM102:
	ret
	.cfi_endproc
.LFE10:
	.size	bl_pds_enter, .-bl_pds_enter
	.section	.sbss.flashContRead,"aw",@nobits
	.type	flashContRead, @object
	.size	flashContRead, 1
flashContRead:
	.zero	1
	.section	.sbss.xtalType,"aw",@nobits
	.type	xtalType, @object
	.size	xtalType, 1
xtalType:
	.zero	1
	.section	.bss.flashCfg,"aw",@nobits
	.align	2
	.type	flashCfg, @object
	.size	flashCfg, 84
flashCfg:
	.zero	84
	.section	.data.pdsCfgLevel7,"aw"
	.align	2
	.type	pdsCfgLevel7, @object
	.size	pdsCfgLevel7, 16
pdsCfgLevel7:
	.byte	49
	.byte	107
	.byte	96
	.byte	42
	.byte	0
	.byte	0
	.byte	0
	.zero	1
	.byte	0
	.byte	0
	.zero	1
	.byte	73
	.byte	15
	.byte	240
	.zero	1
	.byte	15
	.section	.data.pdsCfgLevel3,"aw"
	.align	2
	.type	pdsCfgLevel3, @object
	.size	pdsCfgLevel3, 16
pdsCfgLevel3:
	.byte	49
	.byte	235
	.byte	32
	.byte	42
	.byte	0
	.byte	0
	.byte	0
	.zero	1
	.byte	0
	.byte	0
	.zero	1
	.byte	9
	.byte	15
	.byte	240
	.zero	1
	.byte	12
	.section	.data.pdsCfgLevel2,"aw"
	.align	2
	.type	pdsCfgLevel2, @object
	.size	pdsCfgLevel2, 16
pdsCfgLevel2:
	.byte	49
	.byte	235
	.byte	32
	.byte	58
	.byte	0
	.byte	0
	.byte	0
	.zero	1
	.byte	0
	.byte	0
	.zero	1
	.byte	1
	.byte	15
	.byte	192
	.zero	1
	.byte	12
	.section	.data.pdsCfgLevel1,"aw"
	.align	2
	.type	pdsCfgLevel1, @object
	.size	pdsCfgLevel1, 16
pdsCfgLevel1:
	.byte	49
	.byte	235
	.byte	32
	.byte	42
	.byte	0
	.byte	0
	.byte	0
	.zero	1
	.byte	0
	.byte	0
	.zero	1
	.byte	8
	.byte	12
	.byte	240
	.zero	1
	.byte	12
	.globl	pdsCfgLevel0
	.section	.data.pdsCfgLevel0,"aw"
	.align	2
	.type	pdsCfgLevel0, @object
	.size	pdsCfgLevel0, 16
pdsCfgLevel0:
	.byte	49
	.byte	235
	.byte	32
	.byte	58
	.byte	0
	.byte	0
	.byte	0
	.zero	1
	.byte	0
	.byte	0
	.zero	1
	.byte	0
	.byte	12
	.byte	192
	.zero	1
	.byte	12
	.text
.Letext0:
	.section	.note.GNU-stack,"",@progbits
