	.file	"bl_sys_cli.c"
	.option nopic
	.attribute arch, "rv32i2p1_m2p0_f2p2_c2p0_zicsr2p0_zmmul1p0_zca1p0_zcf1p0"
	.attribute unaligned_access, 0
	.attribute stack_align, 16
	.text
.Ltext0:
	.cfi_sections	.debug_frame
	.section	.text.clk,"ax",@progbits
	.align	1
	.type	clk, @function
clk:
.LVL0:
.LFB9:
.LM1:
	.cfi_startproc
.LM2:
.LM3:
.LM4:
	addi	sp,sp,-16
	.cfi_def_cfa_offset 16
	sw	ra,12(sp)
	sw	s0,8(sp)
	sw	s1,4(sp)
	.cfi_offset 1, -4
	.cfi_offset 8, -8
	.cfi_offset 9, -12
.LM5:
	lw	s0,0(a0)
.LVL1:
.LM6:
.LM7:
	lw	s1,4(a0)
.LVL2:
.LM8:
.LM9:
	call	vTaskEnterCritical
.LVL3:
.LM10:
.LBB6:
.LBI6:
.LM11:
.LBB7:
.LM12:
 #APP
# 94 "/home/shivani/bl602_iot_sdk/components/bl602/bl602_std/bl602_std/RISCV/Core/Include/cmsis_compatible_gcc.h" 1
	csrci mstatus, 8
# 0 "" 2
 #NO_APP
.LBE7:
.LBE6:
.LM13:
	andi	a1,s1,0xff
	andi	a0,s0,0xff
	call	GLB_Set_System_CLK_Div
.LVL4:
.LM14:
.LBB8:
.LBI8:
.LM15:
.LBB9:
.LM16:
 #APP
# 89 "/home/shivani/bl602_iot_sdk/components/bl602/bl602_std/bl602_std/RISCV/Core/Include/cmsis_compatible_gcc.h" 1
	csrsi mstatus, 8
# 0 "" 2
 #NO_APP
.LBE9:
.LBE8:
.LM17:
	call	vTaskExitCritical
.LVL5:
.LM18:
.LM19:
	lw	s0,8(sp)
	.cfi_restore 8
.LVL6:
.LM20:
	lw	ra,12(sp)
	.cfi_restore 1
	lw	s1,4(sp)
	.cfi_restore 9
.LVL7:
.LM21:
	li	a0,0
.LM22:
	addi	sp,sp,16
	.cfi_def_cfa_offset 0
.LM23:
	tail	vTaskDelete
.LVL8:
	.cfi_endproc
.LFE9:
	.size	clk, .-clk
	.section	.rodata.cmd_clk_change.str1.4,"aMS",@progbits,1
	.align	2
.LC0:
	.string	"clk"
	.section	.text.cmd_clk_change,"ax",@progbits
	.align	1
	.type	cmd_clk_change, @function
cmd_clk_change:
.LVL9:
.LFB10:
.LM24:
	.cfi_startproc
.LM25:
.LM26:
.LM27:
	li	a5,3
	bne	a2,a5,.L6
.LVL10:
.LBB12:
.LBI12:
.LM28:
.LBB13:
.LM29:
.LBE13:
.LBE12:
.LM30:
	addi	sp,sp,-48
	.cfi_def_cfa_offset 48
	sw	ra,44(sp)
	.cfi_offset 1, -4
.LBB15:
.LBB14:
.LM31:
	lw	a0,4(a3)
.LVL11:
.LM32:
	sw	a3,12(sp)
	call	atoi
.LVL12:
.LM33:
	lw	a3,12(sp)
.LM34:
	sw	a0,24(sp)
.LM35:
.LM36:
	lw	a0,8(a3)
	call	atoi
.LVL13:
.LM37:
	sw	a0,28(sp)
.LM38:
	lui	a1,%hi(.LC0)
	lui	a0,%hi(clk)
	addi	a3,sp,24
	li	a5,0
	li	a4,20
	li	a2,512
	addi	a1,a1,%lo(.LC0)
	addi	a0,a0,%lo(clk)
	call	xTaskCreate
.LVL14:
.LM39:
.LBE14:
.LBE15:
.LM40:
	lw	ra,44(sp)
	.cfi_restore 1
	addi	sp,sp,48
	.cfi_def_cfa_offset 0
.LVL15:
.LM41:
	jr	ra
.LVL16:
.L6:
.LM42:
	ret
	.cfi_endproc
.LFE10:
	.size	cmd_clk_change, .-cmd_clk_change
	.section	.text.bl_sys_cli_init,"ax",@progbits
	.align	1
	.globl	bl_sys_cli_init
	.type	bl_sys_cli_init, @function
bl_sys_cli_init:
.LFB11:
.LM43:
	.cfi_startproc
.LM44:
.LM45:
	li	a0,0
	ret
	.cfi_endproc
.LFE11:
	.size	bl_sys_cli_init, .-bl_sys_cli_init
	.section	.rodata.str1.4,"aMS",@progbits,1
	.align	2
.LC1:
	.string	"change hdiv and bdiv"
	.section	.static_cli_cmds,"a"
	.align	2
	.type	cmds_user, @object
	.size	cmds_user, 12
cmds_user:
	.word	.LC0
	.word	.LC1
	.word	cmd_clk_change
	.text
.Letext0:
	.section	.note.GNU-stack,"",@progbits
