	.file	"bl_sec.c"
	.option nopic
	.attribute arch, "rv32i2p1_m2p0_f2p2_c2p0_zicsr2p0_zmmul1p0_zca1p0_zcf1p0"
	.attribute unaligned_access, 0
	.attribute stack_align, 16
	.text
.Ltext0:
	.cfi_sections	.debug_frame
	.section	.text._trng_trigger,"ax",@progbits
	.align	1
	.type	_trng_trigger, @function
_trng_trigger:
.LFB9:
.LM1:
	.cfi_startproc
.LM2:
.LVL0:
.LM3:
.LM4:
.LM5:
	li	a5,1073758208
	addi	a5,a5,512
	lw	a4,0(a5)
.LVL1:
.LM6:
.LM7:
	andi	a3,a4,1
.LM8:
	bne	a3,zero,.L1
.LM9:
.LM10:
	lui	a3,%hi(trng_buffer)
	addi	a3,a3,%lo(trng_buffer)
	lw	a1,0(a3)
.LM11:
	li	a2,1073758208
.LM12:
	ori	a4,a4,1542
.LVL2:
.LM13:
	sw	a1,556(a2)
.LM14:
.LM15:
	lw	a2,4(a3)
.LM16:
	li	a3,1073758208
	sw	a2,560(a3)
.LM17:
.LM18:
.LM19:
.LVL3:
.LM20:
.LM21:
.LM22:
	sw	a4,0(a5)
.L1:
.LM23:
	ret
	.cfi_endproc
.LFE9:
	.size	_trng_trigger, .-_trng_trigger
	.section	.text.wait_trng4feed,"ax",@progbits
	.align	1
	.type	wait_trng4feed, @function
wait_trng4feed:
.LFB10:
.LM24:
	.cfi_startproc
.LM25:
.LVL4:
.LM26:
.LM27:
.LM28:
	li	a4,1073758208
	addi	a4,a4,512
.L5:
.LM29:
.LM30:
	lw	a5,0(a4)
.LVL5:
.LM31:
.LM32:
	andi	a3,a5,1
.LM33:
	bne	a3,zero,.L5
.LM34:
.LVL6:
.LM35:
	andi	a5,a5,-3
.LVL7:
.LM36:
	ori	a5,a5,512
.LVL8:
.LM37:
.LM38:
	sw	a5,0(a4)
.LM39:
.LM40:
.LM41:
	li	a5,1073758208
.LVL9:
.LM42:
	lw	a4,520(a5)
.LVL10:
.LM43:
	lui	a5,%hi(trng_buffer)
.LVL11:
.LM44:
	addi	a5,a5,%lo(trng_buffer)
	sw	a4,0(a5)
.LVL12:
.LM45:
.LM46:
	li	a4,1073758208
	lw	a4,524(a4)
.LM47:
	sw	a4,4(a5)
.LM48:
.LM49:
	li	a4,1073758208
	lw	a4,528(a4)
.LM50:
	sw	a4,8(a5)
.LM51:
.LM52:
	li	a4,1073758208
	lw	a4,532(a4)
.LM53:
	sw	a4,12(a5)
.LM54:
.LM55:
	li	a4,1073758208
	lw	a4,536(a4)
.LM56:
	sw	a4,16(a5)
.LM57:
.LM58:
	li	a4,1073758208
	lw	a4,540(a4)
.LM59:
	sw	a4,20(a5)
.LM60:
.LM61:
	li	a4,1073758208
	lw	a4,544(a4)
.LM62:
	sw	a4,24(a5)
.LM63:
.LM64:
	li	a4,1073758208
	lw	a4,548(a4)
.LM65:
	sw	a4,28(a5)
.LM66:
	ret
	.cfi_endproc
.LFE10:
	.size	wait_trng4feed, .-wait_trng4feed
	.section	.rodata.sec_trng_IRQHandler.str1.4,"aMS",@progbits,1
	.align	2
.LC0:
	.string	"[BL] [SEC] TRNG Handler\r\n"
	.section	.text.sec_trng_IRQHandler,"ax",@progbits
	.align	1
	.globl	sec_trng_IRQHandler
	.type	sec_trng_IRQHandler, @function
sec_trng_IRQHandler:
.LFB14:
.LM67:
	.cfi_startproc
.LM68:
.LVL13:
.LM69:
.LM70:
.LM71:
	addi	sp,sp,-16
	.cfi_def_cfa_offset 16
	sw	ra,12(sp)
	.cfi_offset 1, -4
.LM72:
	call	aos_now_ms
.LVL14:
.LM73:
	bgt	a1,zero,.L7
	bne	a1,zero,.L9
	li	a5,1999
	bgtu	a0,a5,.L7
.L9:
.LM74:
	lui	a0,%hi(.LC0)
	addi	a0,a0,%lo(.LC0)
	call	puts
.LVL15:
.L7:
.LM75:
.LM76:
	li	a4,1073758208
	addi	a4,a4,512
	lw	a5,0(a4)
.LM77:
.LVL16:
.LM78:
	andi	a5,a5,-3
.LVL17:
.LM79:
	ori	a5,a5,512
.LVL18:
.LM80:
.LM81:
	sw	a5,0(a4)
.LM82:
.LM83:
.LM84:
	li	a5,1073758208
.LVL19:
.LM85:
	lw	a4,520(a5)
.LVL20:
.LM86:
	lui	a5,%hi(trng_buffer)
.LVL21:
.LM87:
	addi	a5,a5,%lo(trng_buffer)
	sw	a4,0(a5)
.LVL22:
.LM88:
.LM89:
	li	a4,1073758208
	lw	a4,524(a4)
.LM90:
	sw	a4,4(a5)
.LM91:
.LM92:
	li	a4,1073758208
	lw	a4,528(a4)
.LM93:
	sw	a4,8(a5)
.LM94:
.LM95:
	li	a4,1073758208
	lw	a4,532(a4)
.LM96:
	sw	a4,12(a5)
.LM97:
.LM98:
	li	a4,1073758208
	lw	a4,536(a4)
.LM99:
	sw	a4,16(a5)
.LM100:
.LM101:
	li	a4,1073758208
	lw	a4,540(a4)
.LM102:
	sw	a4,20(a5)
.LM103:
.LM104:
	li	a4,1073758208
	lw	a4,544(a4)
.LM105:
	sw	a4,24(a5)
.LM106:
.LM107:
	li	a4,1073758208
	lw	a4,548(a4)
.LM108:
	sw	a4,28(a5)
.LM109:
	lw	ra,12(sp)
	.cfi_restore 1
	addi	sp,sp,16
	.cfi_def_cfa_offset 0
	jr	ra
	.cfi_endproc
.LFE14:
	.size	sec_trng_IRQHandler, .-sec_trng_IRQHandler
	.section	.rodata.bl_sec_pka_IRQHandler.str1.4,"aMS",@progbits,1
	.align	2
.LC1:
	.string	"--->>> PKA IRQ\r\n"
	.section	.text.bl_sec_pka_IRQHandler,"ax",@progbits
	.align	1
	.globl	bl_sec_pka_IRQHandler
	.type	bl_sec_pka_IRQHandler, @function
bl_sec_pka_IRQHandler:
.LFB24:
.LM110:
	.cfi_startproc
.LM111:
	lui	a0,%hi(.LC1)
.LM112:
	addi	sp,sp,-16
	.cfi_def_cfa_offset 16
.LM113:
	addi	a0,a0,%lo(.LC1)
.LM114:
	sw	ra,12(sp)
	.cfi_offset 1, -4
.LM115:
	call	puts
.LVL23:
.LM116:
.LM117:
	lw	ra,12(sp)
	.cfi_restore 1
.LM118:
	li	a1,1
.LM119:
.LM120:
	li	a0,3
.LM121:
	addi	sp,sp,16
	.cfi_def_cfa_offset 0
.LM122:
	tail	SEC_Eng_IntMask
.LVL24:
	.cfi_endproc
.LFE24:
	.size	bl_sec_pka_IRQHandler, .-bl_sec_pka_IRQHandler
	.section	.text.bl_sec_get_random_word,"ax",@progbits
	.align	1
	.globl	bl_sec_get_random_word
	.type	bl_sec_get_random_word, @function
bl_sec_get_random_word:
.LFB11:
.LM123:
	.cfi_startproc
.LM124:
.LM125:
	addi	sp,sp,-16
	.cfi_def_cfa_offset 16
	sw	s1,4(sp)
	.cfi_offset 9, -12
.LM126:
	lui	s1,%hi(trng_idx)
.LM127:
	sw	s0,8(sp)
	.cfi_offset 8, -8
.LM128:
	lw	s0,%lo(trng_idx)(s1)
.LM129:
	sw	ra,12(sp)
	.cfi_offset 1, -4
.LM130:
	andi	s0,s0,7
.LM131:
.LM132:
	bne	s0,zero,.L14
.LM133:
	call	_trng_trigger
.LVL25:
.L14:
.LM134:
.LM135:
	addi	a5,s0,1
	sw	a5,%lo(trng_idx)(s1)
.LM136:
	lui	a5,%hi(trng_buffer)
	slli	s0,s0,2
	addi	a5,a5,%lo(trng_buffer)
.LM137:
	lw	ra,12(sp)
	.cfi_restore 1
.LM138:
	add	a5,a5,s0
.LM139:
	lw	s0,8(sp)
	.cfi_restore 8
	lw	a0,0(a5)
	lw	s1,4(sp)
	.cfi_restore 9
	addi	sp,sp,16
	.cfi_def_cfa_offset 0
	jr	ra
	.cfi_endproc
.LFE11:
	.size	bl_sec_get_random_word, .-bl_sec_get_random_word
	.section	.text.bl_rand_stream,"ax",@progbits
	.align	1
	.globl	bl_rand_stream
	.type	bl_rand_stream, @function
bl_rand_stream:
.LVL26:
.LFB12:
.LM140:
	.cfi_startproc
.LM141:
.LM142:
.LM143:
.LM144:
	addi	sp,sp,-48
	.cfi_def_cfa_offset 48
	sw	s1,36(sp)
	.cfi_offset 9, -12
.LM145:
	lui	s1,%hi(trng_idx)
.LM146:
	lw	a5,%lo(trng_idx)(s1)
.LM147:
	sw	s0,40(sp)
	sw	s6,16(sp)
	sw	ra,44(sp)
	sw	s2,32(sp)
	sw	s3,28(sp)
	sw	s4,24(sp)
	sw	s5,20(sp)
	.cfi_offset 8, -8
	.cfi_offset 22, -32
	.cfi_offset 1, -4
	.cfi_offset 18, -16
	.cfi_offset 19, -20
	.cfi_offset 20, -24
	.cfi_offset 21, -28
.LM148:
	mv	s6,a0
	mv	s0,a1
.LM149:
	beq	a5,zero,.L17
.LM150:
	call	_trng_trigger
.LVL27:
.LM151:
	call	wait_trng4feed
.LVL28:
.LM152:
.LM153:
	sw	zero,%lo(trng_idx)(s1)
.L17:
.LM154:
	lui	a5,%hi(trng_buffer)
.LM155:
	li	s2,0
.LM156:
	li	s3,32
.LM157:
	addi	s5,a5,%lo(trng_buffer)
.LM158:
	li	s4,31
.LVL29:
.L18:
.LM159:
	bgt	s0,zero,.L21
.LM160:
	call	_trng_trigger
.LVL30:
.LM161:
	call	wait_trng4feed
.LVL31:
.LM162:
.LM163:
	lw	ra,44(sp)
	.cfi_remember_state
	.cfi_restore 1
	lw	s0,40(sp)
	.cfi_restore 8
.LVL32:
.LM164:
	sw	zero,%lo(trng_idx)(s1)
.LM165:
	lw	s2,32(sp)
	.cfi_restore 18
.LVL33:
.LM166:
	lw	s1,36(sp)
	.cfi_restore 9
	lw	s3,28(sp)
	.cfi_restore 19
	lw	s4,24(sp)
	.cfi_restore 20
	lw	s5,20(sp)
	.cfi_restore 21
	lw	s6,16(sp)
	.cfi_restore 22
.LVL34:
.LM167:
	addi	sp,sp,48
	.cfi_def_cfa_offset 0
	jr	ra
.LVL35:
.L21:
	.cfi_restore_state
.LM168:
.LM169:
	lw	a5,%lo(trng_idx)(s1)
	beq	a5,zero,.L19
.LM170:
	call	_trng_trigger
.LVL36:
.LM171:
	call	wait_trng4feed
.LVL37:
.LM172:
.LM173:
	sw	zero,%lo(trng_idx)(s1)
.L19:
.LM174:
.LM175:
	mv	a2,s0
	ble	s0,s3,.L20
.LM176:
	li	a2,32
.L20:
.LVL38:
.LM177:
	add	a0,s6,s2
	mv	a1,s5
	sw	a2,12(sp)
	call	memcpy
.LVL39:
.LM178:
.LM179:
	lw	a2,12(sp)
.LM180:
	sw	s4,%lo(trng_idx)(s1)
.LM181:
	add	s2,s2,a2
.LVL40:
.LM182:
.LM183:
	sub	s0,s0,a2
.LVL41:
.LM184:
	j	.L18
	.cfi_endproc
.LFE12:
	.size	bl_rand_stream, .-bl_rand_stream
	.section	.rodata.bl_rand.str1.4,"aMS",@progbits,1
	.align	2
.LC2:
	.string	"[BL] [SEC] Failed after loop (17)\r\n"
	.section	.text.bl_rand,"ax",@progbits
	.align	1
	.globl	bl_rand
	.type	bl_rand, @function
bl_rand:
.LFB13:
.LM185:
	.cfi_startproc
.LM186:
.LM187:
.LVL42:
.LM188:
	addi	sp,sp,-16
	.cfi_def_cfa_offset 16
	sw	s0,8(sp)
	sw	ra,12(sp)
	sw	s1,4(sp)
	.cfi_offset 8, -8
	.cfi_offset 1, -4
	.cfi_offset 9, -12
.LM189:
	li	s0,19
.LVL43:
.L32:
.LM190:
.LM191:
.LM192:
	call	bl_sec_get_random_word
.LVL44:
.LM193:
	addi	s0,s0,-1
.LVL45:
.LM194:
	mv	s1,a0
.LVL46:
.LM195:
.LM196:
	bne	s0,zero,.L30
.LM197:
	lui	a0,%hi(.LC2)
	addi	a0,a0,%lo(.LC2)
	call	puts
.LVL47:
.LM198:
.L31:
.LM199:
.LM200:
.LM201:
	lw	ra,12(sp)
	.cfi_remember_state
	.cfi_restore 1
	lw	s0,8(sp)
	.cfi_restore 8
	srli	a0,s1,1
.LVL48:
.LM202:
	lw	s1,4(sp)
	.cfi_restore 9
	addi	sp,sp,16
	.cfi_def_cfa_offset 0
	jr	ra
.LVL49:
.L30:
	.cfi_restore_state
.LM203:
	beq	a0,zero,.L32
	j	.L31
	.cfi_endproc
.LFE13:
	.size	bl_rand, .-bl_rand
	.section	.text.bl_sec_init,"ax",@progbits
	.align	1
	.globl	bl_sec_init
	.type	bl_sec_init, @function
bl_sec_init:
.LFB15:
.LM204:
	.cfi_startproc
.LM205:
.LM206:
	lui	a1,%hi(sha_mutex_buf)
.LM207:
	addi	sp,sp,-16
	.cfi_def_cfa_offset 16
.LM208:
	addi	a1,a1,%lo(sha_mutex_buf)
	li	a0,1
.LM209:
	sw	ra,12(sp)
	.cfi_offset 1, -4
.LM210:
	call	xQueueCreateMutexStatic
.LVL50:
.LM211:
	lui	a5,%hi(g_bl_sec_sha_mutex)
	sw	a0,%lo(g_bl_sec_sha_mutex)(a5)
.LM212:
	call	_trng_trigger
.LVL51:
.LM213:
	call	wait_trng4feed
.LVL52:
.LM214:
	call	_trng_trigger
.LVL53:
.LM215:
	call	wait_trng4feed
.LVL54:
.LM216:
	lui	a1,%hi(sec_trng_IRQHandler)
	addi	a1,a1,%lo(sec_trng_IRQHandler)
	li	a0,28
	call	bl_irq_register
.LVL55:
.LM217:
	li	a0,28
	call	bl_irq_enable
.LVL56:
.LM218:
.LM219:
	lw	ra,12(sp)
	.cfi_restore 1
	li	a0,0
	addi	sp,sp,16
	.cfi_def_cfa_offset 0
	jr	ra
	.cfi_endproc
.LFE15:
	.size	bl_sec_init, .-bl_sec_init
	.section	.text.bl_exp_mod,"ax",@progbits
	.align	1
	.globl	bl_exp_mod
	.type	bl_exp_mod, @function
bl_exp_mod:
.LVL57:
.LFB16:
.LM220:
	.cfi_startproc
.LM221:
.LM222:
	li	a0,0
.LVL58:
.LM223:
	ret
	.cfi_endproc
.LFE16:
	.size	bl_exp_mod, .-bl_exp_mod
	.section	.text.bl_sec_test,"ax",@progbits
	.align	1
	.globl	bl_sec_test
	.type	bl_sec_test, @function
bl_sec_test:
.LFB17:
.LM224:
	.cfi_startproc
.LM225:
.LM226:
.LM227:
.LM228:
.LM229:
.LM230:
	li	a0,0
	ret
	.cfi_endproc
.LFE17:
	.size	bl_sec_test, .-bl_sec_test
	.section	.rodata._dump_rsa_data.str1.4,"aMS",@progbits,1
	.align	2
.LC3:
	.string	"\r\n"
	.section	.text._dump_rsa_data,"ax",@progbits
	.align	1
	.globl	_dump_rsa_data
	.type	_dump_rsa_data, @function
_dump_rsa_data:
.LVL59:
.LFB18:
.LM231:
	.cfi_startproc
.LM232:
.LM233:
.LM234:
	addi	sp,sp,-32
	.cfi_def_cfa_offset 32
.LM235:
	lui	a5,%hi(.LC3)
.LM236:
	sw	s0,24(sp)
	sw	s1,20(sp)
	sw	s2,16(sp)
	sw	ra,28(sp)
	.cfi_offset 8, -8
	.cfi_offset 9, -12
	.cfi_offset 18, -16
	.cfi_offset 1, -4
.LM237:
	li	s0,0
.LM238:
	li	s1,15
.LM239:
	addi	s2,a5,%lo(.LC3)
.LVL60:
.L41:
.LM240:
	blt	s0,a1,.L43
.LM241:
	lw	ra,28(sp)
	.cfi_remember_state
	.cfi_restore 1
	lw	s0,24(sp)
	.cfi_restore 8
.LVL61:
.LM242:
	lw	s1,20(sp)
	.cfi_restore 9
	lw	s2,16(sp)
	.cfi_restore 18
	addi	sp,sp,32
	.cfi_def_cfa_offset 0
	jr	ra
.LVL62:
.L43:
	.cfi_restore_state
.LM243:
.LM244:
	andi	a5,s0,15
.LM245:
	bne	a5,s1,.L42
.LM246:
	mv	a0,s2
	sw	a1,12(sp)
.LM247:
.LM248:
	call	puts
.LVL63:
	lw	a1,12(sp)
.LM249:
.L42:
.LM250:
.LM251:
	addi	s0,s0,1
.LVL64:
.LM252:
	j	.L41
	.cfi_endproc
.LFE18:
	.size	_dump_rsa_data, .-_dump_rsa_data
	.section	.text._pka_test_case_xgcd,"ax",@progbits
	.align	1
	.type	_pka_test_case_xgcd, @function
_pka_test_case_xgcd:
.LFB22:
.LM253:
	.cfi_startproc
.LM254:
.LVL65:
.LM255:
.LM256:
.LM257:
.LM258:
.LM259:
.LM260:
	addi	sp,sp,-288
	.cfi_def_cfa_offset 288
	sw	ra,284(sp)
	sw	s0,280(sp)
	sw	s1,276(sp)
	.cfi_offset 1, -4
	.cfi_offset 8, -8
	.cfi_offset 9, -12
.LM261:
	sb	zero,15(sp)
.LM262:
.LM263:
	call	Sec_Eng_PKA_Reset
.LVL66:
.LM264:
	call	Sec_Eng_PKA_BigEndian_Enable
.LVL67:
.LM265:
	lui	a2,%hi(n.8)
	li	a4,0
	li	a3,64
	addi	a2,a2,%lo(n.8)
	li	a1,1
	li	a0,8
	call	Sec_Eng_PKA_Write_Data
.LVL68:
.LM266:
	li	a3,0
	li	a2,0
	li	a1,2
	li	a0,8
	call	Sec_Eng_PKA_CREG
.LVL69:
.LM267:
	li	a3,1
	li	a2,0
	li	a1,3
	li	a0,8
	call	Sec_Eng_PKA_CREG
.LVL70:
.LM268:
	lui	s0,%hi(n_exp.7)
	li	a4,0
	li	a3,64
	addi	a2,s0,%lo(n_exp.7)
	li	a1,0
	li	a0,8
	call	Sec_Eng_PKA_Write_Data
.LVL71:
.LM269:
	li	a4,4096
	li	a5,0
	addi	a4,a4,-2048
	li	a3,0
	li	a2,8
	li	a1,1
	li	a0,10
	call	Sec_Eng_PKA_LMUL2N
.LVL72:
.LM270:
	li	a5,1
	li	a4,8
	mv	a3,a5
	mv	a0,a4
	li	a6,0
	li	a2,10
	li	a1,0
	call	Sec_Eng_PKA_LDIV
.LVL73:
.LM271:
	li	a5,1
	li	a4,8
	mv	a3,a5
	li	a6,0
	mv	a0,a4
	li	a2,10
	li	a1,4
	call	Sec_Eng_PKA_MREM
.LVL74:
.LM272:
	li	a3,1
	mv	a1,a3
	li	a2,0
	li	a0,10
	call	Sec_Eng_PKA_CREG
.LVL75:
.LM273:
	li	a2,8
	mv	a0,a2
	li	a4,0
	li	a3,1
	li	a1,2
	call	Sec_Eng_PKA_Move_Data
.LVL76:
.LM274:
	li	a4,1
	li	a2,8
	mv	a1,a4
	mv	a0,a2
	li	a3,4
	call	Sec_Eng_PKA_Move_Data
.LVL77:
.LM275:
	lui	s1,%hi(all_zero.6)
	li	a4,0
	li	a3,64
	addi	a2,s1,%lo(all_zero.6)
	li	a1,4
	li	a0,8
	call	Sec_Eng_PKA_Write_Data
.LVL78:
.LM276:
	li	a4,0
	li	a3,64
	addi	a2,s0,%lo(n_exp.7)
	li	a1,5
	li	a0,8
	call	Sec_Eng_PKA_Write_Data
.LVL79:
.LM277:
	li	a4,0
	li	a3,64
	addi	a2,s0,%lo(n_exp.7)
	li	a1,6
	li	a0,8
	call	Sec_Eng_PKA_Write_Data
.LVL80:
.LM278:
	li	a4,0
	li	a3,64
	addi	a2,s1,%lo(all_zero.6)
	li	a1,7
	li	a0,8
	call	Sec_Eng_PKA_Write_Data
.LVL81:
.LM279:
	li	a4,8
	mv	a2,a4
	mv	a1,a4
	mv	a0,a4
	li	a6,0
	li	a5,5
	li	a3,0
	call	Sec_Eng_PKA_LMUL
.LVL82:
.LM280:
	li	a5,8
	mv	a4,a5
	mv	a2,a5
	mv	a1,a5
	mv	a0,a5
	li	a6,0
	li	a3,4
	call	Sec_Eng_PKA_LSUB
.LVL83:
.LM281:
	li	a4,8
	mv	a2,a4
	mv	a0,a4
	li	a6,0
	li	a5,7
	li	a3,0
	li	a1,9
	call	Sec_Eng_PKA_LMUL
.LVL84:
.LM282:
	li	a5,9
	li	a4,8
	mv	a1,a5
	li	a6,0
	mv	a2,a4
	mv	a0,a4
	li	a3,6
	call	Sec_Eng_PKA_LSUB
.LVL85:
.LM283:
	li	a2,8
	mv	a0,a2
	li	a4,0
	li	a3,5
	li	a1,4
	call	Sec_Eng_PKA_Move_Data
.LVL86:
.LM284:
	li	a3,8
	mv	a2,a3
	mv	a0,a3
	li	a4,0
	li	a1,5
	call	Sec_Eng_PKA_Move_Data
.LVL87:
.LM285:
	li	a2,8
	mv	a0,a2
	li	a4,0
	li	a3,7
	li	a1,6
	call	Sec_Eng_PKA_Move_Data
.LVL88:
.LM286:
	li	a2,8
	li	a4,1
	li	a3,9
	li	a1,7
	mv	a0,a2
	call	Sec_Eng_PKA_Move_Data
.LVL89:
.LM287:
.L46:
.LM288:
	lbu	a5,15(sp)
	beq	a5,zero,.L47
.LM289:
	addi	a2,sp,16
	li	a3,64
	li	a1,6
	li	a0,8
	call	Sec_Eng_PKA_Read_Data
.LVL90:
.LM290:
	addi	a0,sp,16
	li	a1,256
	call	_dump_rsa_data
.LVL91:
.LM291:
	lw	ra,284(sp)
	.cfi_remember_state
	.cfi_restore 1
	lw	s0,280(sp)
	.cfi_restore 8
	lw	s1,276(sp)
	.cfi_restore 9
	addi	sp,sp,288
	.cfi_def_cfa_offset 0
	jr	ra
.L47:
	.cfi_restore_state
.LM292:
	li	a4,8
	mv	a2,a4
	mv	a0,a4
	li	a6,0
	li	a5,1
	li	a3,2
	li	a1,0
	call	Sec_Eng_PKA_LDIV
.LVL92:
.LM293:
	li	a4,8
	mv	a2,a4
	mv	a0,a4
	li	a6,0
	li	a5,1
	li	a3,2
	li	a1,3
	call	Sec_Eng_PKA_MREM
.LVL93:
.LM294:
	li	a4,8
	mv	a2,a4
	mv	a1,a4
	mv	a0,a4
	li	a6,0
	li	a5,5
	li	a3,0
	call	Sec_Eng_PKA_LMUL
.LVL94:
.LM295:
	li	a5,8
	mv	a4,a5
	mv	a2,a5
	mv	a1,a5
	mv	a0,a5
	li	a6,0
	li	a3,4
	call	Sec_Eng_PKA_LSUB
.LVL95:
.LM296:
	li	a4,8
	mv	a2,a4
	mv	a0,a4
	li	a6,0
	li	a5,7
	li	a3,0
	li	a1,9
	call	Sec_Eng_PKA_LMUL
.LVL96:
.LM297:
	li	a5,9
	li	a4,8
	mv	a1,a5
	li	a6,0
	mv	a2,a4
	mv	a0,a4
	li	a3,6
	call	Sec_Eng_PKA_LSUB
.LVL97:
.LM298:
	li	a2,8
	mv	a0,a2
	li	a4,0
	li	a3,1
	li	a1,2
	call	Sec_Eng_PKA_Move_Data
.LVL98:
.LM299:
	li	a2,8
	mv	a0,a2
	li	a4,0
	li	a3,5
	li	a1,4
	call	Sec_Eng_PKA_Move_Data
.LVL99:
.LM300:
	li	a3,8
	mv	a2,a3
	mv	a0,a3
	li	a4,0
	li	a1,5
	call	Sec_Eng_PKA_Move_Data
.LVL100:
.LM301:
	li	a2,8
	mv	a0,a2
	li	a4,0
	li	a3,7
	li	a1,6
	call	Sec_Eng_PKA_Move_Data
.LVL101:
.LM302:
	li	a2,8
	mv	a0,a2
	li	a4,1
	li	a3,9
	li	a1,7
	call	Sec_Eng_PKA_Move_Data
.LVL102:
.LM303:
	li	a4,1
	li	a2,8
	mv	a1,a4
	mv	a0,a2
	li	a3,3
	call	Sec_Eng_PKA_Move_Data
.LVL103:
.LM304:
	addi	a2,s0,%lo(n_exp.7)
	li	a4,0
	li	a3,64
	li	a1,10
	li	a0,8
	call	Sec_Eng_PKA_Write_Data
.LVL104:
.LM305:
	li	a3,8
	li	a4,10
	li	a2,1
	mv	a1,a3
	addi	a0,sp,15
	call	Sec_Eng_PKA_LCMP
.LVL105:
	j	.L46
	.cfi_endproc
.LFE22:
	.size	_pka_test_case_xgcd, .-_pka_test_case_xgcd
	.section	.text._pka_test_case2,"ax",@progbits
	.align	1
	.type	_pka_test_case2, @function
_pka_test_case2:
.LFB20:
.LM306:
	.cfi_startproc
.LM307:
.LM308:
.LM309:
.LM310:
.LM311:
.LM312:
.LM313:
.LM314:
.LM315:
	addi	sp,sp,-288
	.cfi_def_cfa_offset 288
	sw	ra,284(sp)
	sw	s0,280(sp)
	.cfi_offset 1, -4
	.cfi_offset 8, -8
.LM316:
	call	Sec_Eng_PKA_Reset
.LVL106:
.LM317:
	call	Sec_Eng_PKA_BigEndian_Enable
.LVL107:
.LM318:
	lui	a2,%hi(n.5)
	li	a4,0
	li	a3,64
	addi	a2,a2,%lo(n.5)
	li	a1,0
	li	a0,8
	call	Sec_Eng_PKA_Write_Data
.LVL108:
.LM319:
	lui	a2,%hi(nprime.4)
	li	a4,0
	li	a3,64
	addi	a2,a2,%lo(nprime.4)
	li	a1,1
	li	a0,8
	call	Sec_Eng_PKA_Write_Data
.LVL109:
.LM320:
	lui	a2,%hi(m.3)
	li	a4,0
	li	a3,64
	addi	a2,a2,%lo(m.3)
	li	a1,2
	li	a0,8
	call	Sec_Eng_PKA_Write_Data
.LVL110:
.LM321:
	lui	a2,%hi(e.2)
	li	a4,0
	li	a3,1
	addi	a2,a2,%lo(e.2)
	li	a1,3
	li	a0,8
	call	Sec_Eng_PKA_Write_Data
.LVL111:
.LM322:
	li	a3,0
	li	a2,0
	li	a1,4
	li	a0,8
	call	Sec_Eng_PKA_CREG
.LVL112:
.LM323:
	li	a3,1
	li	a2,0
	li	a1,5
	li	a0,8
	call	Sec_Eng_PKA_CREG
.LVL113:
.LM324:
	li	a3,2
	li	a4,4096
	mv	a1,a3
	li	a5,0
	addi	a4,a4,-2048
	li	a2,8
	li	a0,10
	call	Sec_Eng_PKA_LMUL2N
.LVL114:
.LM325:
	li	a4,8
	li	a3,2
	mv	a0,a4
	li	a6,0
	li	a5,0
	mv	a1,a3
	li	a2,10
	call	Sec_Eng_PKA_MREM
.LVL115:
.LM326:
	li	a3,1
	li	a2,0
	li	a1,2
	li	a0,10
	call	Sec_Eng_PKA_CREG
.LVL116:
.LM327:
	li	a6,8
	li	s0,1
	li	a7,0
	mv	a4,a6
	mv	a2,a6
	mv	a0,a6
	li	a5,3
	sw	s0,0(sp)
	li	a3,2
	li	a1,4
	call	Sec_Eng_PKA_MEXP
.LVL117:
.LM328:
	li	a2,8
	mv	a4,s0
	mv	a0,a2
	li	a3,4
	li	a1,2
	call	Sec_Eng_PKA_Move_Data
.LVL118:
.LM329:
	lui	a2,%hi(inv_r.1)
	li	a4,0
	mv	a1,s0
	li	a3,64
	addi	a2,a2,%lo(inv_r.1)
	li	a0,8
	call	Sec_Eng_PKA_Write_Data
.LVL119:
.LM330:
	li	a3,0
	li	a2,0
	li	a1,4
	li	a0,8
	call	Sec_Eng_PKA_CREG
.LVL120:
.LM331:
	mv	a3,s0
	li	a2,0
	li	a1,5
	li	a0,8
	call	Sec_Eng_PKA_CREG
.LVL121:
.LM332:
	li	a4,8
	li	a3,2
	mv	a5,s0
	mv	a2,a4
	mv	a1,a3
	li	a6,0
	li	a0,10
	call	Sec_Eng_PKA_LMUL
.LVL122:
.LM333:
	li	a4,8
	li	a3,2
	mv	a0,a4
	li	a6,0
	li	a5,0
	mv	a1,a3
	li	a2,10
	call	Sec_Eng_PKA_MREM
.LVL123:
.LM334:
	mv	a3,s0
	li	a2,0
	li	a1,2
	li	a0,10
	call	Sec_Eng_PKA_CREG
.LVL124:
.LM335:
	addi	a2,sp,16
	li	a3,64
	li	a1,2
	li	a0,8
	call	Sec_Eng_PKA_Read_Data
.LVL125:
.LM336:
	addi	a0,sp,16
	li	a1,256
	call	_dump_rsa_data
.LVL126:
.LM337:
.LM338:
	lw	ra,284(sp)
	.cfi_restore 1
	lw	s0,280(sp)
	.cfi_restore 8
	addi	sp,sp,288
	.cfi_def_cfa_offset 0
	jr	ra
	.cfi_endproc
.LFE20:
	.size	_pka_test_case2, .-_pka_test_case2
	.section	.text.bl_pka_test,"ax",@progbits
	.align	1
	.globl	bl_pka_test
	.type	bl_pka_test, @function
bl_pka_test:
.LFB23:
.LM339:
	.cfi_startproc
.LM340:
	lui	a1,%hi(bl_sec_pka_IRQHandler)
.LM341:
	addi	sp,sp,-16
	.cfi_def_cfa_offset 16
.LM342:
	addi	a1,a1,%lo(bl_sec_pka_IRQHandler)
	li	a0,27
.LM343:
	sw	ra,12(sp)
	.cfi_offset 1, -4
.LM344:
	call	bl_irq_register
.LVL127:
.LM345:
	li	a0,27
	call	bl_irq_enable
.LVL128:
.LM346:
	call	_pka_test_case2
.LVL129:
.LM347:
	call	_pka_test_case_xgcd
.LVL130:
.LM348:
	call	_pka_test_case2
.LVL131:
.LM349:
.LM350:
	lw	ra,12(sp)
	.cfi_restore 1
	li	a0,0
	addi	sp,sp,16
	.cfi_def_cfa_offset 0
	jr	ra
	.cfi_endproc
.LFE23:
	.size	bl_pka_test, .-bl_pka_test
	.section	.rodata.inv_r.1,"a"
	.align	2
	.type	inv_r.1, @object
	.size	inv_r.1, 256
inv_r.1:
	.base64	"L7f1StIZ3iR8281SbrwsXHaaNsOHM/fpPVs9zTN6O05V9dlCdmMoeqh899H2DSa6vp819IbFk0zodtqIuL6tJWvnRDscLJkV7jNGxuCwOW0gsmjHdUEs/8uTHUDSDmTqLgpVnwSd/V4kqShcLRsph2FrUGoxMUMSE+MfR4oR0lsmXnkEC6iwNiLaPF65CUiwMjgl7P1e7/+AM5+UjG4q+79lGJh+/0HeAC/Sfb9MVE4cRtar9gc0Y+MLgaCUfa9+N9bFpkqQbERq2Q8gsu8ioN84LQuzA7LI5o10v0WR4CIWv8TaVCaqZYWIw/uf/BTE/4uIR1+xVd9HXMAnOXvo"
	.ascii	"\255"
	.section	.srodata.e.2,"a"
	.align	2
	.type	e.2, @object
	.size	e.2, 4
e.2:
	.base64	"AAEAAQ=="
	.section	.rodata.m.3,"a"
	.align	2
	.type	m.3, @object
	.size	m.3, 256
m.3:
	.ascii	"016da41f4bf58a625aa5c307bcd1a7503db06c97b091938a21b5f68e377a"
	.ascii	"b899bef7ca1650e8f08d7287dd0f6d2ad64128838c595a2d10e467ab5453"
	.ascii	"c4ec770538ac9f806f08ff308e6edb5541f9f046c672b1207755b05f56d3"
	.ascii	"a6617dc754d5e204c1616a13e3b14e8e29c953386eedbc09407b94348776"
	.ascii	"67cb309c63042262"
	.section	.rodata.nprime.4,"a"
	.align	2
	.type	nprime.4, @object
	.size	nprime.4, 256
nprime.4:
	.base64	"OGLB9VUtPWBeQuFl3u011cWF5E7rdKUis+1fW7G56Qp9pXRY+KGrF3TQB6N/0ptQKu1e3Fpp/g6x2FM1m+8ddlKehzywgk4D33XtCZ89N/boDckugfKdLqrmU3lrme9GNtkunRXRfyMUueszp9SOhmDJ2XzKVFlXlB5STcg/myQoJctXyo8WWjfCxq7F58Qu8yQct+n1kk7UUVD/3kQ8rnK9FjljiiKcldoh8EwSNi0ArbOJtQmePSSB/O+ZlSKds5Q5Mt3EKy+wE/61Xsdkk3q1gZMfn5YeelyN3o+u2cjdNR4XR7ar7baCIkxivRJORFxIK3VjHN76FQ2xUDG2"
	.ascii	"\313"
	.section	.rodata.n.5,"a"
	.align	2
	.type	n.5, @object
	.size	n.5, 256
n.5:
	.base64	"2KZP6ij53wcEVfr7UF2+tp97U5bvBV4K9S3jZ3gHa/ayF6wuUUKEu/4+XwyFxJ3Ui9X6Fy2xJoHneQdFgkIiPQ2Xz97quLoWBYpbD+wHMKTGv/8gUhuUrfq3boMUSFgUmeejnsEIvf4gEVbblgq7C7zUN1X5nG1bh05QnyQOOhoMVGe9DzQDXkVbk0K+cean+Ukas7L7Du49zwxa+LWAQnwMdcXhFyk5VSux9XIGnlQLDvKVyFtpr1uBl66xbsRtldgiHjnwdlQZlgNMJYUv4YTXwWLhnp8f1Ljwwmh2fM9DPmCT0IllrnLN1gANkUKQmAKp9oIbtSL9tsJcrYaB"
	.ascii	"\035"
	.section	.rodata.all_zero.6,"a"
	.align	2
	.type	all_zero.6, @object
	.size	all_zero.6, 256
all_zero.6:
	.zero	256
	.section	.rodata.n_exp.7,"a"
	.align	2
	.type	n_exp.7, @object
	.size	n_exp.7, 256
n_exp.7:
	.zero	255
	.ascii	"\001"
	.section	.rodata.n.8,"a"
	.align	2
	.type	n.8, @object
	.size	n.8, 256
n.8:
	.base64	"2KZP6ij53wcEVfr7UF2+tp97U5bvBV4K9S3jZ3gHa/ayF6wuUUKEu/4+XwyFxJ3Ui9X6Fy2xJoHneQdFgkIiPQ2Xz97quLoWBYpbD+wHMKTGv/8gUhuUrfq3boMUSFgUmeejnsEIvf4gEVbblgq7C7zUN1X5nG1bh05QnyQOOhoMVGe9DzQDXkVbk0K+cean+Ukas7L7Du49zwxa+LWAQnwMdcXhFyk5VSux9XIGnlQLDvKVyFtpr1uBl66xbsRtldgiHjnwdlQZlgNMJYUv4YTXwWLhnp8f1Ljwwmh2fM9DPmCT0IllrnLN1gANkUKQmAKp9oIbtSL9tsJcrYaB"
	.ascii	"\035"
	.globl	g_bl_sec_sha_mutex
	.section	.sbss.g_bl_sec_sha_mutex,"aw",@nobits
	.align	2
	.type	g_bl_sec_sha_mutex, @object
	.size	g_bl_sec_sha_mutex, 4
g_bl_sec_sha_mutex:
	.zero	4
	.section	.bss.sha_mutex_buf,"aw",@nobits
	.align	2
	.type	sha_mutex_buf, @object
	.size	sha_mutex_buf, 80
sha_mutex_buf:
	.zero	80
	.section	.sbss.trng_idx,"aw",@nobits
	.align	2
	.type	trng_idx, @object
	.size	trng_idx, 4
trng_idx:
	.zero	4
	.section	.bss.trng_buffer,"aw",@nobits
	.align	2
	.type	trng_buffer, @object
	.size	trng_buffer, 32
trng_buffer:
	.zero	32
	.text
.Letext0:
	.section	.note.GNU-stack,"",@progbits
