	.file	"bl_sys.c"
	.option nopic
	.attribute arch, "rv32i2p1_m2p0_f2p2_c2p0_zicsr2p0_zmmul1p0_zca1p0_zcf1p0"
	.attribute unaligned_access, 0
	.attribute stack_align, 16
	.text
.Ltext0:
	.cfi_sections	.debug_frame
	.section	.text.bl_sys_logall_enable,"ax",@progbits
	.align	1
	.globl	bl_sys_logall_enable
	.type	bl_sys_logall_enable, @function
bl_sys_logall_enable:
.LFB8:
.LM1:
	.cfi_startproc
.LM2:
.LM3:
	lui	a5,%hi(sys_log_all_enable)
	li	a4,1
	sb	a4,%lo(sys_log_all_enable)(a5)
.LM4:
.LM5:
	li	a0,0
	ret
	.cfi_endproc
.LFE8:
	.size	bl_sys_logall_enable, .-bl_sys_logall_enable
	.section	.text.bl_sys_logall_disable,"ax",@progbits
	.align	1
	.globl	bl_sys_logall_disable
	.type	bl_sys_logall_disable, @function
bl_sys_logall_disable:
.LFB9:
.LM6:
	.cfi_startproc
.LM7:
.LM8:
	lui	a5,%hi(sys_log_all_enable)
	sb	zero,%lo(sys_log_all_enable)(a5)
.LM9:
.LM10:
	li	a0,0
	ret
	.cfi_endproc
.LFE9:
	.size	bl_sys_logall_disable, .-bl_sys_logall_disable
	.section	.text.bl_sys_mfg_config,"ax",@progbits
	.align	1
	.globl	bl_sys_mfg_config
	.type	bl_sys_mfg_config, @function
bl_sys_mfg_config:
.LFB10:
.LM11:
	.cfi_startproc
.LM12:
.LM13:
.LM14:
	li	a5,1734766592
	li	a4,1073803264
	addi	a5,a5,-720
	sw	a5,256(a4)
.LM15:
	ret
	.cfi_endproc
.LFE10:
	.size	bl_sys_mfg_config, .-bl_sys_mfg_config
	.section	.text.bl_sys_reset_por,"ax",@progbits
	.align	1
	.globl	bl_sys_reset_por
	.type	bl_sys_reset_por, @function
bl_sys_reset_por:
.LFB11:
.LM16:
	.cfi_startproc
.LM17:
.LBB6:
.LBI6:
.LM18:
.LBB7:
.LM19:
.LBE7:
.LBE6:
.LM20:
	addi	sp,sp,-16
	.cfi_def_cfa_offset 16
	sw	ra,12(sp)
	.cfi_offset 1, -4
.LBB9:
.LBB8:
.LM21:
 #APP
# 94 "/home/shivani/bl602_iot_sdk/components/bl602/bl602_std/bl602_std/RISCV/Core/Include/cmsis_compatible_gcc.h" 1
	csrci mstatus, 8
# 0 "" 2
 #NO_APP
.LBE8:
.LBE9:
.LM22:
	call	GLB_SW_POR_Reset
.LVL0:
.L5:
.LM23:
.LM24:
.LM25:
	j	.L5
	.cfi_endproc
.LFE11:
	.size	bl_sys_reset_por, .-bl_sys_reset_por
	.section	.text.bl_sys_reset_system,"ax",@progbits
	.align	1
	.globl	bl_sys_reset_system
	.type	bl_sys_reset_system, @function
bl_sys_reset_system:
.LFB12:
.LM26:
	.cfi_startproc
.LM27:
.LBB10:
.LBI10:
.LM28:
.LBB11:
.LM29:
.LBE11:
.LBE10:
.LM30:
	addi	sp,sp,-16
	.cfi_def_cfa_offset 16
	sw	ra,12(sp)
	.cfi_offset 1, -4
.LBB13:
.LBB12:
.LM31:
 #APP
# 94 "/home/shivani/bl602_iot_sdk/components/bl602/bl602_std/bl602_std/RISCV/Core/Include/cmsis_compatible_gcc.h" 1
	csrci mstatus, 8
# 0 "" 2
 #NO_APP
.LBE12:
.LBE13:
.LM32:
	call	GLB_SW_System_Reset
.LVL1:
.L8:
.LM33:
.LM34:
.LM35:
	j	.L8
	.cfi_endproc
.LFE12:
	.size	bl_sys_reset_system, .-bl_sys_reset_system
	.section	.text.bl_sys_isxipaddr,"ax",@progbits
	.align	1
	.globl	bl_sys_isxipaddr
	.type	bl_sys_isxipaddr, @function
bl_sys_isxipaddr:
.LVL2:
.LFB13:
.LM36:
	.cfi_startproc
.LM37:
.LM38:
	li	a5,-16777216
	and	a0,a0,a5
.LVL3:
.LM39:
	li	a5,-587202560
	add	a0,a0,a5
	li	a5,-536870912
	addi	a5,a5,-1
	and	a0,a0,a5
.LM40:
	seqz	a0,a0
	ret
	.cfi_endproc
.LFE13:
	.size	bl_sys_isxipaddr, .-bl_sys_isxipaddr
	.section	.text.bl_sys_em_config,"ax",@progbits
	.align	1
	.globl	bl_sys_em_config
	.type	bl_sys_em_config, @function
bl_sys_em_config:
.LFB14:
.LM41:
	.cfi_startproc
.LM42:
.LM43:
.LM44:
.LVL4:
.LM45:
.LM46:
	addi	sp,sp,-16
	.cfi_def_cfa_offset 16
.LM47:
	lui	a5,%hi(__LD_CONFIG_EM_SEL)
.LM48:
	sw	ra,12(sp)
	.cfi_offset 1, -4
.LM49:
	addi	a5,a5,%lo(__LD_CONFIG_EM_SEL)
	li	a4,8192
	beq	a5,a4,.L12
	li	a4,16384
	beq	a5,a4,.L13
.L14:
.LM50:
.LM51:
.LM52:
	lw	ra,12(sp)
	.cfi_remember_state
	.cfi_restore 1
	li	a0,0
	addi	sp,sp,16
	.cfi_def_cfa_offset 0
	jr	ra
.L12:
	.cfi_restore_state
.LM53:
	li	a0,3
.L16:
.LM54:
	call	GLB_Set_EM_Sel
.LVL5:
.LM55:
	j	.L14
.L13:
.LM56:
	li	a0,15
	j	.L16
	.cfi_endproc
.LFE14:
	.size	bl_sys_em_config, .-bl_sys_em_config
	.section	.text.bl_sys_early_init,"ax",@progbits
	.align	1
	.globl	bl_sys_early_init
	.type	bl_sys_early_init, @function
bl_sys_early_init:
.LFB15:
.LM57:
	.cfi_startproc
.LM58:
.LM59:
.LM60:
	addi	sp,sp,-16
	.cfi_def_cfa_offset 16
.LM61:
	li	a0,1
.LM62:
	sw	ra,12(sp)
	.cfi_offset 1, -4
.LM63:
	call	HBN_Aon_Pad_IeSmt_Cfg
.LVL6:
.LM64:
.LM65:
.LM66:
	lui	a5,%hi(freertos_risc_v_trap_handler)
	addi	a5,a5,%lo(freertos_risc_v_trap_handler)
 #APP
# 132 "/home/shivani/bl602_iot_sdk/components/hal_drv/bl602_hal/bl_sys.c" 1
	csrw mtvec, a5
# 0 "" 2
.LM67:
.LM68:
 #NO_APP
	lw	ra,12(sp)
	.cfi_restore 1
	li	a0,0
	addi	sp,sp,16
	.cfi_def_cfa_offset 0
	jr	ra
	.cfi_endproc
.LFE15:
	.size	bl_sys_early_init, .-bl_sys_early_init
	.section	.text.bl_sys_init,"ax",@progbits
	.align	1
	.globl	bl_sys_init
	.type	bl_sys_init, @function
bl_sys_init:
.LFB16:
.LM69:
	.cfi_startproc
.LM70:
	tail	bl_sys_em_config
.LVL7:
	.cfi_endproc
.LFE16:
	.size	bl_sys_init, .-bl_sys_init
	.globl	sys_log_all_enable
	.section	.sdata.sys_log_all_enable,"aw"
	.type	sys_log_all_enable, @object
	.size	sys_log_all_enable, 1
sys_log_all_enable:
	.byte	1
	.text
.Letext0:
	.section	.note.GNU-stack,"",@progbits
