	.file	"bl_wdt_cli.c"
	.option nopic
	.attribute arch, "rv32i2p1_m2p0_f2p2_c2p0_zicsr2p0_zmmul1p0_zca1p0_zcf1p0"
	.attribute unaligned_access, 0
	.attribute stack_align, 16
	.text
.Ltext0:
	.cfi_sections	.debug_frame
	.section	.text.cmd_timer_start,"ax",@progbits
	.align	1
	.type	cmd_timer_start, @function
cmd_timer_start:
.LVL0:
.LFB8:
.LM1:
	.cfi_startproc
.LM2:
.LM3:
	tail	bl_timer_tick_enable
.LVL1:
.LM4:
	.cfi_endproc
.LFE8:
	.size	cmd_timer_start, .-cmd_timer_start
	.section	.text.cmd_wdt_disable,"ax",@progbits
	.align	1
	.type	cmd_wdt_disable, @function
cmd_wdt_disable:
.LVL2:
.LFB7:
.LM5:
	.cfi_startproc
.LM6:
	tail	bl_wdt_disable
.LVL3:
.LM7:
	.cfi_endproc
.LFE7:
	.size	cmd_wdt_disable, .-cmd_wdt_disable
	.section	.text.cmd_wdt_feed,"ax",@progbits
	.align	1
	.type	cmd_wdt_feed, @function
cmd_wdt_feed:
.LVL4:
.LFB6:
.LM8:
	.cfi_startproc
.LM9:
	tail	bl_wdt_feed
.LVL5:
.LM10:
	.cfi_endproc
.LFE6:
	.size	cmd_wdt_feed, .-cmd_wdt_feed
	.section	.rodata.cmd_wdt_init.str1.4,"aMS",@progbits,1
	.align	2
.LC0:
	.string	"bl_wdt_cli.c"
	.align	2
.LC1:
	.string	"\033[32mINFO  \033[0m"
	.align	2
.LC2:
	.string	"[%10u][%s: %s:%4d] Usage: %s ms\r\n"
	.align	2
.LC3:
	.string	"[%10u][%s: %s:%4d] Init WDT with %dms\r\n"
	.section	.text.cmd_wdt_init,"ax",@progbits
	.align	1
	.type	cmd_wdt_init, @function
cmd_wdt_init:
.LVL6:
.LFB5:
.LM11:
	.cfi_startproc
.LM12:
.LM13:
.LM14:
	addi	sp,sp,-32
	.cfi_def_cfa_offset 32
	sw	s0,24(sp)
	sw	s1,20(sp)
	sw	s2,16(sp)
	sw	s3,12(sp)
	sw	ra,28(sp)
	.cfi_offset 8, -8
	.cfi_offset 9, -12
	.cfi_offset 18, -16
	.cfi_offset 19, -20
	.cfi_offset 1, -4
.LM15:
	li	a5,2
.LM16:
	mv	s3,a3
	lui	s2,%hi(TrapNetCounter)
	lui	s1,%hi(.LC0)
	lui	s0,%hi(.LC1)
.LM17:
	beq	a2,a5,.L5
.LM18:
.LM19:
.LM20:
.LBB18:
.LBI18:
.LM21:
.LBB19:
.LM22:
.LBE19:
.LBE18:
.LM23:
	lw	a5,%lo(TrapNetCounter)(s2)
	beq	a5,zero,.L6
.LM24:
	call	xTaskGetTickCountFromISR
.LVL7:
.L12:
.LM25:
	addi	a2,s0,%lo(.LC1)
.LM26:
	lw	s0,24(sp)
	.cfi_remember_state
	.cfi_restore 8
.LM27:
	lw	a5,0(s3)
.LM28:
	lw	ra,28(sp)
	.cfi_restore 1
	lw	s2,16(sp)
	.cfi_restore 18
	lw	s3,12(sp)
	.cfi_restore 19
.LVL8:
.LM29:
	addi	a3,s1,%lo(.LC0)
.LM30:
	lw	s1,20(sp)
	.cfi_restore 9
.LM31:
	mv	a1,a0
.LM32:
	lui	a0,%hi(.LC2)
.LM33:
.LM34:
	li	a4,42
	addi	a0,a0,%lo(.LC2)
.LM35:
	addi	sp,sp,32
	.cfi_def_cfa_offset 0
.LM36:
	tail	bl_printk
.LVL9:
.L6:
	.cfi_restore_state
.LM37:
	call	xTaskGetTickCount
.LVL10:
.LM38:
	j	.L12
.LVL11:
.L5:
.LBB20:
.LBI20:
.LM39:
.LBB21:
.LM40:
.LM41:
	lw	a0,4(a3)
.LVL12:
.LM42:
	call	atoi
.LVL13:
.LM43:
	lw	a5,%lo(TrapNetCounter)(s2)
.LM44:
	mv	s3,a0
.LVL14:
.LM45:
.LM46:
.LM47:
.LBB22:
.LBI22:
.LM48:
.LBB23:
.LM49:
.LBE23:
.LBE22:
.LM50:
	beq	a5,zero,.L8
.LM51:
	call	xTaskGetTickCountFromISR
.LVL15:
.L13:
.LM52:
	mv	a1,a0
.LM53:
	lui	a0,%hi(.LC3)
	mv	a5,s3
	li	a4,46
	addi	a3,s1,%lo(.LC0)
	addi	a2,s0,%lo(.LC1)
	addi	a0,a0,%lo(.LC3)
	call	bl_printk
.LVL16:
.LM54:
.LM55:
.LM56:
.LM57:
	ble	s3,zero,.L4
.LM58:
.LBE21:
.LBE20:
.LM59:
	lw	s0,24(sp)
	.cfi_remember_state
	.cfi_restore 8
	lw	ra,28(sp)
	.cfi_restore 1
	lw	s1,20(sp)
	.cfi_restore 9
	lw	s2,16(sp)
	.cfi_restore 18
.LBB26:
.LBB24:
.LM60:
	mv	a0,s3
.LBE24:
.LBE26:
.LM61:
	lw	s3,12(sp)
	.cfi_restore 19
.LVL17:
.LM62:
	addi	sp,sp,32
	.cfi_def_cfa_offset 0
.LBB27:
.LBB25:
.LM63:
	tail	bl_wdt_init
.LVL18:
.L8:
	.cfi_restore_state
.LM64:
	call	xTaskGetTickCount
.LVL19:
.LM65:
	j	.L13
.L4:
.LM66:
.LBE25:
.LBE27:
.LM67:
	lw	ra,28(sp)
	.cfi_restore 1
	lw	s0,24(sp)
	.cfi_restore 8
	lw	s1,20(sp)
	.cfi_restore 9
	lw	s2,16(sp)
	.cfi_restore 18
	lw	s3,12(sp)
	.cfi_restore 19
.LVL20:
.LM68:
	addi	sp,sp,32
	.cfi_def_cfa_offset 0
	jr	ra
	.cfi_endproc
.LFE5:
	.size	cmd_wdt_init, .-cmd_wdt_init
	.section	.text.bl_wdt_cli_init,"ax",@progbits
	.align	1
	.globl	bl_wdt_cli_init
	.type	bl_wdt_cli_init, @function
bl_wdt_cli_init:
.LFB9:
.LM69:
	.cfi_startproc
.LM70:
.LM71:
	li	a0,0
	ret
	.cfi_endproc
.LFE9:
	.size	bl_wdt_cli_init, .-bl_wdt_cli_init
	.section	.rodata.str1.4,"aMS",@progbits,1
	.align	2
.LC4:
	.string	"wdt-init"
	.align	2
.LC5:
	.string	"wdt-init ms"
	.align	2
.LC6:
	.string	"wdt-feed"
	.align	2
.LC7:
	.string	"wdt-disable"
	.align	2
.LC8:
	.string	"timer-start"
	.section	.static_cli_cmds,"a"
	.align	2
	.type	cmds_user, @object
	.size	cmds_user, 48
cmds_user:
	.word	.LC4
	.word	.LC5
	.word	cmd_wdt_init
	.word	.LC6
	.word	.LC6
	.word	cmd_wdt_feed
	.word	.LC7
	.word	.LC7
	.word	cmd_wdt_disable
	.word	.LC8
	.word	.LC8
	.word	cmd_timer_start
	.text
.Letext0:
	.section	.note.GNU-stack,"",@progbits
