	.file	"bl_wifi.c"
	.option nopic
	.attribute arch, "rv32i2p1_m2p0_f2p2_c2p0_zicsr2p0_zmmul1p0_zca1p0_zcf1p0"
	.attribute unaligned_access, 0
	.attribute stack_align, 16
	.text
.Ltext0:
	.cfi_sections	.debug_frame
	.section	.text.bl_wifi_clock_enable,"ax",@progbits
	.align	1
	.globl	bl_wifi_clock_enable
	.type	bl_wifi_clock_enable, @function
bl_wifi_clock_enable:
.LFB8:
.LM1:
	.cfi_startproc
.LM2:
.LM3:
.LM4:
	lui	a5,%hi(called.0)
.LM5:
	lw	a4,%lo(called.0)(a5)
	bne	a4,zero,.L2
.LM6:
.LM7:
	li	a4,1
	sw	a4,%lo(called.0)(a5)
.L2:
.LM8:
.LM9:
	li	a0,0
	ret
	.cfi_endproc
.LFE8:
	.size	bl_wifi_clock_enable, .-bl_wifi_clock_enable
	.section	.rodata.bl_wifi_enable_irq.str1.4,"aMS",@progbits,1
	.align	2
.LC0:
	.string	"Enable BMX IRQ\r\n"
	.section	.text.bl_wifi_enable_irq,"ax",@progbits
	.align	1
	.globl	bl_wifi_enable_irq
	.type	bl_wifi_enable_irq, @function
bl_wifi_enable_irq:
.LFB9:
.LM10:
	.cfi_startproc
.LM11:
	lui	a1,%hi(mac_irq)
.LM12:
	addi	sp,sp,-16
	.cfi_def_cfa_offset 16
.LM13:
	addi	a1,a1,%lo(mac_irq)
	li	a0,70
.LM14:
	sw	ra,12(sp)
	.cfi_offset 1, -4
.LM15:
	call	bl_irq_register
.LVL0:
.LM16:
	lui	a1,%hi(bl_irq_handler)
	addi	a1,a1,%lo(bl_irq_handler)
	li	a0,79
	call	bl_irq_register
.LVL1:
.LM17:
	li	a0,70
	call	bl_irq_enable
.LVL2:
.LM18:
	li	a0,79
	call	bl_irq_enable
.LVL3:
.LM19:
	lui	a0,%hi(.LC0)
	addi	a0,a0,%lo(.LC0)
	call	puts
.LVL4:
.LM20:
.LM21:
	lw	ra,12(sp)
	.cfi_restore 1
	li	a0,0
	addi	sp,sp,16
	.cfi_def_cfa_offset 0
	jr	ra
	.cfi_endproc
.LFE9:
	.size	bl_wifi_enable_irq, .-bl_wifi_enable_irq
	.section	.text.bl_wifi_sta_mac_addr_set,"ax",@progbits
	.align	1
	.globl	bl_wifi_sta_mac_addr_set
	.type	bl_wifi_sta_mac_addr_set, @function
bl_wifi_sta_mac_addr_set:
.LVL5:
.LFB10:
.LM22:
	.cfi_startproc
.LM23:
.LM24:
	mv	a1,a0
.LM25:
	lui	a0,%hi(wifi_env)
.LVL6:
.LM26:
	addi	sp,sp,-16
	.cfi_def_cfa_offset 16
.LM27:
	li	a2,6
	addi	a0,a0,%lo(wifi_env)
.LM28:
	sw	ra,12(sp)
	.cfi_offset 1, -4
.LM29:
	call	memcpy
.LVL7:
.LM30:
.LM31:
	lw	ra,12(sp)
	.cfi_restore 1
	li	a0,0
	addi	sp,sp,16
	.cfi_def_cfa_offset 0
	jr	ra
	.cfi_endproc
.LFE10:
	.size	bl_wifi_sta_mac_addr_set, .-bl_wifi_sta_mac_addr_set
	.section	.text.bl_wifi_ap_mac_addr_set,"ax",@progbits
	.align	1
	.globl	bl_wifi_ap_mac_addr_set
	.type	bl_wifi_ap_mac_addr_set, @function
bl_wifi_ap_mac_addr_set:
.LVL8:
.LFB11:
.LM32:
	.cfi_startproc
.LM33:
.LM34:
	mv	a1,a0
.LM35:
	lui	a0,%hi(wifi_env+12)
.LVL9:
.LM36:
	addi	sp,sp,-16
	.cfi_def_cfa_offset 16
.LM37:
	li	a2,6
	addi	a0,a0,%lo(wifi_env+12)
.LM38:
	sw	ra,12(sp)
	.cfi_offset 1, -4
.LM39:
	call	memcpy
.LVL10:
.LM40:
.LM41:
	lw	ra,12(sp)
	.cfi_restore 1
	li	a0,0
	addi	sp,sp,16
	.cfi_def_cfa_offset 0
	jr	ra
	.cfi_endproc
.LFE11:
	.size	bl_wifi_ap_mac_addr_set, .-bl_wifi_ap_mac_addr_set
	.section	.text.bl_wifi_mac_addr_set,"ax",@progbits
	.align	1
	.globl	bl_wifi_mac_addr_set
	.type	bl_wifi_mac_addr_set, @function
bl_wifi_mac_addr_set:
.LVL11:
.LFB12:
.LM42:
	.cfi_startproc
.LM43:
.LM44:
	mv	a1,a0
.LM45:
	lui	a0,%hi(wifi_env+6)
.LVL12:
.LM46:
	addi	sp,sp,-16
	.cfi_def_cfa_offset 16
.LM47:
	li	a2,6
	addi	a0,a0,%lo(wifi_env+6)
.LM48:
	sw	ra,12(sp)
	.cfi_offset 1, -4
.LM49:
	call	memcpy
.LVL13:
.LM50:
.LM51:
	lw	ra,12(sp)
	.cfi_restore 1
	li	a0,0
	addi	sp,sp,16
	.cfi_def_cfa_offset 0
	jr	ra
	.cfi_endproc
.LFE12:
	.size	bl_wifi_mac_addr_set, .-bl_wifi_mac_addr_set
	.section	.text.bl_wifi_mac_addr_get,"ax",@progbits
	.align	1
	.globl	bl_wifi_mac_addr_get
	.type	bl_wifi_mac_addr_get, @function
bl_wifi_mac_addr_get:
.LVL14:
.LFB13:
.LM52:
	.cfi_startproc
.LM53:
	lui	a1,%hi(wifi_env)
.LM54:
	addi	sp,sp,-16
	.cfi_def_cfa_offset 16
.LM55:
	li	a2,6
	addi	a1,a1,%lo(wifi_env)
.LM56:
	sw	ra,12(sp)
	.cfi_offset 1, -4
.LM57:
	call	memcpy
.LVL15:
.LM58:
.LM59:
	lw	ra,12(sp)
	.cfi_restore 1
	li	a0,0
	addi	sp,sp,16
	.cfi_def_cfa_offset 0
	jr	ra
	.cfi_endproc
.LFE13:
	.size	bl_wifi_mac_addr_get, .-bl_wifi_mac_addr_get
	.section	.text.bl_wifi_country_code_set,"ax",@progbits
	.align	1
	.globl	bl_wifi_country_code_set
	.type	bl_wifi_country_code_set, @function
bl_wifi_country_code_set:
.LVL16:
.LFB14:
.LM60:
	.cfi_startproc
.LM61:
.LM62:
	lui	a5,%hi(wifi_env+24)
	sb	a0,%lo(wifi_env+24)(a5)
.LM63:
.LM64:
	li	a0,0
.LVL17:
.LM65:
	ret
	.cfi_endproc
.LFE14:
	.size	bl_wifi_country_code_set, .-bl_wifi_country_code_set
	.section	.text.bl_wifi_ap_info_set,"ax",@progbits
	.align	1
	.globl	bl_wifi_ap_info_set
	.type	bl_wifi_ap_info_set, @function
bl_wifi_ap_info_set:
.LVL18:
.LFB15:
.LM66:
	.cfi_startproc
.LM67:
.LM68:
	addi	sp,sp,-48
	.cfi_def_cfa_offset 48
	sw	s0,40(sp)
	.cfi_offset 8, -8
.LM69:
	lui	s0,%hi(wifi_env+25)
.LM70:
	sw	s1,36(sp)
	sw	s2,32(sp)
	sw	s3,28(sp)
	.cfi_offset 9, -12
	.cfi_offset 18, -16
	.cfi_offset 19, -20
	mv	s1,a0
	mv	s2,a1
	mv	s3,a2
.LM71:
	li	a1,0
.LVL19:
.LM72:
	li	a2,99
.LVL20:
.LM73:
	addi	a0,s0,%lo(wifi_env+25)
.LVL21:
.LM74:
	sw	ra,44(sp)
	.cfi_offset 1, -4
.LM75:
	sw	a4,8(sp)
	sw	a3,12(sp)
.LM76:
	call	memset
.LVL22:
.LM77:
	mv	a2,s2
	mv	a1,s1
	addi	a0,s0,%lo(wifi_env+25)
	call	memcpy
.LVL23:
.LM78:
	lw	a2,12(sp)
	lui	a0,%hi(wifi_env+58)
	mv	a1,s3
	addi	a0,a0,%lo(wifi_env+58)
	call	memcpy
.LVL24:
.LM79:
.LM80:
	lw	a4,8(sp)
	lui	a5,%hi(wifi_env)
	addi	a5,a5,%lo(wifi_env)
	sb	a4,123(a5)
.LM81:
.LM82:
	li	a4,1
	sb	a4,124(a5)
.LM83:
.LM84:
	lw	ra,44(sp)
	.cfi_restore 1
	lw	s0,40(sp)
	.cfi_restore 8
	lw	s1,36(sp)
	.cfi_restore 9
.LVL25:
.LM85:
	lw	s2,32(sp)
	.cfi_restore 18
.LVL26:
.LM86:
	lw	s3,28(sp)
	.cfi_restore 19
.LVL27:
.LM87:
	li	a0,0
	addi	sp,sp,48
	.cfi_def_cfa_offset 0
.LVL28:
.LM88:
	jr	ra
	.cfi_endproc
.LFE15:
	.size	bl_wifi_ap_info_set, .-bl_wifi_ap_info_set
	.section	.text.bl_wifi_ap_info_get,"ax",@progbits
	.align	1
	.globl	bl_wifi_ap_info_get
	.type	bl_wifi_ap_info_get, @function
bl_wifi_ap_info_get:
.LVL29:
.LFB16:
.LM89:
	.cfi_startproc
.LM90:
.LM91:
	lui	a5,%hi(wifi_env+124)
.LM92:
	lbu	a4,%lo(wifi_env+124)(a5)
	li	a5,1
	bne	a4,a5,.L18
.LM93:
	lui	a1,%hi(wifi_env+25)
.LM94:
	addi	sp,sp,-16
	.cfi_def_cfa_offset 16
.LM95:
	li	a2,99
	addi	a1,a1,%lo(wifi_env+25)
.LM96:
	sw	ra,12(sp)
	.cfi_offset 1, -4
.LM97:
	call	memcpy
.LVL30:
.LM98:
.LM99:
	lw	ra,12(sp)
	.cfi_restore 1
.LM100:
	li	a0,0
.LM101:
	addi	sp,sp,16
	.cfi_def_cfa_offset 0
	jr	ra
.LVL31:
.L18:
.LM102:
	li	a0,-1
.LVL32:
.LM103:
	ret
	.cfi_endproc
.LFE16:
	.size	bl_wifi_ap_info_get, .-bl_wifi_ap_info_get
	.section	.text.bl_wifi_sta_info_set,"ax",@progbits
	.align	1
	.globl	bl_wifi_sta_info_set
	.type	bl_wifi_sta_info_set, @function
bl_wifi_sta_info_set:
.LVL33:
.LFB17:
.LM104:
	.cfi_startproc
.LM105:
.LM106:
	addi	sp,sp,-48
	.cfi_def_cfa_offset 48
	sw	s0,40(sp)
	.cfi_offset 8, -8
.LM107:
	lui	s0,%hi(wifi_env+125)
.LM108:
	sw	s1,36(sp)
	sw	s2,32(sp)
	sw	s3,28(sp)
	.cfi_offset 9, -12
	.cfi_offset 18, -16
	.cfi_offset 19, -20
	mv	s1,a0
	mv	s2,a1
	mv	s3,a2
.LM109:
	li	a1,0
.LVL34:
.LM110:
	li	a2,99
.LVL35:
.LM111:
	addi	a0,s0,%lo(wifi_env+125)
.LVL36:
.LM112:
	sw	ra,44(sp)
	.cfi_offset 1, -4
.LM113:
	sw	a4,8(sp)
	sw	a3,12(sp)
.LM114:
	call	memset
.LVL37:
.LM115:
	mv	a2,s2
	mv	a1,s1
	addi	a0,s0,%lo(wifi_env+125)
	call	memcpy
.LVL38:
.LM116:
	lw	a2,12(sp)
	lui	a0,%hi(wifi_env+158)
	mv	a1,s3
	addi	a0,a0,%lo(wifi_env+158)
	call	memcpy
.LVL39:
.LM117:
.LM118:
	lw	a4,8(sp)
.LM119:
	lw	ra,44(sp)
	.cfi_restore 1
	lw	s0,40(sp)
	.cfi_restore 8
.LM120:
	lui	a5,%hi(wifi_env+224)
	sb	a4,%lo(wifi_env+224)(a5)
.LM121:
.LM122:
	lw	s1,36(sp)
	.cfi_restore 9
.LVL40:
.LM123:
	lw	s2,32(sp)
	.cfi_restore 18
.LVL41:
.LM124:
	lw	s3,28(sp)
	.cfi_restore 19
.LVL42:
.LM125:
	li	a0,0
	addi	sp,sp,48
	.cfi_def_cfa_offset 0
.LVL43:
.LM126:
	jr	ra
	.cfi_endproc
.LFE17:
	.size	bl_wifi_sta_info_set, .-bl_wifi_sta_info_set
	.section	.text.bl_wifi_sta_info_get,"ax",@progbits
	.align	1
	.globl	bl_wifi_sta_info_get
	.type	bl_wifi_sta_info_get, @function
bl_wifi_sta_info_get:
.LVL44:
.LFB18:
.LM127:
	.cfi_startproc
.LM128:
.LM129:
	lui	a5,%hi(wifi_env+224)
.LM130:
	lbu	a4,%lo(wifi_env+224)(a5)
	li	a5,1
	bne	a4,a5,.L27
.LM131:
	lui	a1,%hi(wifi_env+125)
.LM132:
	addi	sp,sp,-16
	.cfi_def_cfa_offset 16
.LM133:
	li	a2,99
	addi	a1,a1,%lo(wifi_env+125)
.LM134:
	sw	ra,12(sp)
	.cfi_offset 1, -4
.LM135:
	call	memcpy
.LVL45:
.LM136:
.LM137:
	lw	ra,12(sp)
	.cfi_restore 1
.LM138:
	li	a0,0
.LM139:
	addi	sp,sp,16
	.cfi_def_cfa_offset 0
	jr	ra
.LVL46:
.L27:
.LM140:
	li	a0,-1
.LVL47:
.LM141:
	ret
	.cfi_endproc
.LFE18:
	.size	bl_wifi_sta_info_get, .-bl_wifi_sta_info_get
	.section	.sbss.called.0,"aw",@nobits
	.align	2
	.type	called.0, @object
	.size	called.0, 4
called.0:
	.zero	4
	.globl	wifi_env
	.section	.bss.wifi_env,"aw",@nobits
	.align	2
	.type	wifi_env, @object
	.size	wifi_env, 225
wifi_env:
	.zero	225
	.text
.Letext0:
	.section	.note.GNU-stack,"",@progbits
