	.file	"hal_gpio.c"
	.option nopic
	.attribute arch, "rv32i2p1_m2p0_f2p2_c2p0_zicsr2p0_zmmul1p0_zca1p0_zcf1p0"
	.attribute unaligned_access, 0
	.attribute stack_align, 16
	.text
.Ltext0:
	.cfi_sections	.debug_frame
	.section	.rodata.hal_gpio_init_from_dts.str1.4,"aMS",@progbits,1
	.align	2
.LC0:
	.string	"max_num"
	.align	2
.LC1:
	.string	"gpio%u"
	.align	2
.LC2:
	.string	"status"
	.align	2
.LC3:
	.string	"okay"
	.align	2
.LC4:
	.string	"pin"
	.align	2
.LC5:
	.string	"feature"
	.align	2
.LC6:
	.string	"led"
	.align	2
.LC7:
	.string	"active"
	.align	2
.LC8:
	.string	"Hi"
	.align	2
.LC9:
	.string	"Lo"
	.align	2
.LC10:
	.string	"mode"
	.align	2
.LC11:
	.string	"blink"
	.align	2
.LC12:
	.string	"heartbeat"
	.align	2
.LC13:
	.string	"time"
	.section	.text.hal_gpio_init_from_dts,"ax",@progbits
	.align	1
	.globl	hal_gpio_init_from_dts
	.type	hal_gpio_init_from_dts, @function
hal_gpio_init_from_dts:
.LVL0:
.LFB44:
.LM1:
	.cfi_startproc
.LM2:
	addi	sp,sp,-96
	.cfi_def_cfa_offset 96
.LBB16:
.LBB17:
.LM3:
	lui	a2,%hi(.LC0)
	addi	a3,sp,36
	addi	a2,a2,%lo(.LC0)
.LBE17:
.LBE16:
.LM4:
	sw	s0,88(sp)
	sw	s2,80(sp)
	sw	s7,60(sp)
	sw	ra,92(sp)
	sw	s1,84(sp)
	sw	s3,76(sp)
	sw	s4,72(sp)
	sw	s5,68(sp)
	sw	s6,64(sp)
	.cfi_offset 8, -8
	.cfi_offset 18, -16
	.cfi_offset 23, -36
	.cfi_offset 1, -4
	.cfi_offset 9, -12
	.cfi_offset 19, -20
	.cfi_offset 20, -24
	.cfi_offset 21, -28
	.cfi_offset 22, -32
.LM5:
	mv	s2,a0
.LM6:
.LM7:
.LM8:
.LM9:
.LVL1:
.LBB22:
.LBI16:
.LM10:
.LBB20:
.LM11:
.LBE20:
.LBE22:
.LM12:
	mv	s7,a1
.LBB23:
.LBB21:
.LM13:
	sw	zero,36(sp)
.LM14:
.LVL2:
.LM15:
.LM16:
.LM17:
	call	fdt_getprop
.LVL3:
.LM18:
	li	s0,-1
.LM19:
	beq	a0,zero,.L2
.LM20:
.LM21:
	lw	a5,0(a0)
.LVL4:
.LBB18:
.LBI18:
.LM22:
.LBB19:
.LM23:
.LM24:
	srli	a4,a5,8
	andi	a4,a4,0xff
.LM25:
	slli	s0,a5,24
.LM26:
	slli	a4,a4,16
.LM27:
	or	s0,s0,a4
.LM28:
	srli	a4,a5,24
.LM29:
	srli	a5,a5,16
.LVL5:
.LM30:
	andi	a5,a5,0xff
.LM31:
	or	s0,s0,a4
.LM32:
	slli	a5,a5,8
.LM33:
	or	s0,s0,a5
.LVL6:
.LM34:
.LBE19:
.LBE18:
.LM35:
.L2:
.LM36:
.LBE21:
.LBE23:
.LM37:
.LM38:
.LM39:
.LM40:
.LM41:
.LM42:
	lui	a5,%hi(.LC1)
	addi	s4,a5,%lo(.LC1)
.LBB24:
.LBB25:
.LM43:
	lui	a5,%hi(.LC2)
	addi	s5,a5,%lo(.LC2)
.LM44:
	lui	a5,%hi(.LC3)
.LBE25:
.LBE24:
.LM45:
	li	s1,0
.LBB37:
.LBB32:
.LM46:
	addi	s6,a5,%lo(.LC3)
.LVL7:
.L3:
.LM47:
.LBE32:
.LBE37:
.LM48:
	blt	s1,s0,.L14
.L5:
.LM49:
.LM50:
	lw	ra,92(sp)
	.cfi_remember_state
	.cfi_restore 1
	lw	s0,88(sp)
	.cfi_restore 8
	lw	s1,84(sp)
	.cfi_restore 9
.LVL8:
.LM51:
	lw	s2,80(sp)
	.cfi_restore 18
.LVL9:
.LM52:
	lw	s3,76(sp)
	.cfi_restore 19
	lw	s4,72(sp)
	.cfi_restore 20
	lw	s5,68(sp)
	.cfi_restore 21
	lw	s6,64(sp)
	.cfi_restore 22
	lw	s7,60(sp)
	.cfi_restore 23
.LVL10:
.LM53:
	li	a0,0
	addi	sp,sp,96
	.cfi_def_cfa_offset 0
	jr	ra
.LVL11:
.L14:
	.cfi_restore_state
.LM54:
	mv	a3,s1
	mv	a2,s4
	li	a1,11
	addi	a0,sp,24
	call	snprintf
.LVL12:
.LM55:
.LBB38:
.LBB33:
.LM56:
	addi	a2,sp,24
	mv	a1,s7
	mv	a0,s2
.LBE33:
.LBE38:
.LM57:
	sb	zero,35(sp)
.LM58:
.LVL13:
.LBB39:
.LBI24:
.LM59:
.LBB34:
.LM60:
.LM61:
.LM62:
	sw	zero,20(sp)
.LM63:
.LVL14:
.LM64:
.LM65:
.LM66:
	call	fdt_subnode_offset
.LVL15:
.LM67:
	mv	s3,a0
.LVL16:
.LM68:
.LM69:
	blt	a0,zero,.L5
.LM70:
	li	a2,12
	li	a1,0
	addi	a0,sp,36
.LVL17:
.LM71:
	call	memset
.LVL18:
.LM72:
.LM73:
	mv	a2,s5
	mv	a1,s3
	addi	a4,sp,20
	li	a3,0
	mv	a0,s2
.LM74:
	sb	zero,40(sp)
.LM75:
.LM76:
	call	fdt_stringlist_get
.LVL19:
.LM77:
	lw	a2,20(sp)
	li	a5,4
.LM78:
	mv	a1,a0
.LVL20:
.LM79:
.LM80:
	beq	a2,a5,.L6
.LVL21:
.L9:
.LM81:
.LBE34:
.LBE39:
.LM82:
.LM83:
	lbu	a4,40(sp)
	li	a5,1
	bne	a4,a5,.L8
.L7:
.LM84:
.LM85:
.LVL22:
.LBB40:
.LBI40:
.LM86:
.LBB41:
.LM87:
	lw	a1,44(sp)
	lw	a0,36(sp)
	call	loopset_led_trigger
.LVL23:
.L8:
.LM88:
.LBE41:
.LBE40:
.LM89:
.LM90:
	addi	s1,s1,1
.LVL24:
.LM91:
	j	.L3
.LVL25:
.L6:
.LBB42:
.LBB35:
.LM92:
	mv	a0,s6
.LVL26:
.LM93:
	call	memcmp
.LVL27:
.LM94:
	bne	a0,zero,.L9
.LM95:
.LM96:
	lui	a2,%hi(.LC4)
	addi	a3,sp,20
	addi	a2,a2,%lo(.LC4)
	mv	a1,s3
	mv	a0,s2
	call	fdt_getprop
.LVL28:
.LM97:
.LM98:
	beq	a0,zero,.L9
.LM99:
.LM100:
	lw	a5,0(a0)
.LVL29:
.LBB26:
.LBI26:
.LM101:
.LBB27:
.LM102:
.LM103:
.LBE27:
.LBE26:
.LM104:
	lui	a2,%hi(.LC5)
	addi	a2,a2,%lo(.LC5)
.LBB29:
.LBB28:
.LM105:
	srli	a3,a5,8
	andi	a3,a3,0xff
.LM106:
	slli	a4,a5,24
.LM107:
	slli	a3,a3,16
.LM108:
	or	a4,a4,a3
.LM109:
	srli	a3,a5,24
.LM110:
	srli	a5,a5,16
	andi	a5,a5,0xff
.LM111:
	or	a4,a4,a3
.LM112:
	slli	a5,a5,8
.LM113:
	or	a5,a4,a5
.LBE28:
.LBE29:
.LM114:
	mv	a1,s3
	addi	a4,sp,20
	li	a3,0
	mv	a0,s2
.LVL30:
.LM115:
	sw	a5,36(sp)
.LM116:
.LM117:
	call	fdt_stringlist_get
.LVL31:
.LM118:
	lw	a2,20(sp)
	li	a5,3
.LM119:
	mv	a1,a0
.LVL32:
.LM120:
.LM121:
	bne	a2,a5,.L9
.LM122:
	lui	a0,%hi(.LC6)
.LVL33:
.LM123:
	addi	a0,a0,%lo(.LC6)
	call	memcmp
.LVL34:
.LM124:
	bne	a0,zero,.L9
.LM125:
.LM126:
	lui	a2,%hi(.LC7)
	addi	a2,a2,%lo(.LC7)
	mv	a1,s3
	addi	a4,sp,20
	li	a3,0
	mv	a0,s2
.LM127:
	sb	zero,41(sp)
.LM128:
.LM129:
	call	fdt_stringlist_get
.LVL35:
.LM130:
	lw	a2,20(sp)
	li	a5,2
.LM131:
	mv	a1,a0
.LVL36:
.LM132:
.LM133:
	bne	a2,a5,.L9
.LM134:
	sw	a0,8(sp)
	lui	a0,%hi(.LC8)
.LVL37:
.LM135:
	addi	a0,a0,%lo(.LC8)
	sw	a2,12(sp)
	call	memcmp
.LVL38:
.LM136:
	beq	a0,zero,.L16
.LM137:
.LM138:
	lw	a5,20(sp)
	lw	a2,12(sp)
	bne	a5,a2,.L9
.LM139:
	lw	a1,8(sp)
	lui	a0,%hi(.LC9)
	li	a2,2
	addi	a0,a0,%lo(.LC9)
	call	memcmp
.LVL39:
	li	a5,0
.LM140:
	bne	a0,zero,.L9
.L11:
.LM141:
	lui	a2,%hi(.LC10)
	addi	a2,a2,%lo(.LC10)
	mv	a1,s3
	addi	a4,sp,20
	li	a3,0
	mv	a0,s2
.LM142:
	sb	a5,42(sp)
.LM143:
.LM144:
	call	fdt_stringlist_get
.LVL40:
.LM145:
	lw	a2,20(sp)
	li	a5,5
.LM146:
	mv	a1,a0
.LVL41:
.LM147:
.LM148:
	bne	a2,a5,.L12
.LM149:
	sw	a0,8(sp)
	lui	a0,%hi(.LC11)
.LVL42:
.LM150:
	addi	a0,a0,%lo(.LC11)
	call	memcmp
.LVL43:
.LM151:
	lw	a1,8(sp)
	beq	a0,zero,.L17
.LVL44:
.L12:
.LM152:
.LM153:
	lw	a2,20(sp)
	li	a5,9
	bne	a2,a5,.L9
.LM154:
	lui	a0,%hi(.LC12)
	addi	a0,a0,%lo(.LC12)
	call	memcmp
.LVL45:
	li	a5,1
.LM155:
	bne	a0,zero,.L9
.L13:
.LM156:
	lui	a2,%hi(.LC13)
	addi	a3,sp,20
	addi	a2,a2,%lo(.LC13)
	mv	a1,s3
	mv	a0,s2
.LM157:
	sb	a5,43(sp)
.LM158:
.LM159:
	call	fdt_getprop
.LVL46:
.LM160:
.LM161:
	beq	a0,zero,.L9
.LM162:
.LM163:
	lw	a5,0(a0)
.LVL47:
.LBB30:
.LBI30:
.LM164:
.LBB31:
.LM165:
.LM166:
	srli	a3,a5,8
	andi	a3,a3,0xff
.LM167:
	slli	a4,a5,24
.LM168:
	slli	a3,a3,16
.LM169:
	or	a4,a4,a3
.LM170:
	srli	a3,a5,24
.LM171:
	srli	a5,a5,16
	andi	a5,a5,0xff
.LM172:
	or	a4,a4,a3
.LM173:
	slli	a5,a5,8
.LM174:
	or	a5,a4,a5
.LBE31:
.LBE30:
.LM175:
	sw	a5,44(sp)
.LM176:
.LM177:
	li	a5,1
	sb	a5,40(sp)
.LM178:
.LVL48:
.LM179:
.LBE35:
.LBE42:
.LM180:
	j	.L7
.LVL49:
.L16:
.LBB43:
.LBB36:
.LM181:
	li	a5,1
	j	.L11
.L17:
.LM182:
	li	a5,0
	j	.L13
.LBE36:
.LBE43:
	.cfi_endproc
.LFE44:
	.size	hal_gpio_init_from_dts, .-hal_gpio_init_from_dts
	.section	.rodata.hal_gpio_register_handler.str1.4,"aMS",@progbits,1
	.align	2
.LC14:
	.string	"register paraments is not correct! \r\n"
	.align	2
.LC15:
	.string	"Malloc failed \r\n"
	.section	.text.hal_gpio_register_handler,"ax",@progbits
	.align	1
	.globl	hal_gpio_register_handler
	.type	hal_gpio_register_handler, @function
hal_gpio_register_handler:
.LVL50:
.LFB45:
.LM183:
	.cfi_startproc
.LM184:
.LM185:
	addi	sp,sp,-32
	.cfi_def_cfa_offset 32
	sw	s0,24(sp)
.LM186:
	slti	a5,a3,4
	.cfi_offset 8, -8
.LM187:
	mv	s0,a0
.LM188:
	slti	a0,a2,2
.LVL51:
.LM189:
	seqz	a5,a5
.LM190:
	seqz	a0,a0
.LM191:
	or	a0,a0,a5
.LM192:
	slti	a5,a1,32
	seqz	a5,a5
.LM193:
	sw	ra,28(sp)
	.cfi_offset 1, -4
.LM194:
	or	a5,a5,a0
	bne	a5,zero,.L34
	bne	s0,zero,.L27
.L34:
.LM195:
	lui	a0,%hi(.LC14)
	addi	a0,a0,%lo(.LC14)
.LVL52:
.L36:
.LM196:
	call	printf
.LVL53:
.LM197:
.LM198:
	li	a0,-1
.L26:
.LM199:
	lw	ra,28(sp)
	.cfi_remember_state
	.cfi_restore 1
	lw	s0,24(sp)
	.cfi_restore 8
.LVL54:
.LM200:
	addi	sp,sp,32
	.cfi_def_cfa_offset 0
	jr	ra
.LVL55:
.L27:
	.cfi_restore_state
.LM201:
	li	a0,16
	sw	a4,12(sp)
	sw	a3,8(sp)
	sw	a2,4(sp)
	sw	a1,0(sp)
.LM202:
.LM203:
.LM204:
	call	pvPortMalloc
.LVL56:
.LM205:
.LM206:
	lw	a1,0(sp)
	lw	a2,4(sp)
	lw	a3,8(sp)
	lw	a4,12(sp)
	bne	a0,zero,.L30
.LM207:
	lui	a0,%hi(.LC15)
.LVL57:
.LM208:
	addi	a0,a0,%lo(.LC15)
	j	.L36
.LVL58:
.L30:
.LM209:
.LM210:
	lui	a5,%hi(pstgpio_head)
.LM211:
	sw	a4,8(a0)
.LM212:
	lw	a4,%lo(pstgpio_head)(a5)
.LM213:
	sb	a1,12(a0)
.LM214:
.LM215:
	sb	a2,13(a0)
.LM216:
.LM217:
	sb	a3,14(a0)
.LM218:
.LM219:
	sw	s0,4(a0)
.LM220:
.LM221:
.LM222:
	bne	a4,zero,.L32
.LM223:
.LM224:
	sw	a0,%lo(pstgpio_head)(a5)
.LM225:
.LM226:
	sw	zero,0(a0)
.L33:
.LM227:
	call	bl_gpio_register
.LVL59:
.LM228:
.LM229:
	li	a0,0
	j	.L26
.LVL60:
.L32:
.LM230:
.LM231:
	sw	a4,0(a0)
.LM232:
.LM233:
	sw	a0,%lo(pstgpio_head)(a5)
	j	.L33
	.cfi_endproc
.LFE45:
	.size	hal_gpio_register_handler, .-hal_gpio_register_handler
	.section	.sbss.pstgpio_head,"aw",@nobits
	.align	2
	.type	pstgpio_head, @object
	.size	pstgpio_head, 4
pstgpio_head:
	.zero	4
	.text
.Letext0:
	.section	.note.GNU-stack,"",@progbits
