	.file	"hal_hwtimer.c"
	.option nopic
	.attribute arch, "rv32i2p1_m2p0_f2p2_c2p0_zicsr2p0_zmmul1p0_zca1p0_zcf1p0"
	.attribute unaligned_access, 0
	.attribute stack_align, 16
	.text
.Ltext0:
	.cfi_sections	.debug_frame
	.section	.text.hal_hwtimer_init,"ax",@progbits
	.align	1
	.globl	hal_hwtimer_init
	.type	hal_hwtimer_init, @function
hal_hwtimer_init:
.LFB27:
.LM1:
	.cfi_startproc
.LM2:
.LM3:
	li	a0,0
	ret
	.cfi_endproc
.LFE27:
	.size	hal_hwtimer_init, .-hal_hwtimer_init
	.section	.rodata.hal_hwtimer_create.str1.4,"aMS",@progbits,1
	.align	2
.LC0:
	.string	"hw_timer"
	.section	.text.hal_hwtimer_create,"ax",@progbits
	.align	1
	.globl	hal_hwtimer_create
	.type	hal_hwtimer_create, @function
hal_hwtimer_create:
.LVL0:
.LFB28:
.LM4:
	.cfi_startproc
.LM5:
.LM6:
.LM7:
	mv	a4,a1
.LM8:
	li	a1,1000
.LVL1:
.LM9:
	mul	a0,a0,a1
.LVL2:
.LM10:
	addi	sp,sp,-32
	.cfi_def_cfa_offset 32
.LM11:
	addi	a3,sp,12
	li	a2,1
.LVL3:
.LM12:
	sw	ra,28(sp)
	sw	s0,24(sp)
	.cfi_offset 1, -4
	.cfi_offset 8, -8
.LM13:
	divu	a1,a0,a1
	lui	a0,%hi(.LC0)
	addi	a0,a0,%lo(.LC0)
	call	xTimerCreate
.LVL4:
.LM14:
	sw	a0,12(sp)
.LM15:
.LM16:
	beq	a0,zero,.L3
	mv	s0,a0
.LM17:
.LM18:
	call	xTaskGetTickCount
.LVL5:
	mv	a2,a0
.LM19:
	li	a4,-1
	li	a3,0
	li	a1,1
	mv	a0,s0
	call	xTimerGenericCommand
.LVL6:
.L3:
.LM20:
.LM21:
	lw	ra,28(sp)
	.cfi_restore 1
	lw	s0,24(sp)
	.cfi_restore 8
	lw	a0,12(sp)
	addi	sp,sp,32
	.cfi_def_cfa_offset 0
	jr	ra
	.cfi_endproc
.LFE28:
	.size	hal_hwtimer_create, .-hal_hwtimer_create
	.section	.text.hal_hwtimer_delete,"ax",@progbits
	.align	1
	.globl	hal_hwtimer_delete
	.type	hal_hwtimer_delete, @function
hal_hwtimer_delete:
.LVL7:
.LFB29:
.LM22:
	.cfi_startproc
.LM23:
.LM24:
	addi	sp,sp,-16
	.cfi_def_cfa_offset 16
.LM25:
	li	a4,-1
	li	a3,0
	li	a2,0
	li	a1,5
.LM26:
	sw	ra,12(sp)
	.cfi_offset 1, -4
.LM27:
	call	xTimerGenericCommand
.LVL8:
.LM28:
	lw	ra,12(sp)
	.cfi_restore 1
.LM29:
	seqz	a0,a0
.LM30:
	neg	a0,a0
	addi	sp,sp,16
	.cfi_def_cfa_offset 0
	jr	ra
	.cfi_endproc
.LFE29:
	.size	hal_hwtimer_delete, .-hal_hwtimer_delete
	.section	.text.hal_hwtimer_change_period,"ax",@progbits
	.align	1
	.globl	hal_hwtimer_change_period
	.type	hal_hwtimer_change_period, @function
hal_hwtimer_change_period:
.LVL9:
.LFB30:
.LM31:
	.cfi_startproc
.LM32:
.LM33:
	li	a2,1000
	mul	a1,a1,a2
.LVL10:
.LM34:
	addi	sp,sp,-16
	.cfi_def_cfa_offset 16
.LM35:
	li	a4,-1
	li	a3,0
.LM36:
	sw	ra,12(sp)
	.cfi_offset 1, -4
.LM37:
	divu	a2,a1,a2
	li	a1,4
	call	xTimerGenericCommand
.LVL11:
.LM38:
	lw	ra,12(sp)
	.cfi_restore 1
.LM39:
	seqz	a0,a0
.LM40:
	neg	a0,a0
	addi	sp,sp,16
	.cfi_def_cfa_offset 0
	jr	ra
	.cfi_endproc
.LFE30:
	.size	hal_hwtimer_change_period, .-hal_hwtimer_change_period
	.text
.Letext0:
	.section	.note.GNU-stack,"",@progbits
