	.file	"hal_uart.c"
	.option nopic
	.attribute arch, "rv32i2p1_m2p0_f2p2_c2p0_zicsr2p0_zmmul1p0_zca1p0_zcf1p0"
	.attribute unaligned_access, 0
	.attribute stack_align, 16
	.text
.Ltext0:
	.cfi_sections	.debug_frame
	.section	.text.fdt32_to_cpu,"ax",@progbits
	.align	1
	.type	fdt32_to_cpu, @function
fdt32_to_cpu:
.LVL0:
.LFB10:
.LM1:
	.cfi_startproc
.LM2:
.LM3:
	srli	a4,a0,8
	andi	a4,a4,0xff
.LM4:
	slli	a5,a0,24
.LM5:
	slli	a4,a4,16
.LM6:
	or	a5,a5,a4
.LM7:
	srli	a4,a0,24
.LM8:
	srli	a0,a0,16
.LVL1:
.LM9:
	andi	a0,a0,0xff
.LM10:
	or	a5,a5,a4
.LM11:
	slli	a0,a0,8
.LM12:
	or	a0,a5,a0
	ret
	.cfi_endproc
.LFE10:
	.size	fdt32_to_cpu, .-fdt32_to_cpu
	.section	.text.dev_uart_init.isra.0,"ax",@progbits
	.align	1
	.type	dev_uart_init.isra.0, @function
dev_uart_init.isra.0:
.LVL2:
.LFB61:
.LM13:
	.cfi_startproc
.LM14:
.LM15:
.LM16:
.LM17:
	sltiu	a5,a0,3
.LM18:
	beq	a5,zero,.L21
	beq	a1,zero,.L21
.LM19:
.LM20:
	addi	sp,sp,-32
	.cfi_def_cfa_offset 32
	sw	ra,28(sp)
	sw	s0,24(sp)
	sw	s1,20(sp)
	sw	s2,16(sp)
	sw	s3,12(sp)
	sw	s4,8(sp)
	sw	s5,4(sp)
	sw	s6,0(sp)
	.cfi_offset 1, -4
	.cfi_offset 8, -8
	.cfi_offset 9, -12
	.cfi_offset 18, -16
	.cfi_offset 19, -20
	.cfi_offset 20, -24
	.cfi_offset 21, -28
	.cfi_offset 22, -32
.LM21:
	beq	a0,zero,.L6
	li	a5,1
	beq	a0,a5,.L7
.LVL3:
.L2:
.LM22:
	lw	ra,28(sp)
	.cfi_remember_state
	.cfi_restore 1
	lw	s0,24(sp)
	.cfi_restore 8
	lw	s1,20(sp)
	.cfi_restore 9
	lw	s2,16(sp)
	.cfi_restore 18
	lw	s3,12(sp)
	.cfi_restore 19
	lw	s4,8(sp)
	.cfi_restore 20
	lw	s5,4(sp)
	.cfi_restore 21
	lw	s6,0(sp)
	.cfi_restore 22
	addi	sp,sp,32
	.cfi_def_cfa_offset 0
	jr	ra
.LVL4:
.L6:
	.cfi_restore_state
.LM23:
	lui	s0,%hi(dev_uart0)
	lw	a5,%lo(dev_uart0)(s0)
	addi	s0,s0,%lo(dev_uart0)
.LVL5:
.L8:
.LM24:
.LM25:
.LBB6:
.LBI6:
.LM26:
.LBB7:
.LM27:
.LM28:
	bne	a5,zero,.L2
	mv	s1,a0
.LM29:
.LM30:
	li	a0,60
.LVL6:
.LM31:
	mv	s4,a3
	mv	s3,a2
	mv	s6,a1
	call	pvPortMalloc
.LVL7:
.LM32:
	sw	a0,0(s0)
.LM33:
.LM34:
	beq	a0,zero,.L2
.LM35:
	li	a2,60
	li	a1,0
	call	memset
.LVL8:
.LM36:
.LM37:
	lw	a5,0(s0)
.LM38:
	li	s2,2
.LM39:
	li	a0,4
.LM40:
	sb	s2,52(a5)
.LM41:
.LM42:
	lw	a5,0(s0)
.LM43:
	sw	zero,56(a5)
.LM44:
.LM45:
	lw	s5,0(s0)
.LM46:
	call	pvPortMalloc
.LVL9:
.LM47:
	sw	a0,56(s5)
.LM48:
.LM49:
	lw	a5,0(s0)
	lw	a0,56(a5)
.LM50:
	beq	a0,zero,.L2
.LM51:
	li	a2,4
	li	a1,0
	call	memset
.LVL10:
.LM52:
.LM53:
.LBE7:
.LBE6:
.LM54:
.LM55:
	lw	a5,0(s0)
.LM56:
	sw	s3,24(a5)
.LM57:
.LM58:
	lw	a5,0(s0)
.LM59:
	sw	s4,28(a5)
.LM60:
.LVL11:
.LBB8:
.LBI8:
.LM61:
.LBB9:
.LM62:
.LM63:
	lw	a5,0(s0)
.LM64:
	beq	a5,zero,.L10
.LM65:
.LM66:
	sb	s1,0(a5)
.LM67:
.LM68:
	lw	a5,0(s0)
.LM69:
	sb	s2,52(a5)
.LM70:
.LM71:
	lw	a4,0(s0)
.LM72:
	li	a5,114688
	addi	a5,a5,512
	sw	a5,4(a4)
.LM73:
.LM74:
	lw	a5,0(s0)
.LM75:
	li	a4,3
	sb	a4,8(a5)
.LM76:
.LM77:
	lw	a5,0(s0)
.LM78:
	sb	zero,9(a5)
.LM79:
.LM80:
	lw	a5,0(s0)
.LM81:
	sb	zero,10(a5)
.LM82:
.LM83:
	lw	a5,0(s0)
.LM84:
	sb	zero,11(a5)
.LM85:
.LM86:
	lw	a5,0(s0)
.LM87:
	sb	s2,12(a5)
.L10:
.LVL12:
.LM88:
.LBE9:
.LBE8:
.LM89:
.LM90:
	lw	a2,0(s0)
.LM91:
	lw	s0,24(sp)
	.cfi_remember_state
	.cfi_restore 8
.LVL13:
.LM92:
	lw	ra,28(sp)
	.cfi_restore 1
	lw	s1,20(sp)
	.cfi_restore 9
	lw	s2,16(sp)
	.cfi_restore 18
	lw	s3,12(sp)
	.cfi_restore 19
.LVL14:
.LM93:
	lw	s4,8(sp)
	.cfi_restore 20
.LVL15:
.LM94:
	lw	s5,4(sp)
	.cfi_restore 21
.LM95:
	mv	a0,s6
.LM96:
	lw	s6,0(sp)
	.cfi_restore 22
.LVL16:
.LM97:
	lui	a1,%hi(uart_ops)
.LM98:
.LM99:
	addi	a1,a1,%lo(uart_ops)
.LM100:
	addi	sp,sp,32
	.cfi_def_cfa_offset 0
.LM101:
	tail	aos_register_driver
.LVL17:
.L7:
	.cfi_restore_state
.LM102:
.LM103:
.LM104:
	lui	s0,%hi(dev_uart1)
	lw	a5,%lo(dev_uart1)(s0)
	addi	s0,s0,%lo(dev_uart1)
.LM105:
	j	.L8
.LVL18:
.L21:
	.cfi_def_cfa_offset 0
	.cfi_restore 1
	.cfi_restore 8
	.cfi_restore 9
	.cfi_restore 18
	.cfi_restore 19
	.cfi_restore 20
	.cfi_restore 21
	.cfi_restore 22
.LM106:
	ret
	.cfi_endproc
.LFE61:
	.size	dev_uart_init.isra.0, .-dev_uart_init.isra.0
	.section	.text.hal_uart_send_trigger,"ax",@progbits
	.align	1
	.globl	hal_uart_send_trigger
	.type	hal_uart_send_trigger, @function
hal_uart_send_trigger:
.LVL19:
.LFB47:
.LM107:
	.cfi_startproc
.LM108:
.LM109:
	addi	sp,sp,-16
	.cfi_def_cfa_offset 16
	sw	ra,12(sp)
	.cfi_offset 1, -4
.LM110:
	lbu	a0,0(a0)
.LVL20:
.LM111:
	call	bl_uart_int_tx_enable
.LVL21:
.LM112:
.LM113:
	lw	ra,12(sp)
	.cfi_restore 1
	li	a0,0
	addi	sp,sp,16
	.cfi_def_cfa_offset 0
	jr	ra
	.cfi_endproc
.LFE47:
	.size	hal_uart_send_trigger, .-hal_uart_send_trigger
	.section	.text.hal_uart_send_trigger_off,"ax",@progbits
	.align	1
	.globl	hal_uart_send_trigger_off
	.type	hal_uart_send_trigger_off, @function
hal_uart_send_trigger_off:
.LVL22:
.LFB48:
.LM114:
	.cfi_startproc
.LM115:
.LM116:
	addi	sp,sp,-16
	.cfi_def_cfa_offset 16
	sw	ra,12(sp)
	.cfi_offset 1, -4
.LM117:
	lbu	a0,0(a0)
.LVL23:
.LM118:
	call	bl_uart_int_tx_disable
.LVL24:
.LM119:
.LM120:
	lw	ra,12(sp)
	.cfi_restore 1
	li	a0,0
	addi	sp,sp,16
	.cfi_def_cfa_offset 0
	jr	ra
	.cfi_endproc
.LFE48:
	.size	hal_uart_send_trigger_off, .-hal_uart_send_trigger_off
	.section	.text.hal_uart_init,"ax",@progbits
	.align	1
	.globl	hal_uart_init
	.type	hal_uart_init, @function
hal_uart_init:
.LVL25:
.LFB49:
.LM121:
	.cfi_startproc
.LM122:
.LM123:
.LM124:
.LM125:
.LM126:
	addi	sp,sp,-32
	.cfi_def_cfa_offset 32
	sw	s0,24(sp)
.LVL26:
.LM127:
	sw	s1,20(sp)
	sw	ra,28(sp)
	.cfi_offset 8, -8
	.cfi_offset 9, -12
	.cfi_offset 1, -4
.LM128:
	mv	s1,a0
.LM129:
	lw	a0,56(a0)
.LVL27:
.LM130:
	li	s0,-1
.LM131:
	call	aos_mutex_new
.LVL28:
.LM132:
	bne	a0,zero,.L28
	mv	s0,a0
.LM133:
	lbu	a0,0(s1)
	addi	a1,sp,15
	call	bl_uart_getdefconfig
.LVL29:
.LM134:
.LM135:
	lbu	a5,15(sp)
.LM136:
	beq	a5,zero,.L30
.LM137:
.LM138:
	li	a4,1
	beq	a5,a4,.L30
	li	a5,2
.L30:
.LM139:
	lbu	a0,0(s1)
.LM140:
	sb	a5,9(s1)
.LM141:
	call	bl_uart_int_enable
.LVL30:
.LM142:
.L28:
.LM143:
	lw	ra,28(sp)
	.cfi_restore 1
	mv	a0,s0
	lw	s0,24(sp)
	.cfi_restore 8
	lw	s1,20(sp)
	.cfi_restore 9
.LVL31:
.LM144:
	addi	sp,sp,32
	.cfi_def_cfa_offset 0
	jr	ra
	.cfi_endproc
.LFE49:
	.size	hal_uart_init, .-hal_uart_init
	.section	.text.hal_uart_recv_II,"ax",@progbits
	.align	1
	.globl	hal_uart_recv_II
	.type	hal_uart_recv_II, @function
hal_uart_recv_II:
.LVL32:
.LFB50:
.LM145:
	.cfi_startproc
.LM146:
.LM147:
.LM148:
.LM149:
	addi	sp,sp,-32
	.cfi_def_cfa_offset 32
	sw	s0,24(sp)
	sw	s1,20(sp)
	sw	ra,28(sp)
	.cfi_offset 8, -8
	.cfi_offset 9, -12
	.cfi_offset 1, -4
.LM150:
	mv	s1,a0
.LM151:
	li	s0,0
.LVL33:
.L37:
.LM152:
	beq	s0,a2,.L40
.LM153:
	lbu	a0,0(s1)
	sw	a3,12(sp)
	sw	a2,8(sp)
	sw	a1,4(sp)
	call	bl_uart_data_recv
.LVL34:
.LM154:
	lw	a1,4(sp)
	lw	a2,8(sp)
	lw	a3,12(sp)
	bge	a0,zero,.L39
.LVL35:
.L40:
.LM155:
.LM156:
	sw	s0,0(a3)
.LM157:
.LM158:
	lw	ra,28(sp)
	.cfi_remember_state
	.cfi_restore 1
	lw	s0,24(sp)
	.cfi_restore 8
.LVL36:
.LM159:
	lw	s1,20(sp)
	.cfi_restore 9
.LVL37:
.LM160:
	li	a0,0
	addi	sp,sp,32
	.cfi_def_cfa_offset 0
	jr	ra
.LVL38:
.L39:
	.cfi_restore_state
.LM161:
.LM162:
	add	a5,a1,s0
	sb	a0,0(a5)
.LM163:
.LM164:
	addi	s0,s0,1
.LVL39:
.LM165:
	j	.L37
	.cfi_endproc
.LFE50:
	.size	hal_uart_recv_II, .-hal_uart_recv_II
	.section	.text.hal_uart_send,"ax",@progbits
	.align	1
	.globl	hal_uart_send
	.type	hal_uart_send, @function
hal_uart_send:
.LVL40:
.LFB51:
.LM166:
	.cfi_startproc
.LM167:
	addi	sp,sp,-16
	.cfi_def_cfa_offset 16
	sw	s0,8(sp)
	sw	s1,4(sp)
	sw	s2,0(sp)
	sw	ra,12(sp)
	.cfi_offset 8, -8
	.cfi_offset 9, -12
	.cfi_offset 18, -16
	.cfi_offset 1, -4
.LM168:
	mv	s2,a0
.LM169:
.LVL41:
.LM170:
	mv	s0,a1
	add	s1,a1,a2
.LVL42:
.L44:
.LM171:
	bne	s0,s1,.L45
.LM172:
.LM173:
	lw	ra,12(sp)
	.cfi_remember_state
	.cfi_restore 1
	lw	s0,8(sp)
	.cfi_restore 8
.LVL43:
.LM174:
	lw	s1,4(sp)
	.cfi_restore 9
	lw	s2,0(sp)
	.cfi_restore 18
.LVL44:
.LM175:
	li	a0,0
	addi	sp,sp,16
	.cfi_def_cfa_offset 0
	jr	ra
.LVL45:
.L45:
	.cfi_restore_state
.LM176:
	lbu	a1,0(s0)
	lbu	a0,0(s2)
	addi	s0,s0,1
.LVL46:
.LM177:
	call	bl_uart_data_send
.LVL47:
.LM178:
.LM179:
	j	.L44
	.cfi_endproc
.LFE51:
	.size	hal_uart_send, .-hal_uart_send
	.section	.text.hal_uart_finalize,"ax",@progbits
	.align	1
	.globl	hal_uart_finalize
	.type	hal_uart_finalize, @function
hal_uart_finalize:
.LVL48:
.LFB52:
.LM180:
	.cfi_startproc
.LM181:
.LM182:
.LM183:
	addi	sp,sp,-16
	.cfi_def_cfa_offset 16
	sw	ra,12(sp)
	sw	s0,8(sp)
	.cfi_offset 1, -4
	.cfi_offset 8, -8
.LM184:
	lw	a5,56(a0)
.LM185:
	lbu	a0,0(a0)
.LVL49:
.LM186:
	mv	s0,a5
.LVL50:
.LM187:
	call	bl_uart_int_disable
.LVL51:
.LM188:
	mv	a0,s0
	call	aos_mutex_free
.LVL52:
.LM189:
.LM190:
	lw	ra,12(sp)
	.cfi_restore 1
	lw	s0,8(sp)
	.cfi_restore 8
.LVL53:
.LM191:
	li	a0,0
	addi	sp,sp,16
	.cfi_def_cfa_offset 0
	jr	ra
	.cfi_endproc
.LFE52:
	.size	hal_uart_finalize, .-hal_uart_finalize
	.section	.text.hal_uart_notify_register,"ax",@progbits
	.align	1
	.globl	hal_uart_notify_register
	.type	hal_uart_notify_register, @function
hal_uart_notify_register:
.LVL54:
.LFB53:
.LM192:
	.cfi_startproc
.LM193:
.LM194:
	addi	sp,sp,-16
	.cfi_def_cfa_offset 16
	mv	a4,a1
	sw	ra,12(sp)
	.cfi_offset 1, -4
.LM195:
	mv	a5,a0
	mv	a1,a2
.LVL55:
.LM196:
	bne	a4,zero,.L50
.LM197:
	mv	a2,a0
.LVL56:
.LM198:
	lbu	a0,0(a0)
.LVL57:
.LM199:
	call	bl_uart_int_tx_notify_register
.LVL58:
.L52:
.LM200:
	li	a0,0
.L49:
.LM201:
	lw	ra,12(sp)
	.cfi_remember_state
	.cfi_restore 1
	addi	sp,sp,16
	.cfi_def_cfa_offset 0
	jr	ra
.LVL59:
.L50:
	.cfi_restore_state
.LM202:
.LM203:
	li	a3,1
.LM204:
	li	a0,-1
.LVL60:
.LM205:
	bne	a4,a3,.L49
.LM206:
	lbu	a0,0(a5)
	mv	a2,a5
	call	bl_uart_int_rx_notify_register
.LVL61:
.LM207:
	j	.L52
	.cfi_endproc
.LFE53:
	.size	hal_uart_notify_register, .-hal_uart_notify_register
	.section	.text.hal_uart_notify_unregister,"ax",@progbits
	.align	1
	.globl	hal_uart_notify_unregister
	.type	hal_uart_notify_unregister, @function
hal_uart_notify_unregister:
.LVL62:
.LFB54:
.LM208:
	.cfi_startproc
.LM209:
.LM210:
	addi	sp,sp,-16
	.cfi_def_cfa_offset 16
	mv	a4,a1
	sw	ra,12(sp)
	.cfi_offset 1, -4
.LM211:
	mv	a5,a0
	mv	a1,a2
.LVL63:
.LM212:
	bne	a4,zero,.L56
.LM213:
	mv	a2,a0
.LVL64:
.LM214:
	lbu	a0,0(a0)
.LVL65:
.LM215:
	call	bl_uart_int_tx_notify_unregister
.LVL66:
.L58:
.LM216:
	li	a0,0
.L55:
.LM217:
	lw	ra,12(sp)
	.cfi_remember_state
	.cfi_restore 1
	addi	sp,sp,16
	.cfi_def_cfa_offset 0
	jr	ra
.LVL67:
.L56:
	.cfi_restore_state
.LM218:
.LM219:
	li	a3,1
.LM220:
	li	a0,-1
.LVL68:
.LM221:
	bne	a4,a3,.L55
.LM222:
	lbu	a0,0(a5)
	mv	a2,a5
	call	bl_uart_int_rx_notify_unregister
.LVL69:
.LM223:
	j	.L58
	.cfi_endproc
.LFE54:
	.size	hal_uart_notify_unregister, .-hal_uart_notify_unregister
	.section	.text.vfs_uart_init_simple_mode,"ax",@progbits
	.align	1
	.globl	vfs_uart_init_simple_mode
	.type	vfs_uart_init_simple_mode, @function
vfs_uart_init_simple_mode:
.LVL70:
.LFB56:
.LM224:
	.cfi_startproc
.LM225:
.LM226:
	addi	sp,sp,-32
	.cfi_def_cfa_offset 32
	sw	ra,28(sp)
	sw	s0,24(sp)
	sw	s1,20(sp)
	.cfi_offset 1, -4
	.cfi_offset 8, -8
	.cfi_offset 9, -12
.LM227:
	mv	s0,a0
	mv	s1,a4
	sw	a1,12(sp)
	sw	a2,8(sp)
	sw	a3,4(sp)
.LM228:
	call	bl_uart_flush
.LVL71:
.LM229:
	lw	a5,4(sp)
	lw	a2,8(sp)
	lw	a1,12(sp)
	li	a4,255
	mv	a3,a4
	mv	a0,s0
	call	bl_uart_init
.LVL72:
.LM230:
.LM231:
	li	a3,128
	mv	a0,s0
	mv	a1,s1
	mv	a2,a3
	call	dev_uart_init.isra.0
.LVL73:
.LM232:
.LM233:
.LM234:
	lw	ra,28(sp)
	.cfi_restore 1
	lw	s0,24(sp)
	.cfi_restore 8
.LVL74:
.LM235:
	lw	s1,20(sp)
	.cfi_restore 9
.LVL75:
.LM236:
	li	a0,0
	addi	sp,sp,32
	.cfi_def_cfa_offset 0
.LVL76:
.LM237:
	jr	ra
	.cfi_endproc
.LFE56:
	.size	vfs_uart_init_simple_mode, .-vfs_uart_init_simple_mode
	.section	.rodata.vfs_uart_init.str1.4,"aMS",@progbits,1
	.align	2
.LC5:
	.string	"uart@4000A000"
	.align	2
.LC6:
	.string	"uart@4000A100"
	.align	2
.LC8:
	.string	"status"
	.align	2
.LC9:
	.string	"okay"
	.align	2
.LC10:
	.string	"path"
	.align	2
.LC11:
	.string	"baudrate"
	.align	2
.LC12:
	.string	"id"
	.align	2
.LC13:
	.string	"buf_size"
	.align	2
.LC14:
	.string	"rx_size"
	.align	2
.LC15:
	.string	"tx_size"
	.align	2
.LC16:
	.string	"feature"
	.align	2
.LC17:
	.string	"pin"
	.section	.text.vfs_uart_init,"ax",@progbits
	.align	1
	.globl	vfs_uart_init
	.type	vfs_uart_init, @function
vfs_uart_init:
.LVL77:
.LFB57:
.LM238:
	.cfi_startproc
.LM239:
.LM240:
	addi	sp,sp,-160
	.cfi_def_cfa_offset 160
	sw	s6,128(sp)
	.cfi_offset 22, -32
.LM241:
	lui	s6,%hi(inited)
.LM242:
	lb	a5,%lo(inited)(s6)
.LM243:
	sw	s5,132(sp)
	sw	ra,156(sp)
	sw	s0,152(sp)
	sw	s1,148(sp)
	sw	s2,144(sp)
	sw	s3,140(sp)
	sw	s4,136(sp)
	sw	s7,124(sp)
	sw	s8,120(sp)
	sw	s9,116(sp)
	sw	s10,112(sp)
	sw	s11,108(sp)
	.cfi_offset 21, -28
	.cfi_offset 1, -4
	.cfi_offset 8, -8
	.cfi_offset 9, -12
	.cfi_offset 18, -16
	.cfi_offset 19, -20
	.cfi_offset 20, -24
	.cfi_offset 23, -36
	.cfi_offset 24, -40
	.cfi_offset 25, -44
	.cfi_offset 26, -48
	.cfi_offset 27, -52
.LM244:
	li	s5,1
	beq	a5,s5,.L64
.LBB12:
.LBB13:
.LM245:
	lui	a5,%hi(.LC5)
	addi	a5,a5,%lo(.LC5)
	sw	a1,20(sp)
	sw	a5,40(sp)
.LM246:
	addi	s4,sp,48
.LM247:
	lui	a5,%hi(.LC6)
.LM248:
	lui	a1,%hi(.LANCHOR0)
.LVL78:
.LM249:
	addi	a5,a5,%lo(.LC6)
	mv	s11,a0
.LBE13:
.LBE12:
.LM250:
.LVL79:
.LBB16:
.LBI12:
.LM251:
.LBB14:
.LM252:
.LM253:
.LM254:
.LM255:
.LM256:
	li	a2,48
	addi	a1,a1,%lo(.LANCHOR0)
	mv	a0,s4
.LVL80:
.LM257:
	sw	zero,36(sp)
.LM258:
.LVL81:
.LM259:
.LM260:
.LM261:
.LM262:
.LM263:
.LM264:
.LM265:
.LM266:
	sw	a5,44(sp)
.LM267:
	addi	s2,sp,40
.LM268:
	call	memcpy
.LVL82:
.LM269:
.LM270:
.LM271:
	lui	s7,%hi(.LC8)
.LVL83:
.L74:
.LM272:
.LM273:
	lw	a2,0(s2)
	lw	a1,20(sp)
	mv	a0,s11
	call	fdt_subnode_offset
.LVL84:
	sw	a0,4(sp)
.LVL85:
.LM274:
.LM275:
	ble	a0,zero,.L66
.LM276:
.LM277:
	lui	a5,%hi(.LC8)
	mv	a1,a0
	addi	a2,a5,%lo(.LC8)
	mv	a0,s11
.LVL86:
.LM278:
	call	fdt_stringlist_count
.LVL87:
.LM279:
.LM280:
	bne	a0,s5,.L66
.LM281:
.LM282:
	lw	a1,4(sp)
	addi	a2,s7,%lo(.LC8)
	addi	a4,sp,36
	li	a3,0
	mv	a0,s11
.LVL88:
.LM283:
	call	fdt_stringlist_get
.LVL89:
.LM284:
	lw	a2,36(sp)
	li	a5,4
.LM285:
	mv	a1,a0
.LVL90:
.LM286:
.LM287:
	bne	a2,a5,.L66
.LM288:
	lui	s8,%hi(.LC9)
	addi	a0,s8,%lo(.LC9)
.LVL91:
.LM289:
	call	memcmp
.LVL92:
.LM290:
	bne	a0,zero,.L66
.LM291:
.LM292:
	lw	a1,4(sp)
	lui	s0,%hi(.LC10)
	addi	a2,s0,%lo(.LC10)
	mv	a0,s11
	call	fdt_stringlist_count
.LVL93:
.LM293:
.LM294:
	bne	a0,s5,.L66
.LM295:
.LM296:
	lw	a1,4(sp)
	li	a3,0
	addi	a2,s0,%lo(.LC10)
	addi	a4,sp,36
	mv	a0,s11
.LVL94:
.LM297:
	call	fdt_stringlist_get
.LVL95:
.LM298:
	lw	a1,4(sp)
	lui	a2,%hi(.LC11)
.LM299:
	sw	a0,12(sp)
.LVL96:
.LM300:
.LM301:
.LM302:
.LM303:
.LM304:
	addi	a3,sp,36
	addi	a2,a2,%lo(.LC11)
	mv	a0,s11
.LVL97:
.LM305:
	call	fdt_getprop
.LVL98:
.LM306:
.LM307:
	beq	a0,zero,.L66
.LM308:
.LM309:
	lw	a1,4(sp)
	lui	a2,%hi(.LC12)
.LM310:
	lw	s9,0(a0)
.LM311:
.LM312:
	addi	a3,sp,36
	addi	a2,a2,%lo(.LC12)
	mv	a0,s11
.LVL99:
.LM313:
	call	fdt_getprop
.LVL100:
.LM314:
.LM315:
	beq	a0,zero,.L66
.LM316:
.LM317:
	lw	a1,4(sp)
	lui	a2,%hi(.LC13)
.LM318:
	lw	s0,0(a0)
.LM319:
.LM320:
	addi	a2,a2,%lo(.LC13)
	mv	a0,s11
.LVL101:
.LM321:
	call	fdt_subnode_offset
.LVL102:
	mv	a1,a0
.LVL103:
.LM322:
.LM323:
	ble	a0,zero,.L75
.LM324:
.LM325:
	lui	a2,%hi(.LC14)
	sw	a0,8(sp)
	addi	a3,sp,36
	addi	a2,a2,%lo(.LC14)
	mv	a0,s11
.LVL104:
.LM326:
	call	fdt_getprop
.LVL105:
.LM327:
.LM328:
	beq	a0,zero,.L66
.LM329:
.LM330:
	lw	a1,8(sp)
	lui	a2,%hi(.LC15)
.LM331:
	lw	s1,0(a0)
.LM332:
.LM333:
	addi	a3,sp,36
	addi	a2,a2,%lo(.LC15)
	mv	a0,s11
.LVL106:
.LM334:
	call	fdt_getprop
.LVL107:
	mv	s10,a0
.LVL108:
.LM335:
.LM336:
	beq	a0,zero,.L66
.LM337:
	mv	a0,s1
.LVL109:
.LM338:
	call	fdt32_to_cpu
.LVL110:
	mv	s3,a0
.LM339:
.LM340:
	lw	a0,0(s10)
	call	fdt32_to_cpu
.LVL111:
	mv	s1,a0
.LVL112:
.L68:
.LM341:
	mv	a0,s9
	call	fdt32_to_cpu
.LVL113:
	sw	a0,16(sp)
.LM342:
	mv	a0,s0
	call	fdt32_to_cpu
.LVL114:
.LM343:
	lui	a5,%hi(.LC16)
	addi	a5,a5,%lo(.LC16)
.LM344:
	andi	s10,a0,0xff
.LVL115:
.LM345:
.LM346:
.LM347:
	mv	s0,s4
.LM348:
	sw	a5,8(sp)
.LM349:
	li	s9,1
.LVL116:
.L73:
.LM350:
.LM351:
	lw	a1,4(sp)
	lw	a2,8(sp)
	mv	a0,s11
	call	fdt_subnode_offset
.LVL117:
	mv	a1,a0
.LVL118:
.LM352:
.LM353:
	ble	a0,zero,.L70
.LM354:
.LM355:
	lw	a2,0(s0)
.LM356:
	sw	a0,24(sp)
	mv	a0,s11
.LVL119:
.LM357:
	sw	a2,28(sp)
	call	fdt_stringlist_count
.LVL120:
.LM358:
.LM359:
	lw	a1,24(sp)
	lw	a2,28(sp)
	bne	a0,s9,.L70
.LM360:
.LM361:
	addi	a4,sp,36
	li	a3,0
	mv	a0,s11
.LVL121:
.LM362:
	call	fdt_stringlist_get
.LVL122:
.LM363:
	lw	a2,36(sp)
	li	a5,4
.LM364:
	mv	a1,a0
.LVL123:
.LM365:
.LM366:
	bne	a2,a5,.L70
.LM367:
	addi	a0,s8,%lo(.LC9)
.LVL124:
.LM368:
	call	memcmp
.LVL125:
.LM369:
	bne	a0,zero,.L70
.LM370:
.LM371:
	lw	a1,4(sp)
	lui	a2,%hi(.LC17)
	addi	a2,a2,%lo(.LC17)
	mv	a0,s11
	call	fdt_subnode_offset
.LVL126:
	mv	a1,a0
.LVL127:
.LM372:
.LM373:
	ble	a0,zero,.L72
.LM374:
.LM375:
	lw	a2,4(s0)
	addi	a3,sp,36
	mv	a0,s11
.LVL128:
.LM376:
	call	fdt_getprop
.LVL129:
.LM377:
.LM378:
	beq	a0,zero,.L70
.LM379:
.LM380:
	lw	a0,0(a0)
.LVL130:
.LM381:
	call	fdt32_to_cpu
.LVL131:
.LM382:
	sb	a0,8(s0)
.LVL132:
.L70:
.LM383:
.LM384:
	addi	s0,s0,12
	addi	a5,sp,96
	bne	s0,a5,.L73
.L72:
.LM385:
.LM386:
	mv	a0,s10
	call	bl_uart_flush
.LVL133:
.LM387:
	lbu	a3,80(sp)
	lbu	a2,68(sp)
	lbu	a1,56(sp)
	lw	a5,16(sp)
	lbu	a4,92(sp)
	mv	a0,s10
	call	bl_uart_init
.LVL134:
.LM388:
.LM389:
.LM390:
.LM391:
	lw	a1,12(sp)
	mv	a3,s1
	mv	a2,s3
	mv	a0,s10
	call	dev_uart_init.isra.0
.LVL135:
.L66:
.LM392:
.LM393:
.LM394:
	addi	s2,s2,4
	bne	s4,s2,.L74
.LVL136:
.LM395:
.LBE14:
.LBE16:
.LM396:
.LM397:
	li	a5,1
	sb	a5,%lo(inited)(s6)
.LM398:
.LVL137:
.L64:
.LM399:
	lw	ra,156(sp)
	.cfi_remember_state
	.cfi_restore 1
	lw	s0,152(sp)
	.cfi_restore 8
	lw	s1,148(sp)
	.cfi_restore 9
	lw	s2,144(sp)
	.cfi_restore 18
	lw	s3,140(sp)
	.cfi_restore 19
	lw	s4,136(sp)
	.cfi_restore 20
	lw	s5,132(sp)
	.cfi_restore 21
	lw	s6,128(sp)
	.cfi_restore 22
	lw	s7,124(sp)
	.cfi_restore 23
	lw	s8,120(sp)
	.cfi_restore 24
	lw	s9,116(sp)
	.cfi_restore 25
	lw	s10,112(sp)
	.cfi_restore 26
	lw	s11,108(sp)
	.cfi_restore 27
	li	a0,0
	addi	sp,sp,160
	.cfi_def_cfa_offset 0
	jr	ra
.LVL138:
.L75:
	.cfi_restore_state
.LBB17:
.LBB15:
.LM400:
	li	s1,512
.LM401:
	mv	s3,s1
	j	.L68
.LBE15:
.LBE17:
	.cfi_endproc
.LFE57:
	.size	vfs_uart_init, .-vfs_uart_init
	.section	.text.hal_uart_send_flush,"ax",@progbits
	.align	1
	.globl	hal_uart_send_flush
	.type	hal_uart_send_flush, @function
hal_uart_send_flush:
.LVL139:
.LFB58:
.LM402:
	.cfi_startproc
.LM403:
.LM404:
	addi	sp,sp,-16
	.cfi_def_cfa_offset 16
	sw	ra,12(sp)
	.cfi_offset 1, -4
.LM405:
	lbu	a0,0(a0)
.LVL140:
.LM406:
	call	bl_uart_flush
.LVL141:
.LM407:
.LM408:
	lw	ra,12(sp)
	.cfi_restore 1
	li	a0,0
	addi	sp,sp,16
	.cfi_def_cfa_offset 0
	jr	ra
	.cfi_endproc
.LFE58:
	.size	hal_uart_send_flush, .-hal_uart_send_flush
	.section	.text.hal_uart_setbaud,"ax",@progbits
	.align	1
	.globl	hal_uart_setbaud
	.type	hal_uart_setbaud, @function
hal_uart_setbaud:
.LVL142:
.LFB59:
.LM409:
	.cfi_startproc
.LM410:
	lbu	a0,0(a0)
.LVL143:
.LM411:
	tail	bl_uart_setbaud
.LVL144:
.LM412:
	.cfi_endproc
.LFE59:
	.size	hal_uart_setbaud, .-hal_uart_setbaud
	.section	.text.hal_uart_setconfig,"ax",@progbits
	.align	1
	.globl	hal_uart_setconfig
	.type	hal_uart_setconfig, @function
hal_uart_setconfig:
.LVL145:
.LFB60:
.LM413:
	.cfi_startproc
.LM414:
	lbu	a0,0(a0)
.LVL146:
.LM415:
	tail	bl_uart_setconfig
.LVL147:
.LM416:
	.cfi_endproc
.LFE60:
	.size	hal_uart_setconfig, .-hal_uart_setconfig
	.section	.rodata.str1.4,"aMS",@progbits,1
	.align	2
.LC0:
	.string	"tx"
	.align	2
.LC1:
	.string	"rx"
	.align	2
.LC2:
	.string	"cts"
	.align	2
.LC3:
	.string	"rts"
	.section	.sbss.dev_uart1,"aw",@nobits
	.align	2
	.type	dev_uart1, @object
	.size	dev_uart1, 4
dev_uart1:
	.zero	4
	.section	.sbss.dev_uart0,"aw",@nobits
	.align	2
	.type	dev_uart0, @object
	.size	dev_uart0, 4
dev_uart0:
	.zero	4
	.section	.sbss.inited,"aw",@nobits
	.type	inited, @object
	.size	inited, 1
inited:
	.zero	1
	.section	.rodata
	.align	2
	.set	.LANCHOR0,. + 0
.LC7:
	.word	.LC0
	.word	.LC0
	.byte	-1
	.zero	3
	.word	.LC1
	.word	.LC1
	.byte	-1
	.zero	3
	.word	.LC2
	.word	.LC2
	.byte	-1
	.zero	3
	.word	.LC3
	.word	.LC3
	.byte	-1
	.zero	3
	.text
.Letext0:
	.section	.note.GNU-stack,"",@progbits
