	.file	"hal_ir.c"
	.option nopic
	.attribute arch, "rv32i2p1_m2p0_f2p2_c2p0_zicsr2p0_zmmul1p0_zca1p0_zcf1p0"
	.attribute unaligned_access, 0
	.attribute stack_align, 16
	.text
.Ltext0:
	.cfi_sections	.debug_frame
	.section	.rodata.hal_ir_init_from_dts.str1.4,"aMS",@progbits,1
	.align	2
.LC0:
	.string	"ctrltype"
	.align	2
.LC1:
	.string	"hal_ir.c"
	.align	2
.LC2:
	.string	"\033[32mINFO  \033[0m"
	.align	2
.LC3:
	.string	"[%10u][%s: %s:%4d] do not find ctrltype \r\n"
	.align	2
.LC4:
	.string	"[%10u][%s: %s:%4d] ctrltype == %d \r\n"
	.align	2
.LC5:
	.string	"rx"
	.align	2
.LC6:
	.string	"[%10u][%s: %s:%4d] ir rx NULL.\r\n"
	.align	2
.LC7:
	.string	"status"
	.align	2
.LC8:
	.string	"[%10u][%s: %s:%4d] ir rx status_countindex = %d NULL.\r\n"
	.align	2
.LC9:
	.string	"okay"
	.align	2
.LC10:
	.string	"[%10u][%s: %s:%4d] ir rx status = %s\r\n"
	.align	2
.LC11:
	.string	"pin"
	.align	2
.LC12:
	.string	"[%10u][%s: %s:%4d] ir rx pin NULL.\r\n"
	.align	2
.LC13:
	.string	"[%10u][%s: %s:%4d] pin == %d \r\n"
	.align	2
.LC14:
	.string	"interval"
	.align	2
.LC15:
	.string	"[%10u][%s: %s:%4d] ir rx interval NULL.\r\n"
	.align	2
.LC16:
	.string	"[%10u][%s: %s:%4d] add here pin = %d, interval = %d\r\n"
	.section	.text.hal_ir_init_from_dts,"ax",@progbits
	.align	1
	.globl	hal_ir_init_from_dts
	.type	hal_ir_init_from_dts, @function
hal_ir_init_from_dts:
.LVL0:
.LFB46:
.LM1:
	.cfi_startproc
.LM2:
.LM3:
.LM4:
	addi	sp,sp,-64
	.cfi_def_cfa_offset 64
.LM5:
	lui	a2,%hi(.LC0)
	addi	a3,sp,12
	addi	a2,a2,%lo(.LC0)
.LM6:
	sw	s0,56(sp)
	sw	s1,52(sp)
	sw	s2,48(sp)
	sw	s3,44(sp)
	sw	s6,32(sp)
	sw	ra,60(sp)
	sw	s4,40(sp)
	sw	s5,36(sp)
	sw	s7,28(sp)
	sw	s8,24(sp)
	.cfi_offset 8, -8
	.cfi_offset 9, -12
	.cfi_offset 18, -16
	.cfi_offset 19, -20
	.cfi_offset 22, -32
	.cfi_offset 1, -4
	.cfi_offset 20, -24
	.cfi_offset 21, -28
	.cfi_offset 23, -36
	.cfi_offset 24, -40
.LM7:
	mv	s6,a0
.LVL1:
.LM8:
.LM9:
.LM10:
	mv	s0,a1
.LM11:
	sw	zero,12(sp)
.LM12:
.LVL2:
.LM13:
.LM14:
.LM15:
.LM16:
.LM17:
.LBB48:
.LBB49:
.LM18:
	lui	s3,%hi(TrapNetCounter)
.LBE49:
.LBE48:
.LM19:
	call	fdt_getprop
.LVL3:
.LM20:
.LBB52:
.LBB50:
.LM21:
	lw	a3,%lo(TrapNetCounter)(s3)
	lui	s2,%hi(.LC1)
	lui	s1,%hi(.LC2)
.LBE50:
.LBE52:
.LM22:
	bne	a0,zero,.L2
.LM23:
.LM24:
.LM25:
.LBB53:
.LBI48:
.LM26:
.LBB51:
.LM27:
.LBE51:
.LBE53:
.LM28:
	beq	a3,zero,.L3
.LM29:
	call	xTaskGetTickCountFromISR
.LVL4:
.L36:
.LM30:
	mv	a1,a0
.LM31:
	lui	a0,%hi(.LC3)
	li	a4,68
	addi	a3,s2,%lo(.LC1)
	addi	a2,s1,%lo(.LC2)
	addi	a0,a0,%lo(.LC3)
	call	bl_printk
.LVL5:
.LM32:
.LM33:
.LM34:
	li	s4,0
.LVL6:
.L5:
.LM35:
.LM36:
.LM37:
.LM38:
	lui	a2,%hi(.LC5)
	addi	a2,a2,%lo(.LC5)
	mv	a1,s0
	mv	a0,s6
	call	fdt_subnode_offset
.LVL7:
	mv	s7,a0
.LVL8:
.LM39:
.LM40:
	bgt	a0,zero,.L8
.LM41:
.LM42:
.LM43:
.LBB54:
.LBI54:
.LM44:
.LBB55:
.LM45:
.LBE55:
.LBE54:
.LM46:
	lw	a5,%lo(TrapNetCounter)(s3)
	beq	a5,zero,.L9
.LM47:
	call	xTaskGetTickCountFromISR
.LVL9:
.L38:
.LM48:
	mv	a1,a0
.LM49:
	lui	a0,%hi(.LC6)
	li	a4,76
	addi	a3,s2,%lo(.LC1)
	addi	a2,s1,%lo(.LC2)
	addi	a0,a0,%lo(.LC6)
.LVL10:
.L40:
.LM50:
	call	bl_printk
.LVL11:
.LM51:
.LM52:
	j	.L11
.LVL12:
.L3:
.LM53:
	call	xTaskGetTickCount
.LVL13:
.LM54:
	j	.L36
.LVL14:
.L2:
.LM55:
.LM56:
	lw	a4,0(a0)
.LVL15:
.LBB56:
.LBI56:
.LM57:
.LBB57:
.LM58:
.LM59:
	srli	a5,a4,8
	andi	a5,a5,0xff
.LM60:
	slli	s4,a4,24
.LM61:
	slli	a5,a5,16
.LM62:
	or	s4,s4,a5
.LM63:
	srli	a5,a4,24
.LM64:
	srli	a4,a4,16
	andi	a4,a4,0xff
.LM65:
	or	s4,s4,a5
.LM66:
	slli	a4,a4,8
.LM67:
	or	s4,s4,a4
.LVL16:
.LM68:
.LBE57:
.LBE56:
.LM69:
.LM70:
.LM71:
.LM72:
	beq	a3,zero,.L6
.LM73:
	call	xTaskGetTickCountFromISR
.LVL17:
.L37:
.LM74:
	mv	a1,a0
.LM75:
	lui	a0,%hi(.LC4)
	mv	a5,s4
	li	a4,71
	addi	a3,s2,%lo(.LC1)
	addi	a2,s1,%lo(.LC2)
	addi	a0,a0,%lo(.LC4)
	call	bl_printk
.LVL18:
	j	.L5
.LVL19:
.L6:
.LM76:
	call	xTaskGetTickCount
.LVL20:
.LM77:
	j	.L37
.LVL21:
.L9:
.LM78:
	call	xTaskGetTickCount
.LVL22:
.LM79:
	j	.L38
.LVL23:
.L8:
.LM80:
.LM81:
	lui	s0,%hi(.LC7)
.LVL24:
.LM82:
	mv	a1,a0
	addi	a2,s0,%lo(.LC7)
	mv	a0,s6
.LVL25:
.LM83:
	call	fdt_stringlist_count
.LVL26:
.LM84:
	li	a5,1
.LM85:
	mv	s5,a0
.LVL27:
.LM86:
.LM87:
	beq	a0,a5,.L12
.LM88:
.LM89:
.LM90:
.LBB58:
.LBI58:
.LM91:
.LBB59:
.LM92:
.LBE59:
.LBE58:
.LM93:
	lw	a5,%lo(TrapNetCounter)(s3)
	beq	a5,zero,.L13
.LM94:
	call	xTaskGetTickCountFromISR
.LVL28:
.L39:
.LM95:
	mv	a1,a0
.LM96:
	lui	a0,%hi(.LC8)
	mv	a5,s5
	li	a4,80
	addi	a3,s2,%lo(.LC1)
	addi	a2,s1,%lo(.LC2)
	addi	a0,a0,%lo(.LC8)
.LVL29:
.L41:
.LM97:
	call	bl_printk
.LVL30:
.LM98:
.LM99:
.L11:
.LM100:
	li	s5,0
.LVL31:
.L15:
.LM101:
.LM102:
.LM103:
	mv	a1,s4
	mv	a0,s5
	call	bl_ir_init
.LVL32:
.LM104:
.LM105:
	lw	ra,60(sp)
	.cfi_remember_state
	.cfi_restore 1
	lw	s0,56(sp)
	.cfi_restore 8
	lw	s1,52(sp)
	.cfi_restore 9
	lw	s2,48(sp)
	.cfi_restore 18
	lw	s3,44(sp)
	.cfi_restore 19
	lw	s4,40(sp)
	.cfi_restore 20
.LVL33:
.LM106:
	lw	s5,36(sp)
	.cfi_restore 21
.LVL34:
.LM107:
	lw	s6,32(sp)
	.cfi_restore 22
.LVL35:
.LM108:
	lw	s7,28(sp)
	.cfi_restore 23
.LVL36:
.LM109:
	lw	s8,24(sp)
	.cfi_restore 24
	li	a0,0
	addi	sp,sp,64
	.cfi_def_cfa_offset 0
	jr	ra
.LVL37:
.L13:
	.cfi_restore_state
.LM110:
	call	xTaskGetTickCount
.LVL38:
.LM111:
	j	.L39
.LVL39:
.L12:
.LM112:
.LM113:
	addi	a2,s0,%lo(.LC7)
	addi	a4,sp,12
	li	a3,0
	mv	a1,s7
	mv	a0,s6
.LVL40:
.LM114:
	call	fdt_stringlist_get
.LVL41:
.LM115:
	lw	a2,12(sp)
	li	a5,4
.LM116:
	mv	s0,a0
.LVL42:
.LM117:
.LM118:
	beq	a2,a5,.L16
.L19:
.LM119:
.LM120:
.LM121:
.LBB60:
.LBI60:
.LM122:
.LBB61:
.LM123:
.LBE61:
.LBE60:
.LM124:
	lw	a5,%lo(TrapNetCounter)(s3)
	bne	a5,zero,.L17
.LM125:
	call	xTaskGetTickCount
.LVL43:
	j	.L42
.L16:
.LM126:
	mv	a1,a0
	lui	a0,%hi(.LC9)
	addi	a0,a0,%lo(.LC9)
	call	memcmp
.LVL44:
.LM127:
	bne	a0,zero,.L19
.LM128:
.LM129:
	lui	a2,%hi(.LC11)
	addi	a3,sp,12
	addi	a2,a2,%lo(.LC11)
	mv	a1,s7
	mv	a0,s6
	call	fdt_getprop
.LVL45:
.LM130:
.LBB62:
.LBB63:
.LM131:
	lw	a3,%lo(TrapNetCounter)(s3)
.LBE63:
.LBE62:
.LM132:
	bne	a0,zero,.L22
.LM133:
.LM134:
.LM135:
.LBB65:
.LBI62:
.LM136:
.LBB64:
.LM137:
.LBE64:
.LBE65:
.LM138:
	beq	a3,zero,.L23
.LM139:
	call	xTaskGetTickCountFromISR
.LVL46:
.L43:
.LM140:
	mv	a1,a0
.LM141:
	lui	a0,%hi(.LC12)
	li	a4,89
	addi	a3,s2,%lo(.LC1)
	addi	a2,s1,%lo(.LC2)
	addi	a0,a0,%lo(.LC12)
	j	.L40
.L17:
.LM142:
	call	xTaskGetTickCountFromISR
.LVL47:
.L42:
.LM143:
	mv	a1,a0
.LM144:
	lui	a0,%hi(.LC10)
	mv	a5,s0
	li	a4,84
	addi	a3,s2,%lo(.LC1)
	addi	a2,s1,%lo(.LC2)
	addi	a0,a0,%lo(.LC10)
	j	.L41
.LVL48:
.L23:
.LM145:
	call	xTaskGetTickCount
.LVL49:
.LM146:
	j	.L43
.LVL50:
.L22:
.LM147:
.LM148:
	lw	a4,0(a0)
.LVL51:
.LBB66:
.LBI66:
.LM149:
.LBB67:
.LM150:
.LM151:
	srli	a5,a4,8
	andi	a5,a5,0xff
.LM152:
	slli	a5,a5,16
.LM153:
	slli	s5,a4,24
.LVL52:
.LM154:
	srli	s0,a4,16
.LVL53:
.LM155:
	or	s5,s5,a5
.LM156:
	andi	s0,s0,0xff
.LM157:
	srli	a5,a4,24
.LM158:
	or	s5,s5,a5
.LM159:
	slli	s0,s0,8
.LM160:
	or	s0,s5,s0
.LVL54:
.LM161:
.LBE67:
.LBE66:
.LM162:
	andi	s5,s5,0xff
.LVL55:
.LM163:
.LM164:
.LM165:
.LM166:
	beq	a3,zero,.L25
.LM167:
	call	xTaskGetTickCountFromISR
.LVL56:
.L44:
.LM168:
	mv	a1,a0
.LM169:
	lui	a0,%hi(.LC13)
	andi	a5,s0,255
	li	a4,92
	addi	a3,s2,%lo(.LC1)
	addi	a2,s1,%lo(.LC2)
	addi	a0,a0,%lo(.LC13)
	mv	s8,a5
	call	bl_printk
.LVL57:
.LM170:
.LM171:
.LM172:
.LM173:
	lui	a2,%hi(.LC14)
	addi	a3,sp,12
	addi	a2,a2,%lo(.LC14)
	mv	a1,s7
	mv	a0,s6
	call	fdt_getprop
.LVL58:
.LM174:
.LBB68:
.LBB69:
.LM175:
	lw	a3,%lo(TrapNetCounter)(s3)
.LBE69:
.LBE68:
.LM176:
	bne	a0,zero,.L27
.LM177:
.LM178:
.LM179:
.LBB71:
.LBI68:
.LM180:
.LBB70:
.LM181:
.LBE70:
.LBE71:
.LM182:
	beq	a3,zero,.L28
.LM183:
	call	xTaskGetTickCountFromISR
.LVL59:
.L45:
.LM184:
	mv	a1,a0
.LM185:
	lui	a0,%hi(.LC15)
	li	a4,95
	addi	a3,s2,%lo(.LC1)
	addi	a2,s1,%lo(.LC2)
	addi	a0,a0,%lo(.LC15)
	call	bl_printk
.LVL60:
.LM186:
.LM187:
	j	.L15
.LVL61:
.L25:
.LM188:
	call	xTaskGetTickCount
.LVL62:
.LM189:
	j	.L44
.LVL63:
.L28:
.LM190:
	call	xTaskGetTickCount
.LVL64:
.LM191:
	j	.L45
.LVL65:
.L27:
.LM192:
.LM193:
	lw	a5,0(a0)
.LVL66:
.LBB72:
.LBI72:
.LM194:
.LBB73:
.LM195:
.LM196:
	srli	a4,a5,8
	andi	a4,a4,0xff
.LM197:
	slli	s0,a5,24
.LM198:
	slli	a4,a4,16
.LM199:
	or	s0,s0,a4
.LM200:
	srli	a4,a5,24
.LM201:
	srli	a5,a5,16
.LVL67:
.LM202:
	or	s0,s0,a4
.LM203:
	slli	a5,a5,8
.LM204:
	or	s0,s0,a5
.LVL68:
.LM205:
.LBE73:
.LBE72:
.LM206:
.LM207:
.LM208:
.LM209:
	beq	a3,zero,.L31
.LM210:
	call	xTaskGetTickCountFromISR
.LVL69:
.L46:
.LM211:
	mv	a1,a0
.LM212:
	slli	a6,s0,16
	lui	a0,%hi(.LC16)
	srli	a6,a6,16
	mv	a5,s8
	li	a4,98
	addi	a3,s2,%lo(.LC1)
	addi	a2,s1,%lo(.LC2)
	addi	a0,a0,%lo(.LC16)
	call	bl_printk
.LVL70:
	j	.L15
.LVL71:
.L31:
.LM213:
	call	xTaskGetTickCount
.LVL72:
.LM214:
	j	.L46
	.cfi_endproc
.LFE46:
	.size	hal_ir_init_from_dts, .-hal_ir_init_from_dts
	.section	.text.hal_irled_init,"ax",@progbits
	.align	1
	.globl	hal_irled_init
	.type	hal_irled_init, @function
hal_irled_init:
.LVL73:
.LFB47:
.LM215:
	.cfi_startproc
.LM216:
.LM217:
	li	a5,1
	bgtu	a0,a5,.L49
.LM218:
	addi	sp,sp,-16
	.cfi_def_cfa_offset 16
	sw	ra,12(sp)
	sw	s0,8(sp)
	.cfi_offset 1, -4
	.cfi_offset 8, -8
	mv	s0,a0
.LM219:
	call	bl_irled_gpio_init
.LVL74:
.LM220:
	mv	a0,s0
	call	bl_irled_init
.LVL75:
.LM221:
.LM222:
	lui	a5,%hi(g_chip_type)
.LM223:
	lw	ra,12(sp)
	.cfi_restore 1
.LM224:
	sw	s0,%lo(g_chip_type)(a5)
.LM225:
.LM226:
	lw	s0,8(sp)
	.cfi_restore 8
.LVL76:
.LM227:
	li	a0,0
.LM228:
	addi	sp,sp,16
	.cfi_def_cfa_offset 0
	jr	ra
.LVL77:
.L49:
.LM229:
	li	a0,-1
.LVL78:
.LM230:
	ret
	.cfi_endproc
.LFE47:
	.size	hal_irled_init, .-hal_irled_init
	.section	.text.hal_irled_send_data,"ax",@progbits
	.align	1
	.globl	hal_irled_send_data
	.type	hal_irled_send_data, @function
hal_irled_send_data:
.LVL79:
.LFB48:
.LM231:
	.cfi_startproc
.LM232:
.LM233:
.LM234:
.LM235:
.LM236:
	beq	a1,zero,.L60
	ble	a0,zero,.L60
.LM237:
.LM238:
	lui	a5,%hi(g_chip_type)
.LM239:
	lw	a5,%lo(g_chip_type)(a5)
.LM240:
	addi	sp,sp,-32
	.cfi_def_cfa_offset 32
	sw	s4,8(sp)
	sw	ra,28(sp)
	sw	s0,24(sp)
	sw	s1,20(sp)
	sw	s2,16(sp)
	sw	s3,12(sp)
	sw	s5,4(sp)
	.cfi_offset 20, -24
	.cfi_offset 1, -4
	.cfi_offset 8, -8
	.cfi_offset 9, -12
	.cfi_offset 18, -16
	.cfi_offset 19, -20
	.cfi_offset 21, -28
.LM241:
	li	s4,50
.LM242:
	beq	a5,zero,.L68
.LM243:
	li	s4,24
.L68:
.LM244:
	lui	s3,%hi(last_us.0)
	mv	s2,a1
	mv	s1,a0
.LM245:
	call	bl_timer_now_us64
.LVL80:
.LM246:
	lw	s0,%lo(last_us.0)(s3)
	lw	a5,%lo(last_us.0+4)(s3)
.LM247:
	li	s5,0
.LVL81:
.LM248:
.LM249:
	sub	a4,a0,s0
	sgtu	a0,a4,a0
	sub	a5,a1,a5
	sub	a5,a5,a0
.LM250:
	bne	s5,a5,.L57
.LM251:
	bleu	s4,a4,.L57
.LM252:
.LM253:
	call	bl_timer_now_us64
.LVL82:
.LM254:
	add	s0,s0,s4
	sub	a0,s0,a0
	call	bl_timer_delay_us
.LVL83:
.L57:
.LM255:
.LBB74:
.LBI74:
.LM256:
.LBB75:
.LM257:
 #APP
# 94 "/home/shivani/bl602_iot_sdk/components/bl602/bl602_std/bl602_std/RISCV/Core/Include/cmsis_compatible_gcc.h" 1
	csrci mstatus, 8
# 0 "" 2
 #NO_APP
.LBE75:
.LBE74:
.LM258:
.LVL84:
.LM259:
.LM260:
	li	s0,0
.LVL85:
.L59:
.LM261:
	slli	a5,s0,2
	add	a5,s2,a5
	lw	a0,0(a5)
.LM262:
	addi	s0,s0,1
.LVL86:
.LM263:
	call	bl_irled_send_one_data
.LVL87:
.LM264:
.LM265:
	bgt	s1,s0,.L59
.LM266:
.LBB76:
.LBI76:
.LM267:
.LBB77:
.LM268:
 #APP
# 89 "/home/shivani/bl602_iot_sdk/components/bl602/bl602_std/bl602_std/RISCV/Core/Include/cmsis_compatible_gcc.h" 1
	csrsi mstatus, 8
# 0 "" 2
 #NO_APP
.LBE77:
.LBE76:
.LM269:
.LM270:
	call	bl_timer_now_us64
.LVL88:
.LM271:
	lw	ra,28(sp)
	.cfi_restore 1
	lw	s0,24(sp)
	.cfi_restore 8
.LVL89:
.LM272:
	sw	a0,%lo(last_us.0)(s3)
	sw	a1,%lo(last_us.0+4)(s3)
.LM273:
.LM274:
	lw	s1,20(sp)
	.cfi_restore 9
.LVL90:
.LM275:
	lw	s2,16(sp)
	.cfi_restore 18
.LVL91:
.LM276:
	lw	s3,12(sp)
	.cfi_restore 19
	lw	s4,8(sp)
	.cfi_restore 20
.LVL92:
.LM277:
	lw	s5,4(sp)
	.cfi_restore 21
.LM278:
	li	a0,0
.LM279:
	addi	sp,sp,32
	.cfi_def_cfa_offset 0
	jr	ra
.LVL93:
.L60:
.LM280:
	li	a0,-1
.LVL94:
.LM281:
	ret
	.cfi_endproc
.LFE48:
	.size	hal_irled_send_data, .-hal_irled_send_data
	.section	.sbss.last_us.0,"aw",@nobits
	.align	3
	.type	last_us.0, @object
	.size	last_us.0, 8
last_us.0:
	.zero	8
	.section	.sbss.g_chip_type,"aw",@nobits
	.align	2
	.type	g_chip_type, @object
	.size	g_chip_type, 4
g_chip_type:
	.zero	4
	.text
.Letext0:
	.section	.note.GNU-stack,"",@progbits
