	.file	"hal_spi.c"
	.option nopic
	.attribute arch, "rv32i2p1_m2p0_f2p2_c2p0_zicsr2p0_zmmul1p0_zca1p0_zcf1p0"
	.attribute unaligned_access, 0
	.attribute stack_align, 16
	.text
.Ltext0:
	.cfi_sections	.debug_frame
	.section	.text.fdt32_to_cpu,"ax",@progbits
	.align	1
	.type	fdt32_to_cpu, @function
fdt32_to_cpu:
.LVL0:
.LFB29:
.LM1:
	.cfi_startproc
.LM2:
.LM3:
	srli	a4,a0,8
	andi	a4,a4,0xff
.LM4:
	slli	a5,a0,24
.LM5:
	slli	a4,a4,16
.LM6:
	or	a5,a5,a4
.LM7:
	srli	a4,a0,24
.LM8:
	srli	a0,a0,16
.LVL1:
.LM9:
	andi	a0,a0,0xff
.LM10:
	or	a5,a5,a4
.LM11:
	slli	a0,a0,8
.LM12:
	or	a0,a5,a0
	ret
	.cfi_endproc
.LFE29:
	.size	fdt32_to_cpu, .-fdt32_to_cpu
	.section	.text.bl_spi0_dma_int_handler_tx,"ax",@progbits
	.align	1
	.globl	bl_spi0_dma_int_handler_tx
	.type	bl_spi0_dma_int_handler_tx, @function
bl_spi0_dma_int_handler_tx:
.LFB77:
.LM13:
	.cfi_startproc
.LM14:
.LVL2:
.LM15:
.LM16:
	addi	sp,sp,-32
	.cfi_def_cfa_offset 32
	sw	s0,24(sp)
	.cfi_offset 8, -8
.LM17:
	lui	s0,%hi(g_hal_buf)
	lw	a5,%lo(g_hal_buf)(s0)
.LM18:
	sw	ra,28(sp)
	.cfi_offset 1, -4
.LM19:
	sw	zero,12(sp)
.LM20:
.LM21:
	beq	a5,zero,.L2
.LM22:
	lbu	a0,9(a5)
	call	bl_dma_int_clear
.LVL3:
.LM23:
.LM24:
	lw	a5,%lo(g_hal_buf)(s0)
	lw	a0,16(a5)
.LM25:
	beq	a0,zero,.L2
.LM26:
.LM27:
	addi	a2,sp,12
	li	a1,1
	call	xEventGroupSetBitsFromISR
.LVL4:
.LM28:
.LM29:
	beq	a0,zero,.L2
.LM30:
.LM31:
	lw	a5,12(sp)
	beq	a5,zero,.L2
.LM32:
	call	vTaskSwitchContext
.LVL5:
.LM33:
.LM34:
.L2:
.LM35:
	lw	ra,28(sp)
	.cfi_restore 1
	lw	s0,24(sp)
	.cfi_restore 8
	addi	sp,sp,32
	.cfi_def_cfa_offset 0
	jr	ra
	.cfi_endproc
.LFE77:
	.size	bl_spi0_dma_int_handler_tx, .-bl_spi0_dma_int_handler_tx
	.section	.text.bl_spi0_dma_int_handler_rx,"ax",@progbits
	.align	1
	.globl	bl_spi0_dma_int_handler_rx
	.type	bl_spi0_dma_int_handler_rx, @function
bl_spi0_dma_int_handler_rx:
.LFB78:
.LM36:
	.cfi_startproc
.LM37:
.LVL6:
.LM38:
.LM39:
	addi	sp,sp,-32
	.cfi_def_cfa_offset 32
	sw	s0,24(sp)
	.cfi_offset 8, -8
.LM40:
	lui	s0,%hi(g_hal_buf)
	lw	a5,%lo(g_hal_buf)(s0)
.LM41:
	sw	ra,28(sp)
	.cfi_offset 1, -4
.LM42:
	sw	zero,12(sp)
.LM43:
.LM44:
	beq	a5,zero,.L16
.LM45:
	lbu	a0,10(a5)
	call	bl_dma_int_clear
.LVL7:
.LM46:
.LM47:
	lw	a5,%lo(g_hal_buf)(s0)
	lw	a0,16(a5)
.LM48:
	beq	a0,zero,.L16
.LM49:
.LM50:
	addi	a2,sp,12
	li	a1,2
	call	xEventGroupSetBitsFromISR
.LVL8:
.LM51:
.LM52:
	beq	a0,zero,.L16
.LM53:
.LM54:
	lw	a5,12(sp)
	beq	a5,zero,.L16
.LM55:
	call	vTaskSwitchContext
.LVL9:
.LM56:
.LM57:
.L16:
.LM58:
	lw	ra,28(sp)
	.cfi_restore 1
	lw	s0,24(sp)
	.cfi_restore 8
	addi	sp,sp,32
	.cfi_def_cfa_offset 0
	jr	ra
	.cfi_endproc
.LFE78:
	.size	bl_spi0_dma_int_handler_rx, .-bl_spi0_dma_int_handler_rx
	.section	.text.hal_spi_init,"ax",@progbits
	.align	1
	.globl	hal_spi_init
	.type	hal_spi_init, @function
hal_spi_init:
.LVL10:
.LFB66:
.LM59:
	.cfi_startproc
.LM60:
.LM61:
.LM62:
.LM63:
.LM64:
.LM65:
	addi	sp,sp,-48
	.cfi_def_cfa_offset 48
	sw	ra,44(sp)
	sw	s0,40(sp)
	sw	s1,36(sp)
	sw	s2,32(sp)
	.cfi_offset 1, -4
	.cfi_offset 8, -8
	.cfi_offset 9, -12
	.cfi_offset 18, -16
.LM66:
	lw	s0,12(a0)
.LVL11:
.LM67:
.LM68:
	li	a0,-1
.LVL12:
.LM69:
	beq	s0,zero,.L30
.LVL13:
.LM70:
.LM71:
.LBB6:
.LBI6:
.LM72:
.LBB7:
.LM73:
.LM74:
.LM75:
.LM76:
	lbu	a5,12(s0)
.LM77:
	li	a2,4
	addi	a1,sp,24
.LM78:
	sb	a5,24(sp)
.LM79:
.LM80:
	lbu	a5,11(s0)
.LM81:
	mv	a0,a2
.LM82:
	sb	a5,25(sp)
.LM83:
.LM84:
	lbu	a5,13(s0)
	sb	a5,26(sp)
.LM85:
.LM86:
	lbu	a5,14(s0)
	sb	a5,27(sp)
.LM87:
	call	GLB_GPIO_Func_Init
.LVL14:
.LM88:
.LM89:
	lbu	a5,2(s0)
.LM90:
	li	a0,0
.LM91:
	bne	a5,zero,.L42
.LM92:
	li	a0,1
.L42:
	call	GLB_Set_SPI_0_ACT_MOD_Sel
.LVL15:
.LM93:
.LBE7:
.LBE6:
.LM94:
.LBB8:
.LBI8:
.LM95:
.LBB9:
.LM96:
.LM97:
.LM98:
.LM99:
.LM100:
.LM101:
.LM102:
.LM103:
	lbu	a5,1(s0)
.LM104:
	li	s1,40001536
	addi	s1,s1,-1536
.LM105:
	mv	s2,a5
.LVL16:
.LM106:
.LM107:
	lw	a5,4(s0)
.LM108:
	li	a1,0
	li	a0,1
.LM109:
	divu	s1,s1,a5
.LVL17:
.LM110:
	call	GLB_Set_SPI_CLK
.LVL18:
.LM111:
.LM112:
	addi	a1,sp,16
	mv	a0,s2
.LM113:
	sb	s1,16(sp)
.LM114:
.LM115:
	sb	s1,17(sp)
.LM116:
.LM117:
	sb	s1,18(sp)
.LM118:
.LM119:
	sb	s1,19(sp)
.LM120:
.LM121:
	sb	s1,20(sp)
.LM122:
	call	SPI_ClockConfig
.LVL19:
.LM123:
.LM124:
.LM125:
.LM126:
	li	a4,256
	sw	a4,24(sp)
.LM127:
	sb	zero,30(sp)
.LM128:
.LM129:
	lbu	a5,8(s0)
.LM130:
	beq	a5,zero,.L34
.LM131:
.LM132:
	li	a3,1
	beq	a5,a3,.L35
.LM133:
.LM134:
	li	a3,2
	beq	a5,a3,.L36
.LM135:
.LM136:
	li	a4,3
	bne	a5,a4,.L37
.LM137:
.LM138:
.LM139:
	li	a5,257
.L35:
.LM140:
.LM141:
.LM142:
	sh	a5,28(sp)
	j	.L37
.L36:
.LM143:
.LM144:
.LM145:
	sh	a4,28(sp)
.L37:
.LM146:
.LM147:
	addi	a1,sp,24
	li	a0,0
	call	SPI_Init
.LVL20:
.LM148:
.LM149:
	lbu	a5,2(s0)
.LM150:
	li	a1,0
.LM151:
	bne	a5,zero,.L43
.LM152:
	li	a1,1
.L43:
	mv	a0,s2
	call	SPI_Disable
.LVL21:
.LM153:
	li	a2,1
	li	a1,6
	mv	a0,s2
	call	SPI_IntMask
.LVL22:
.LM154:
.LM155:
.LM156:
.LM157:
.LM158:
	li	a5,16842752
	addi	a5,a5,257
.LM159:
	addi	a1,sp,12
	mv	a0,s2
.LM160:
	sw	a5,12(sp)
.LM161:
	call	SPI_FifoConfig
.LVL23:
.LM162:
	call	DMA_Disable
.LVL24:
.LM163:
	lbu	a0,9(s0)
	li	a2,1
	li	a1,2
	call	DMA_IntMask
.LVL25:
.LM164:
	lbu	a0,9(s0)
	li	a2,0
	li	a1,0
	call	DMA_IntMask
.LVL26:
.LM165:
	lbu	a0,9(s0)
	li	a2,0
	li	a1,1
	call	DMA_IntMask
.LVL27:
.LM166:
	lbu	a0,10(s0)
	li	a2,1
	li	a1,2
	call	DMA_IntMask
.LVL28:
.LM167:
	lbu	a0,10(s0)
	li	a2,0
	li	a1,0
	call	DMA_IntMask
.LVL29:
.LM168:
	lbu	a0,10(s0)
	li	a2,0
	li	a1,1
	call	DMA_IntMask
.LVL30:
.LM169:
	li	a0,31
	call	bl_irq_enable
.LVL31:
.LM170:
	lbu	a0,9(s0)
	lui	a1,%hi(bl_spi0_dma_int_handler_tx)
	li	a3,0
	li	a2,0
	addi	a1,a1,%lo(bl_spi0_dma_int_handler_tx)
	call	bl_dma_irq_register
.LVL32:
.LM171:
	lbu	a0,10(s0)
	lui	a1,%hi(bl_spi0_dma_int_handler_rx)
	li	a3,0
	li	a2,0
	addi	a1,a1,%lo(bl_spi0_dma_int_handler_rx)
	call	bl_dma_irq_register
.LVL33:
.LM172:
.LM173:
.LBE9:
.LBE8:
.LM174:
.LM175:
.LM176:
	li	a0,0
.LVL34:
.L30:
.LM177:
	lw	ra,44(sp)
	.cfi_remember_state
	.cfi_restore 1
	lw	s0,40(sp)
	.cfi_restore 8
.LVL35:
.LM178:
	lw	s1,36(sp)
	.cfi_restore 9
	lw	s2,32(sp)
	.cfi_restore 18
	addi	sp,sp,48
	.cfi_def_cfa_offset 0
	jr	ra
.LVL36:
.L34:
	.cfi_restore_state
.LBB11:
.LBB10:
.LM179:
.LM180:
.LM181:
	sh	zero,28(sp)
	j	.L37
.LBE10:
.LBE11:
	.cfi_endproc
.LFE66:
	.size	hal_spi_init, .-hal_spi_init
	.section	.text.hal_spi_finalize,"ax",@progbits
	.align	1
	.globl	hal_spi_finalize
	.type	hal_spi_finalize, @function
hal_spi_finalize:
.LVL37:
.LFB67:
.LM182:
	.cfi_startproc
.LM183:
.LM184:
.LM185:
	li	a0,0
.LVL38:
.LM186:
	ret
	.cfi_endproc
.LFE67:
	.size	hal_spi_finalize, .-hal_spi_finalize
	.section	.text.hal_spi_send,"ax",@progbits
	.align	1
	.globl	hal_spi_send
	.type	hal_spi_send, @function
hal_spi_send:
.LVL39:
.LFB68:
.LM187:
	.cfi_startproc
.LM188:
.LM189:
.LM190:
	li	a0,0
.LVL40:
.LM191:
	ret
	.cfi_endproc
.LFE68:
	.size	hal_spi_send, .-hal_spi_send
	.section	.text.hal_spi_recv,"ax",@progbits
	.align	1
	.globl	hal_spi_recv
	.type	hal_spi_recv, @function
hal_spi_recv:
.LFB80:
	.cfi_startproc
.LM192:
	li	a0,0
	ret
	.cfi_endproc
.LFE80:
	.size	hal_spi_recv, .-hal_spi_recv
	.section	.text.hal_spi_send_recv,"ax",@progbits
	.align	1
	.globl	hal_spi_send_recv
	.type	hal_spi_send_recv, @function
hal_spi_send_recv:
.LVL41:
.LFB70:
.LM193:
	.cfi_startproc
.LM194:
.LM195:
.LM196:
	li	a0,0
.LVL42:
.LM197:
	ret
	.cfi_endproc
.LFE70:
	.size	hal_spi_send_recv, .-hal_spi_send_recv
	.section	.text.hal_spi_set_rwmode,"ax",@progbits
	.align	1
	.globl	hal_spi_set_rwmode
	.type	hal_spi_set_rwmode, @function
hal_spi_set_rwmode:
.LVL43:
.LFB71:
.LM198:
	.cfi_startproc
.LM199:
.LM200:
.LM201:
	li	a4,3
	bgtu	a1,a4,.L50
.LM202:
.LM203:
	addi	sp,sp,-16
	.cfi_def_cfa_offset 16
	sw	ra,12(sp)
	.cfi_offset 1, -4
.LM204:
	lbu	a3,0(a0)
.LM205:
	li	a2,20
.LM206:
	lw	a4,12(a0)
.LVL44:
.LM207:
.LM208:
	mul	a3,a3,a2
	add	a4,a4,a3
.LVL45:
.LM209:
	sb	a1,2(a4)
.LVL46:
.LM210:
.LM211:
	sb	a1,4(a0)
.LM212:
	call	hal_spi_init
.LVL47:
.LM213:
.LM214:
	lw	ra,12(sp)
	.cfi_restore 1
.LM215:
	li	a0,0
.LM216:
	addi	sp,sp,16
	.cfi_def_cfa_offset 0
	jr	ra
.LVL48:
.L50:
.LM217:
	li	a0,-1
.LVL49:
.LM218:
	ret
	.cfi_endproc
.LFE71:
	.size	hal_spi_set_rwmode, .-hal_spi_set_rwmode
	.section	.text.hal_spi_set_rwspeed,"ax",@progbits
	.align	1
	.globl	hal_spi_set_rwspeed
	.type	hal_spi_set_rwspeed, @function
hal_spi_set_rwspeed:
.LVL50:
.LFB72:
.LM219:
	.cfi_startproc
.LM220:
.LM221:
.LM222:
.LM223:
.LM224:
.LM225:
	lw	a5,8(a0)
	beq	a5,a1,.L69
.LM226:
	li	a4,40001536
.LM227:
	li	a5,0
.LM228:
	li	a2,0
.LM229:
	li	a3,0
.LM230:
	addi	a4,a4,-1536
.LM231:
	li	t1,256
.LVL51:
.L59:
.LM232:
	mv	a6,a3
.LM233:
	addi	a3,a3,1
.LVL52:
.LM234:
	div	a7,a4,a3
.LM235:
	beq	a7,a1,.L63
.LM236:
.LM237:
	bleu	a7,a1,.L58
.LVL53:
.L57:
.LM238:
	bne	a3,t1,.L59
.LM239:
.LM240:
	li	a3,-1
.LVL54:
.LM241:
	bne	a2,zero,.L61
.LVL55:
.L70:
.LM242:
	mv	a0,a3
.LVL56:
.LM243:
	ret
.LVL57:
.L63:
.LM244:
	mv	a5,a1
.LVL58:
.LM245:
	li	a2,1
.LVL59:
.LM246:
	j	.L57
.LVL60:
.L58:
.LM247:
.LM248:
	bne	a2,zero,.L61
.LM249:
.LM250:
.LM251:
	li	a3,-1
.LM252:
	beq	a6,zero,.L70
.LM253:
.LM254:
	addi	a3,a6,1
.LM255:
	div	a5,a4,a6
.LVL61:
.LM256:
	div	a3,a4,a3
.LM257:
	sub	a4,a3,a1
.LM258:
	sub	a1,a1,a5
.LVL62:
.LM259:
	bleu	a4,a1,.L61
.LM260:
	mv	a5,a3
.LVL63:
.L61:
.LM261:
.LM262:
.LM263:
	addi	sp,sp,-16
	.cfi_def_cfa_offset 16
	sw	ra,12(sp)
	.cfi_offset 1, -4
.LM264:
	lbu	a3,0(a0)
.LM265:
	li	a2,20
.LVL64:
.LM266:
	lw	a4,12(a0)
.LVL65:
.LM267:
.LM268:
	mul	a3,a3,a2
	add	a4,a4,a3
.LVL66:
.LM269:
	sw	a5,4(a4)
.LVL67:
.LM270:
.LM271:
	sw	a5,8(a0)
.LM272:
	call	hal_spi_init
.LVL68:
.LM273:
.LM274:
	lw	ra,12(sp)
	.cfi_restore 1
.LM275:
	li	a3,0
.LM276:
	mv	a0,a3
	addi	sp,sp,16
	.cfi_def_cfa_offset 0
	jr	ra
.LVL69:
.L69:
.LM277:
	li	a3,0
	j	.L70
	.cfi_endproc
.LFE72:
	.size	hal_spi_set_rwspeed, .-hal_spi_set_rwspeed
	.section	.text.hal_spi_transfer,"ax",@progbits
	.align	1
	.globl	hal_spi_transfer
	.type	hal_spi_transfer, @function
hal_spi_transfer:
.LVL70:
.LFB73:
.LM278:
	.cfi_startproc
.LM279:
.LM280:
.LM281:
.LM282:
.LM283:
	beq	a1,zero,.L86
	beq	a0,zero,.L86
.LM284:
.LM285:
	addi	sp,sp,-96
	.cfi_def_cfa_offset 96
	sw	ra,92(sp)
	sw	s0,88(sp)
	sw	s1,84(sp)
	sw	s2,80(sp)
	sw	s3,76(sp)
	sw	s4,72(sp)
	sw	s5,68(sp)
	sw	s6,64(sp)
	sw	s7,60(sp)
	sw	s8,56(sp)
	sw	s9,52(sp)
	sw	s10,48(sp)
	sw	s11,44(sp)
	.cfi_offset 1, -4
	.cfi_offset 8, -8
	.cfi_offset 9, -12
	.cfi_offset 18, -16
	.cfi_offset 19, -20
	.cfi_offset 20, -24
	.cfi_offset 21, -28
	.cfi_offset 22, -32
	.cfi_offset 23, -36
	.cfi_offset 24, -40
	.cfi_offset 25, -44
	.cfi_offset 26, -48
	.cfi_offset 27, -52
.LM286:
	lw	s7,12(a0)
.LVL71:
.LM287:
.LM288:
	li	a5,-1
.LM289:
	beq	s7,zero,.L72
.LBB16:
.LBB17:
.LBB18:
.LBB19:
.LM290:
	li	s8,1073782784
	sw	a2,12(sp)
	sw	a0,8(sp)
	mv	s1,a1
.LBE19:
.LBE18:
.LBE17:
.LBE16:
.LM291:
	li	s3,0
.LBB33:
.LBB28:
.LBB24:
.LBB20:
.LM292:
	addi	s8,s8,648
.LM293:
	li	s9,67108864
.LVL72:
.L74:
.LM294:
.LBE20:
.LBE24:
.LBE28:
.LBE33:
.LM295:
	lw	a5,12(sp)
	bgtu	a5,s3,.L85
.LM296:
	li	a5,0
.LVL73:
.L72:
.LM297:
	lw	ra,92(sp)
	.cfi_remember_state
	.cfi_restore 1
	lw	s0,88(sp)
	.cfi_restore 8
	lw	s1,84(sp)
	.cfi_restore 9
	lw	s2,80(sp)
	.cfi_restore 18
	lw	s3,76(sp)
	.cfi_restore 19
	lw	s4,72(sp)
	.cfi_restore 20
	lw	s5,68(sp)
	.cfi_restore 21
	lw	s6,64(sp)
	.cfi_restore 22
	lw	s7,60(sp)
	.cfi_restore 23
.LVL74:
.LM298:
	lw	s8,56(sp)
	.cfi_restore 24
	lw	s9,52(sp)
	.cfi_restore 25
	lw	s10,48(sp)
	.cfi_restore 26
	lw	s11,44(sp)
	.cfi_restore 27
	mv	a0,a5
	addi	sp,sp,96
	.cfi_def_cfa_offset 0
	jr	ra
.LVL75:
.L85:
	.cfi_restore_state
.LM299:
.LM300:
	lw	a5,8(sp)
.LBB34:
.LBB29:
.LM301:
	li	s0,20
	li	a1,3
.LBE29:
.LBE34:
.LM302:
	lbu	s2,0(a5)
.LBB35:
.LBB30:
.LM303:
	li	a5,11
	sb	a5,26(sp)
.LM304:
	mul	s0,s2,s0
.LM305:
	li	a5,4096
	addi	a5,a5,-1534
.LM306:
	li	s6,1
.LM307:
	sh	a5,28(sp)
.LBE30:
.LBE35:
.LM308:
	lw	s10,0(s1)
.LM309:
	lw	s11,4(s1)
.LM310:
	lw	s5,8(s1)
.LVL76:
.LBB36:
.LBI16:
.LM311:
.LBB31:
.LM312:
.LM313:
.LM314:
.LM315:
.LM316:
.LM317:
.LM318:
.LM319:
.LM320:
.LM321:
.LM322:
.LM323:
.LM324:
.LM325:
	sh	s6,24(sp)
.LM326:
	sb	zero,30(sp)
.LM327:
	add	s0,s7,s0
.LVL77:
.LM328:
	lw	a0,16(s0)
	call	xEventGroupClearBits
.LVL78:
.LM329:
	lbu	a0,9(s0)
	call	DMA_Channel_Disable
.LVL79:
.LM330:
	lbu	a0,10(s0)
	call	DMA_Channel_Disable
.LVL80:
.LM331:
	lbu	a0,9(s0)
	call	bl_dma_int_clear
.LVL81:
.LM332:
	lbu	a0,10(s0)
	call	bl_dma_int_clear
.LVL82:
.LM333:
	call	DMA_Enable
.LVL83:
.LM334:
.LM335:
	lbu	a5,2(s0)
.LM336:
	lbu	a0,1(s0)
	mv	a1,s6
.LM337:
	beq	a5,zero,.L103
.LM338:
	li	a1,0
.L103:
	call	SPI_Enable
.LVL84:
.LM339:
.LBB25:
.LBI18:
.LM340:
.LBB21:
.LM341:
.LM342:
.LM343:
.LM344:
.LM345:
.LM346:
	srli	s4,s5,11
.LVL85:
.LM347:
.LM348:
	andi	s5,s5,2047
.LVL86:
.LM349:
.LM350:
	snez	a5,s5
	add	s4,s4,a5
.LVL87:
.LM351:
.LM352:
.LM353:
.LM354:
.LM355:
.LM356:
.LM357:
.LM358:
	slli	a0,s4,4
	call	pvPortMalloc
.LVL88:
	sw	a0,4(sp)
.LVL89:
.LM359:
.LM360:
	beq	a0,zero,.L84
.LM361:
.LM362:
	slli	a0,s4,4
.LVL90:
.LM363:
	call	pvPortMalloc
.LVL91:
	mv	s6,a0
.LVL92:
.LM364:
.LM365:
	beq	a0,zero,.L79
	lw	a3,4(sp)
.LM366:
	li	t1,1073782784
.LM367:
	mv	a4,a0
.LM368:
	li	a2,0
.LM369:
	addi	t3,s4,-1
.LM370:
	li	t4,33554432
.LM371:
	addi	t1,t1,652
.LM372:
	li	t5,134217728
.LVL93:
.L80:
.LM373:
	bne	s4,a2,.L83
.LVL94:
.LM374:
.LBE21:
.LBE25:
.LM375:
.LM376:
	lbu	a0,9(s0)
	addi	a1,sp,24
	call	DMA_LLI_Init
.LVL95:
.LM377:
	lbu	a0,10(s0)
	addi	a1,sp,28
	call	DMA_LLI_Init
.LVL96:
.LM378:
	lw	a1,4(sp)
	lbu	a0,9(s0)
	call	DMA_LLI_Update
.LVL97:
.LM379:
	lbu	a0,10(s0)
	mv	a1,s6
	call	DMA_LLI_Update
.LVL98:
.LM380:
	lbu	a0,9(s0)
	call	DMA_Channel_Enable
.LVL99:
.LM381:
	lbu	a0,10(s0)
	call	DMA_Channel_Enable
.LVL100:
.LM382:
.LM383:
	li	a5,20
	mul	s2,s2,a5
	li	a3,1
	li	a4,-1
	mv	a2,a3
	li	a1,3
	add	s2,s7,s2
	lw	a0,16(s2)
	call	xEventGroupWaitBits
.LVL101:
.LM384:
.LM385:
.LM386:
	lw	a0,4(sp)
	call	vPortFree
.LVL102:
.LM387:
	mv	a0,s6
	j	.L104
.LVL103:
.L79:
.LBB26:
.LBB22:
.LM388:
.LM389:
	lw	a0,4(sp)
.LVL104:
.L104:
.LM390:
.LBE22:
.LBE26:
.LM391:
	call	vPortFree
.LVL105:
.L84:
.LM392:
.LBE31:
.LBE36:
.LM393:
	addi	s3,s3,1
.LVL106:
.LM394:
	slli	s3,s3,16
	srli	s3,s3,16
.LVL107:
.LM395:
	addi	s1,s1,28
	j	.L74
.LVL108:
.L83:
.LBB37:
.LBB32:
.LBB27:
.LBB23:
.LM396:
.LM397:
	li	a5,4096
	addi	a0,a5,-2048
.LM398:
	beq	s5,zero,.L81
.LM399:
.LM400:
	bne	a2,t3,.L81
.LM401:
.LM402:
	slli	a0,s5,16
	srli	a0,a0,16
.L81:
.LVL109:
.LM403:
.LM404:
.LM405:
.LM406:
	lw	t0,12(a3)
	slli	t6,a2,11
.LM407:
	sub	a5,a2,t3
.LM408:
	add	a6,s10,t6
.LM409:
	seqz	a5,a5
.LVL110:
.LM410:
.LM411:
	sw	a6,0(a3)
.LM412:
.LM413:
	slli	a5,a5,31
.LVL111:
.LM414:
	or	a6,a0,s9
	or	a6,a5,a6
	and	t0,t0,t4
	or	a6,a6,t0
.LM415:
	sw	s8,4(a3)
.LM416:
.LM417:
	sw	a6,12(a3)
.LM418:
.LVL112:
.LM419:
.LM420:
.LM421:
	or	a0,a0,t5
.LVL113:
.LM422:
	or	a5,a5,a0
	lw	a0,12(a4)
.LM423:
	add	t6,s11,t6
.LM424:
	sw	t1,0(a4)
.LM425:
.LM426:
	and	a0,a0,t4
	or	a5,a5,a0
.LM427:
	sw	t6,4(a4)
.LM428:
.LM429:
	sw	a5,12(a4)
.LM430:
.LM431:
	beq	a2,zero,.L82
.LM432:
.LM433:
	sw	a3,-8(a3)
.LM434:
.LM435:
	sw	a4,-8(a4)
.L82:
.LM436:
.LM437:
	sw	zero,8(a3)
.LM438:
.LM439:
	sw	zero,8(a4)
.LM440:
	addi	a2,a2,1
.LVL114:
.LM441:
	addi	a3,a3,16
	addi	a4,a4,16
	j	.L80
.LVL115:
.L86:
	.cfi_def_cfa_offset 0
	.cfi_restore 1
	.cfi_restore 8
	.cfi_restore 9
	.cfi_restore 18
	.cfi_restore 19
	.cfi_restore 20
	.cfi_restore 21
	.cfi_restore 22
	.cfi_restore 23
	.cfi_restore 24
	.cfi_restore 25
	.cfi_restore 26
	.cfi_restore 27
.LM442:
.LBE23:
.LBE27:
.LBE32:
.LBE37:
.LM443:
	li	a5,-1
.LM444:
	mv	a0,a5
.LVL116:
.LM445:
	ret
	.cfi_endproc
.LFE73:
	.size	hal_spi_transfer, .-hal_spi_transfer
	.section	.text.vfs_spi_init_fullname,"ax",@progbits
	.align	1
	.globl	vfs_spi_init_fullname
	.type	vfs_spi_init_fullname, @function
vfs_spi_init_fullname:
.LVL117:
.LFB74:
.LM446:
	.cfi_startproc
.LM447:
.LM448:
.LM449:
.LM450:
	addi	sp,sp,-48
	.cfi_def_cfa_offset 48
	sw	s3,28(sp)
	sw	s4,24(sp)
	sw	s5,20(sp)
	sw	s6,16(sp)
	sw	s7,12(sp)
	sw	s8,8(sp)
	sw	s9,4(sp)
	sw	s10,0(sp)
	.cfi_offset 19, -20
	.cfi_offset 20, -24
	.cfi_offset 21, -28
	.cfi_offset 22, -32
	.cfi_offset 23, -36
	.cfi_offset 24, -40
	.cfi_offset 25, -44
	.cfi_offset 26, -48
	mv	s8,a5
	sw	ra,44(sp)
	sw	s0,40(sp)
	sw	s1,36(sp)
	sw	s2,32(sp)
	.cfi_offset 1, -4
	.cfi_offset 8, -8
	.cfi_offset 9, -12
	.cfi_offset 18, -16
.LM451:
	mv	s6,a0
	mv	s5,a1
	mv	s4,a2
	mv	s7,a3
	mv	s3,a4
	mv	s9,a6
	mv	s10,a7
.LM452:
	call	strlen
.LVL118:
.LM453:
.LM454:
	li	a5,31
	bgt	a0,a5,.L113
.LM455:
.LM456:
	lui	s0,%hi(g_hal_buf)
.LM457:
	lw	a5,%lo(g_hal_buf)(s0)
	bne	a5,zero,.L107
.LM458:
.LM459:
	li	a0,20
.LVL119:
.LM460:
	call	aos_malloc
.LVL120:
.LM461:
	sw	a0,%lo(g_hal_buf)(s0)
.LM462:
.LM463:
	beq	a0,zero,.L108
.LM464:
	li	a2,20
	li	a1,0
	call	memset
.LVL121:
.L107:
.LM465:
.LM466:
	li	s1,20
	mul	s1,s5,s1
.LM467:
	lw	s2,%lo(g_hal_buf)(s0)
.LM468:
	call	xEventGroupCreate
.LVL122:
.LM469:
	add	s2,s2,s1
	sw	a0,16(s2)
.LM470:
.LM471:
.LM472:
	lw	a0,%lo(g_hal_buf)(s0)
.LM473:
	add	a5,a0,s1
.LM474:
	lw	a5,16(a5)
	bne	a5,zero,.L109
.L118:
.LM475:
	call	aos_free
.LVL123:
.LM476:
.L108:
.LM477:
	li	s3,-12
.LVL124:
.L105:
.LM478:
	lw	ra,44(sp)
	.cfi_remember_state
	.cfi_restore 1
	lw	s0,40(sp)
	.cfi_restore 8
	lw	s1,36(sp)
	.cfi_restore 9
	lw	s2,32(sp)
	.cfi_restore 18
	lw	s4,24(sp)
	.cfi_restore 20
.LVL125:
.LM479:
	lw	s5,20(sp)
	.cfi_restore 21
.LVL126:
.LM480:
	lw	s6,16(sp)
	.cfi_restore 22
.LVL127:
.LM481:
	lw	s7,12(sp)
	.cfi_restore 23
.LVL128:
.LM482:
	lw	s8,8(sp)
	.cfi_restore 24
.LVL129:
.LM483:
	lw	s9,4(sp)
	.cfi_restore 25
.LVL130:
.LM484:
	lw	s10,0(sp)
	.cfi_restore 26
.LVL131:
.LM485:
	mv	a0,s3
	lw	s3,28(sp)
	.cfi_restore 19
	addi	sp,sp,48
	.cfi_def_cfa_offset 0
.LVL132:
.LM486:
	jr	ra
.LVL133:
.L109:
	.cfi_restore_state
.LM487:
.LM488:
	li	a0,16
	call	aos_malloc
.LVL134:
	mv	s2,a0
.LVL135:
.LM489:
.LM490:
	bne	a0,zero,.L110
.LM491:
.LM492:
	lw	a5,%lo(g_hal_buf)(s0)
	add	a5,a5,s1
	lw	a0,16(a5)
.LVL136:
.LM493:
	call	vEventGroupDelete
.LVL137:
.LM494:
	lw	a0,%lo(g_hal_buf)(s0)
	j	.L118
.LVL138:
.L110:
.LM495:
	li	a2,16
	li	a1,0
	call	memset
.LVL139:
.LM496:
.LM497:
	sb	s5,0(s2)
.LM498:
.LM499:
	lw	a5,%lo(g_hal_buf)(s0)
.LM500:
	sw	s3,8(s2)
.LM501:
	sb	s4,4(s2)
.LM502:
.LM503:
.LM504:
	add	a5,a5,s1
	sb	s5,1(a5)
.LM505:
.LM506:
	lw	a5,%lo(g_hal_buf)(s0)
.LM507:
	lbu	a3,48(sp)
.LM508:
	lui	a1,%hi(spi_ops)
.LM509:
	add	a5,a5,s1
	sb	s4,2(a5)
.LM510:
.LM511:
	lw	a4,%lo(g_hal_buf)(s0)
.LM512:
	mv	a2,s2
	addi	a1,a1,%lo(spi_ops)
	add	a5,a4,s1
.LM513:
	sb	a3,12(a5)
.LM514:
	lbu	a3,52(sp)
.LM515:
	sw	s3,4(a5)
.LM516:
	sb	s7,8(a5)
.LM517:
.LM518:
.LM519:
	sb	a3,13(a5)
.LM520:
	lbu	a3,56(sp)
.LM521:
	sb	s8,9(a5)
.LM522:
.LM523:
	sb	s9,10(a5)
.LM524:
.LM525:
	sb	s10,11(a5)
.LM526:
.LM527:
.LM528:
.LM529:
	sb	a3,14(a5)
.LM530:
.LM531:
	sw	a4,12(s2)
.LM532:
.LM533:
.LM534:
	mv	a0,s6
	call	aos_register_driver
.LVL140:
	mv	s3,a0
.LVL141:
.LM535:
.LM536:
	beq	a0,zero,.L105
.LM537:
	mv	a0,s2
.LVL142:
.LM538:
	call	aos_free
.LVL143:
.LM539:
	lw	a5,%lo(g_hal_buf)(s0)
	add	a5,a5,s1
	lw	a0,16(a5)
	call	vEventGroupDelete
.LVL144:
.LM540:
	lw	a0,%lo(g_hal_buf)(s0)
	call	aos_free
.LVL145:
.LM541:
.LM542:
	j	.L105
.LVL146:
.L113:
.LM543:
	li	s3,-22
.LVL147:
.LM544:
	j	.L105
	.cfi_endproc
.LFE74:
	.size	vfs_spi_init_fullname, .-vfs_spi_init_fullname
	.section	.rodata.spi_arg_set_fdt2.str1.4,"aMS",@progbits,1
	.align	2
.LC0:
	.string	"spi@4000F000"
	.align	2
.LC1:
	.string	"status"
	.align	2
.LC2:
	.string	"okay"
	.align	2
.LC3:
	.string	"mode"
	.align	2
.LC4:
	.string	"master"
	.align	2
.LC5:
	.string	"path"
	.align	2
.LC6:
	.string	"slave"
	.align	2
.LC7:
	.string	"port"
	.align	2
.LC8:
	.string	"polar_phase"
	.align	2
.LC9:
	.string	"freq"
	.align	2
.LC10:
	.string	"pin"
	.align	2
.LC11:
	.string	"clk"
	.align	2
.LC12:
	.string	"cs"
	.align	2
.LC13:
	.string	"mosi"
	.align	2
.LC14:
	.string	"miso"
	.align	2
.LC15:
	.string	"dma_cfg"
	.align	2
.LC16:
	.string	"tx_dma_ch"
	.align	2
.LC17:
	.string	"rx_dma_ch"
	.section	.text.spi_arg_set_fdt2,"ax",@progbits
	.align	1
	.globl	spi_arg_set_fdt2
	.type	spi_arg_set_fdt2, @function
spi_arg_set_fdt2:
.LVL148:
.LFB75:
.LM545:
	.cfi_startproc
.LM546:
.LM547:
.LM548:
.LM549:
.LM550:
.LM551:
.LM552:
.LM553:
.LM554:
.LM555:
.LM556:
.LM557:
.LM558:
.LM559:
.LM560:
.LM561:
	lui	a2,%hi(.LC0)
.LM562:
	addi	sp,sp,-96
	.cfi_def_cfa_offset 96
.LM563:
	addi	a2,a2,%lo(.LC0)
.LM564:
	sw	s1,84(sp)
	sw	ra,92(sp)
	sw	s0,88(sp)
	sw	s2,80(sp)
	sw	s3,76(sp)
	sw	s4,72(sp)
	sw	s5,68(sp)
	sw	s6,64(sp)
	sw	s7,60(sp)
	sw	s8,56(sp)
	sw	s9,52(sp)
	sw	s10,48(sp)
	.cfi_offset 9, -12
	.cfi_offset 1, -4
	.cfi_offset 8, -8
	.cfi_offset 18, -16
	.cfi_offset 19, -20
	.cfi_offset 20, -24
	.cfi_offset 21, -28
	.cfi_offset 22, -32
	.cfi_offset 23, -36
	.cfi_offset 24, -40
	.cfi_offset 25, -44
	.cfi_offset 26, -48
.LM565:
	mv	s1,a0
.LM566:
	sw	zero,44(sp)
.LM567:
.LVL149:
.LM568:
.LM569:
.LM570:
.LM571:
.LM572:
.LM573:
.LM574:
.LM575:
	call	fdt_subnode_offset
.LVL150:
.LM576:
.LM577:
	ble	a0,zero,.L121
.LM578:
	lui	a2,%hi(.LC1)
	mv	a1,a0
	addi	a2,a2,%lo(.LC1)
	mv	s2,a0
.LM579:
.LM580:
	addi	a4,sp,44
	li	a3,0
	mv	a0,s1
.LVL151:
.LM581:
	call	fdt_stringlist_get
.LVL152:
.LM582:
	lw	a2,44(sp)
	li	a5,4
.LM583:
	mv	a1,a0
.LVL153:
.LM584:
.LM585:
	bne	a2,a5,.L121
.LM586:
	lui	a0,%hi(.LC2)
.LVL154:
.LM587:
	addi	a0,a0,%lo(.LC2)
	call	memcmp
.LVL155:
.LM588:
	bne	a0,zero,.L121
.LM589:
.LM590:
	lui	a2,%hi(.LC3)
	addi	a4,sp,44
	mv	a1,s2
	li	a3,0
	addi	a2,a2,%lo(.LC3)
	mv	a0,s1
	call	fdt_stringlist_get
.LVL156:
.LM591:
	lw	a5,44(sp)
.LM592:
	li	a4,1
.LM593:
	mv	a1,a0
.LVL157:
.LM594:
.LM595:
	addi	a5,a5,-5
.LM596:
	bgtu	a5,a4,.L121
.LM597:
	lui	s0,%hi(.LC4)
	sw	a0,28(sp)
	li	a2,6
	addi	a0,s0,%lo(.LC4)
.LVL158:
.LM598:
	call	memcmp
.LVL159:
.LM599:
	lw	a1,28(sp)
	bne	a0,zero,.L123
.LVL160:
.L125:
.LM600:
.LM601:
	li	a2,6
	addi	a0,s0,%lo(.LC4)
	call	memcmp
.LVL161:
.LM602:
	lui	s0,%hi(.LC5)
.LM603:
	mv	s9,a0
.LVL162:
.LM604:
.LM605:
	addi	a2,s0,%lo(.LC5)
	mv	a1,s2
	mv	a0,s1
.LVL163:
.LM606:
	call	fdt_stringlist_count
.LVL164:
.LM607:
.LM608:
	li	a5,1
	beq	a0,a5,.L153
.LVL165:
.L121:
.LM609:
.LM610:
.LM611:
	lw	ra,92(sp)
	.cfi_remember_state
	.cfi_restore 1
	lw	s0,88(sp)
	.cfi_restore 8
	lw	s1,84(sp)
	.cfi_restore 9
	lw	s2,80(sp)
	.cfi_restore 18
	lw	s3,76(sp)
	.cfi_restore 19
	lw	s4,72(sp)
	.cfi_restore 20
	lw	s5,68(sp)
	.cfi_restore 21
	lw	s6,64(sp)
	.cfi_restore 22
	lw	s7,60(sp)
	.cfi_restore 23
	lw	s8,56(sp)
	.cfi_restore 24
	lw	s9,52(sp)
	.cfi_restore 25
	lw	s10,48(sp)
	.cfi_restore 26
	li	a0,0
	addi	sp,sp,96
	.cfi_def_cfa_offset 0
	jr	ra
.LVL166:
.L123:
	.cfi_restore_state
.LM612:
	lui	a0,%hi(.LC6)
	li	a2,5
	addi	a0,a0,%lo(.LC6)
	sw	a1,28(sp)
.LVL167:
.LM613:
	call	memcmp
.LVL168:
.LM614:
	lw	a1,28(sp)
	beq	a0,zero,.L125
	j	.L121
.LVL169:
.L153:
.LM615:
.LM616:
	li	a3,0
	addi	a2,s0,%lo(.LC5)
	mv	a1,s2
	addi	a4,sp,44
	mv	a0,s1
.LVL170:
.LM617:
	call	fdt_stringlist_get
.LVL171:
.LM618:
	lui	a2,%hi(.LC7)
.LM619:
	mv	s10,a0
.LVL172:
.LM620:
.LM621:
.LM622:
.LM623:
.LM624:
	addi	a3,sp,44
	addi	a2,a2,%lo(.LC7)
	mv	a1,s2
	mv	a0,s1
.LVL173:
.LM625:
	call	fdt_getprop
.LVL174:
.LM626:
.LM627:
	beq	a0,zero,.L121
.LM628:
.LM629:
	lw	a0,0(a0)
.LVL175:
.LM630:
	call	fdt32_to_cpu
.LVL176:
.LM631:
.LM632:
	andi	a0,a0,0xff
.LM633:
	bne	a0,zero,.L121
.LM634:
.LM635:
	lui	a2,%hi(.LC8)
	addi	a3,sp,44
	addi	a2,a2,%lo(.LC8)
	mv	a1,s2
	mv	a0,s1
.LVL177:
.LM636:
	call	fdt_getprop
.LVL178:
.LM637:
.LM638:
	beq	a0,zero,.L121
.LM639:
.LM640:
	lw	a5,0(a0)
.LM641:
	lui	a2,%hi(.LC9)
	addi	a3,sp,44
	addi	a2,a2,%lo(.LC9)
	mv	a1,s2
	mv	a0,s1
.LVL179:
.LM642:
	mv	s3,a5
.LM643:
.LM644:
	call	fdt_getprop
.LVL180:
.LM645:
.LM646:
	beq	a0,zero,.L121
.LM647:
.LM648:
	lw	a5,0(a0)
.LM649:
	lui	a2,%hi(.LC10)
	addi	a2,a2,%lo(.LC10)
	mv	a1,s2
	mv	a0,s1
.LVL181:
.LM650:
	mv	s4,a5
.LM651:
.LM652:
	call	fdt_subnode_offset
.LVL182:
.LM653:
	lui	a2,%hi(.LC11)
.LM654:
	mv	s0,a0
.LVL183:
.LM655:
.LM656:
.LM657:
	mv	a1,a0
	addi	a3,sp,44
	addi	a2,a2,%lo(.LC11)
	mv	a0,s1
	call	fdt_getprop
.LVL184:
.LM658:
.LM659:
	beq	a0,zero,.L121
.LM660:
.LM661:
	lw	a5,0(a0)
.LM662:
	lui	a2,%hi(.LC12)
	addi	a3,sp,44
	addi	a2,a2,%lo(.LC12)
	mv	a1,s0
	mv	a0,s1
.LVL185:
.LM663:
	mv	s5,a5
.LM664:
.LM665:
	call	fdt_getprop
.LVL186:
.LM666:
.LM667:
	beq	a0,zero,.L121
.LM668:
.LM669:
	lw	a5,0(a0)
.LM670:
	lui	a2,%hi(.LC13)
	addi	a3,sp,44
	addi	a2,a2,%lo(.LC13)
	mv	a1,s0
	mv	a0,s1
.LVL187:
.LM671:
	mv	s6,a5
.LM672:
.LM673:
	call	fdt_getprop
.LVL188:
.LM674:
.LM675:
	beq	a0,zero,.L121
.LM676:
.LM677:
	lw	a5,0(a0)
.LM678:
	lui	a2,%hi(.LC14)
	addi	a3,sp,44
	addi	a2,a2,%lo(.LC14)
	mv	a1,s0
	mv	a0,s1
.LVL189:
.LM679:
	mv	s7,a5
.LM680:
.LM681:
	call	fdt_getprop
.LVL190:
.LM682:
.LM683:
	beq	a0,zero,.L121
.LM684:
.LM685:
	lw	a5,0(a0)
.LM686:
	lui	a2,%hi(.LC15)
	addi	a2,a2,%lo(.LC15)
	mv	a1,s2
	mv	a0,s1
.LVL191:
.LM687:
	mv	s8,a5
.LM688:
.LM689:
	call	fdt_subnode_offset
.LVL192:
.LM690:
	lui	a2,%hi(.LC16)
.LM691:
	mv	a1,a0
.LVL193:
.LM692:
.LM693:
.LM694:
	sw	a0,28(sp)
	addi	a3,sp,44
	addi	a2,a2,%lo(.LC16)
	mv	a0,s1
.LVL194:
.LM695:
	call	fdt_getprop
.LVL195:
.LM696:
.LM697:
	beq	a0,zero,.L121
.LM698:
.LM699:
	lw	a5,0(a0)
.LM700:
	lw	a1,28(sp)
	lui	a2,%hi(.LC17)
	addi	a3,sp,44
	addi	a2,a2,%lo(.LC17)
	mv	a0,s1
.LVL196:
.LM701:
	mv	s2,a5
.LVL197:
.LM702:
.LM703:
	call	fdt_getprop
.LVL198:
	mv	s0,a0
.LVL199:
.LM704:
.LM705:
	beq	a0,zero,.L121
.LM706:
	mv	a0,s3
	call	fdt32_to_cpu
.LVL200:
	mv	s1,a0
.LVL201:
.LM707:
	mv	a0,s4
	call	fdt32_to_cpu
.LVL202:
	sw	a0,28(sp)
.LVL203:
.LM708:
	mv	a0,s5
	call	fdt32_to_cpu
.LVL204:
	mv	s3,a0
.LM709:
	mv	a0,s6
	call	fdt32_to_cpu
.LVL205:
	mv	s4,a0
.LM710:
	mv	a0,s7
	call	fdt32_to_cpu
.LVL206:
	mv	s5,a0
.LM711:
	mv	a0,s8
	call	fdt32_to_cpu
.LVL207:
	mv	s6,a0
.LM712:
	mv	a0,s2
	call	fdt32_to_cpu
.LVL208:
	mv	s2,a0
.LM713:
.LM714:
	lw	a0,0(s0)
	call	fdt32_to_cpu
.LVL209:
.LM715:
.LM716:
	andi	a5,s6,0xff
	sw	a5,8(sp)
	lw	a4,28(sp)
	andi	a5,s5,0xff
	sw	a5,4(sp)
	andi	a5,s4,0xff
	sw	a5,0(sp)
	andi	a6,a0,0xff
	andi	a7,s3,0xff
	andi	a5,s2,0xff
	andi	a3,s1,0xff
	snez	a2,s9
	li	a1,0
	mv	a0,s10
.LVL210:
.LM717:
	call	vfs_spi_init_fullname
.LVL211:
.LM718:
.LM719:
	j	.L121
	.cfi_endproc
.LFE75:
	.size	spi_arg_set_fdt2, .-spi_arg_set_fdt2
	.section	.text.vfs_spi_fdt_init,"ax",@progbits
	.align	1
	.globl	vfs_spi_fdt_init
	.type	vfs_spi_fdt_init, @function
vfs_spi_fdt_init:
.LVL212:
.LFB76:
.LM720:
	.cfi_startproc
.LM721:
	tail	spi_arg_set_fdt2
.LVL213:
.LM722:
	.cfi_endproc
.LFE76:
	.size	vfs_spi_fdt_init, .-vfs_spi_fdt_init
	.globl	g_hal_buf
	.section	.sbss.g_hal_buf,"aw",@nobits
	.align	2
	.type	g_hal_buf, @object
	.size	g_hal_buf, 4
g_hal_buf:
	.zero	4
	.text
.Letext0:
	.section	.note.GNU-stack,"",@progbits
