	.file	"hal_adc.c"
	.option nopic
	.attribute arch, "rv32i2p1_m2p0_f2p2_c2p0_zicsr2p0_zmmul1p0_zca1p0_zcf1p0"
	.attribute unaligned_access, 0
	.attribute stack_align, 16
	.text
.Ltext0:
	.cfi_sections	.debug_frame
	.section	.text.check_adc_gpio_valid,"ax",@progbits
	.align	1
	.type	check_adc_gpio_valid, @function
check_adc_gpio_valid:
.LVL0:
.LFB23:
.LM1:
	.cfi_startproc
.LM2:
.LM3:
.LM4:
	addi	sp,sp,-48
	.cfi_def_cfa_offset 48
.LM5:
	li	a5,4
	sw	a5,0(sp)
	li	a5,5
	sw	a5,4(sp)
	li	a5,6
	sw	a5,8(sp)
	li	a5,9
	sw	a5,12(sp)
	li	a5,10
	sw	a5,16(sp)
	li	a5,11
	sw	a5,20(sp)
	li	a5,12
	sw	a5,24(sp)
	li	a5,13
	sw	a5,28(sp)
	li	a5,14
	sw	a5,32(sp)
	li	a5,15
	sw	a5,36(sp)
.LM6:
.LVL1:
.LM7:
	addi	a4,sp,40
	mv	a5,sp
.LVL2:
.L3:
.LM8:
.LM9:
	lw	a3,0(a5)
	beq	a3,a0,.L4
.LM10:
.LM11:
	addi	a5,a5,4
	bne	a5,a4,.L3
.LM12:
	li	a0,-1
.LVL3:
.L1:
.LM13:
	addi	sp,sp,48
	.cfi_remember_state
	.cfi_def_cfa_offset 0
	jr	ra
.LVL4:
.L4:
	.cfi_restore_state
.LM14:
	li	a0,0
.LVL5:
.LM15:
	j	.L1
	.cfi_endproc
.LFE23:
	.size	check_adc_gpio_valid, .-check_adc_gpio_valid
	.section	.text.hal_adc_callback_register,"ax",@progbits
	.align	1
	.globl	hal_adc_callback_register
	.type	hal_adc_callback_register, @function
hal_adc_callback_register:
.LVL6:
.LFB25:
.LM16:
	.cfi_startproc
.LM17:
.LM18:
.LM19:
	beq	a0,zero,.L9
.LM20:
	addi	sp,sp,-16
	.cfi_def_cfa_offset 16
	sw	s0,8(sp)
	.cfi_offset 8, -8
	mv	s0,a0
.LM21:
.LM22:
	li	a0,1
.LVL7:
.LM23:
	sw	ra,12(sp)
	.cfi_offset 1, -4
.LM24:
	call	bl_dma_find_ctx_by_channel
.LVL8:
.LM25:
.LM26:
	sw	s0,24(a0)
.LM27:
.LM28:
	lw	ra,12(sp)
	.cfi_restore 1
	lw	s0,8(sp)
	.cfi_restore 8
.LVL9:
.LM29:
	li	a0,0
.LVL10:
.LM30:
	addi	sp,sp,16
	.cfi_def_cfa_offset 0
	jr	ra
.LVL11:
.L9:
.LM31:
	li	a0,-1
.LVL12:
.LM32:
	ret
	.cfi_endproc
.LFE25:
	.size	hal_adc_callback_register, .-hal_adc_callback_register
	.section	.text.hal_adc_add_channel,"ax",@progbits
	.align	1
	.globl	hal_adc_add_channel
	.type	hal_adc_add_channel, @function
hal_adc_add_channel:
.LVL13:
.LFB26:
.LM33:
	.cfi_startproc
.LM34:
.LM35:
.LM36:
.LM37:
.LM38:
	addi	sp,sp,-16
	.cfi_def_cfa_offset 16
	sw	s0,8(sp)
	sw	ra,12(sp)
	.cfi_offset 8, -8
	.cfi_offset 1, -4
.LM39:
	mv	s0,a0
.LM40:
	call	check_adc_gpio_valid
.LVL14:
.LM41:
.LM42:
	li	a5,-1
	beq	a0,a5,.L14
.LM43:
	mv	a0,s0
.LVL15:
.LM44:
	call	bl_adc_gpio_init
.LVL16:
.LM45:
.LM46:
	mv	a0,s0
	call	bl_adc_get_channel_by_gpio
.LVL17:
	mv	s0,a0
.LVL18:
.LM47:
.LM48:
	li	a0,1
	call	bl_dma_find_ctx_by_channel
.LVL19:
.LM49:
.LM50:
	lw	a5,16(a0)
.LM51:
	li	a4,1
	sll	a4,a4,s0
.LM52:
	or	a5,a5,a4
.LM53:
	sw	a5,16(a0)
.LM54:
.LM55:
	li	a0,0
.LVL20:
.L14:
.LM56:
	lw	ra,12(sp)
	.cfi_restore 1
	lw	s0,8(sp)
	.cfi_restore 8
	addi	sp,sp,16
	.cfi_def_cfa_offset 0
	jr	ra
	.cfi_endproc
.LFE26:
	.size	hal_adc_add_channel, .-hal_adc_add_channel
	.section	.text.hal_adc_init,"ax",@progbits
	.align	1
	.globl	hal_adc_init
	.type	hal_adc_init, @function
hal_adc_init:
.LVL21:
.LFB24:
.LM57:
	.cfi_startproc
.LM58:
.LM59:
.LM60:
.LM61:
	addi	sp,sp,-48
	.cfi_def_cfa_offset 48
	sw	s2,32(sp)
	sw	ra,44(sp)
	sw	s0,40(sp)
	sw	s1,36(sp)
	sw	s3,28(sp)
	.cfi_offset 18, -16
	.cfi_offset 1, -4
	.cfi_offset 8, -8
	.cfi_offset 9, -12
	.cfi_offset 19, -20
.LM62:
	mv	s2,a2
.LM63:
	bne	a0,zero,.L18
.LM64:
.LM65:
	addi	a5,a1,-40
.LM66:
	li	a4,1260
	bleu	a5,a4,.L19
.LVL22:
.L21:
.LM67:
	li	s1,-1
.L17:
.LM68:
	lw	ra,44(sp)
	.cfi_remember_state
	.cfi_restore 1
	lw	s0,40(sp)
	.cfi_restore 8
	lw	s2,32(sp)
	.cfi_restore 18
	lw	s3,28(sp)
	.cfi_restore 19
	mv	a0,s1
	lw	s1,36(sp)
	.cfi_restore 9
	addi	sp,sp,48
	.cfi_def_cfa_offset 0
	jr	ra
.LVL23:
.L18:
	.cfi_restore_state
.LM69:
.LM70:
	li	a5,1
	bne	a0,a5,.L21
.LM71:
.LM72:
	li	a5,16384
.LM73:
	addi	a4,a1,-500
.LM74:
	addi	a5,a5,-884
	bgtu	a4,a5,.L21
.L19:
.LM75:
	mv	s0,a0
.LM76:
.LM77:
	mv	a0,a3
.LVL24:
.LM78:
	mv	s3,a3
	sw	a1,12(sp)
	call	check_adc_gpio_valid
.LVL25:
.LM79:
	mv	s1,a0
.LVL26:
.LM80:
.LM81:
	bne	a0,zero,.L21
.LM82:
	lw	a1,12(sp)
	mv	a0,s0
	call	bl_adc_freq_init
.LVL27:
.LM83:
	mv	a1,s3
	mv	a0,s0
	call	bl_adc_init
.LVL28:
.LM84:
.LM85:
	bne	s0,zero,.L22
.LM86:
	li	s2,12
.LVL29:
.L22:
.LM87:
.LM88:
	mv	a1,s2
	mv	a0,s0
	call	bl_adc_dma_init
.LVL30:
.LM89:
.LM90:
	blt	a0,zero,.L21
.LM91:
	mv	a0,s3
.LVL31:
.LM92:
	call	hal_adc_add_channel
.LVL32:
.LM93:
	call	bl_adc_start
.LVL33:
.LM94:
.LM95:
	j	.L17
	.cfi_endproc
.LFE24:
	.size	hal_adc_init, .-hal_adc_init
	.section	.text.hal_adc_get_data,"ax",@progbits
	.align	1
	.globl	hal_adc_get_data
	.type	hal_adc_get_data, @function
hal_adc_get_data:
.LVL34:
.LFB27:
.LM96:
	.cfi_startproc
.LM97:
.LM98:
.LM99:
.LM100:
.LM101:
.LM102:
.LM103:
	addi	sp,sp,-64
	.cfi_def_cfa_offset 64
	sw	s1,52(sp)
	sw	s2,48(sp)
	sw	ra,60(sp)
	sw	s0,56(sp)
	.cfi_offset 9, -12
	.cfi_offset 18, -16
	.cfi_offset 1, -4
	.cfi_offset 8, -8
.LM104:
	mv	s1,a0
	mv	s2,a1
.LM105:
	call	check_adc_gpio_valid
.LVL35:
.LM106:
.LM107:
	li	a5,-1
	bne	a0,a5,.L25
.LVL36:
.L27:
.LM108:
	li	a0,-1
.L24:
.LM109:
	lw	ra,60(sp)
	.cfi_remember_state
	.cfi_restore 1
	lw	s0,56(sp)
	.cfi_restore 8
	lw	s1,52(sp)
	.cfi_restore 9
	lw	s2,48(sp)
	.cfi_restore 18
.LVL37:
.LM110:
	addi	sp,sp,64
	.cfi_def_cfa_offset 0
	jr	ra
.LVL38:
.L25:
	.cfi_restore_state
.LM111:
.LM112:
	li	a0,1
.LVL39:
.LM113:
	call	bl_dma_find_ctx_by_channel
.LVL40:
	mv	s0,a0
.LVL41:
.LM114:
.LM115:
	beq	a0,zero,.L27
.LM116:
.LM117:
	mv	a0,s1
	call	bl_adc_get_channel_by_gpio
.LVL42:
.LM118:
	lw	a4,16(s0)
.LM119:
	li	a5,1
	sll	a5,a5,a0
.LM120:
	and	a5,a5,a4
.LM121:
	mv	s1,a0
.LVL43:
.LM122:
.LM123:
	beq	a5,zero,.L27
.LM124:
.LM125:
	lw	a1,4(s0)
.LM126:
	beq	a1,zero,.L27
.LM127:
	li	a2,48
	mv	a0,sp
	call	memcpy
.LVL44:
.LM128:
.LM129:
	mv	a3,s2
	mv	a2,s1
	li	a1,12
	mv	a0,sp
	call	bl_adc_parse_data
.LVL45:
.LM130:
.LM131:
	j	.L24
	.cfi_endproc
.LFE27:
	.size	hal_adc_get_data, .-hal_adc_get_data
	.section	.text.hal_prase_adc_data,"ax",@progbits
	.align	1
	.globl	hal_prase_adc_data
	.type	hal_prase_adc_data, @function
hal_prase_adc_data:
.LVL46:
.LFB28:
.LM132:
	.cfi_startproc
.LM133:
.LM134:
.LM135:
.LM136:
	addi	sp,sp,-32
	.cfi_def_cfa_offset 32
	sw	s0,24(sp)
	.cfi_offset 8, -8
	mv	s0,a0
.LM137:
	mv	a0,a1
.LVL47:
.LM138:
	sw	ra,28(sp)
	.cfi_offset 1, -4
.LM139:
	sw	a2,12(sp)
.LM140:
	call	bl_adc_get_channel_by_gpio
.LVL48:
.LM141:
.LM142:
	li	a5,-1
	beq	a0,a5,.L38
	mv	a2,a0
.LM143:
.LM144:
	mv	a0,s0
.LVL49:
.LM145:
	lw	s0,24(sp)
	.cfi_remember_state
	.cfi_restore 8
.LVL50:
.LM146:
	lw	a3,12(sp)
.LM147:
	lw	ra,28(sp)
	.cfi_restore 1
.LM148:
	li	a1,12
.LM149:
	addi	sp,sp,32
	.cfi_def_cfa_offset 0
.LVL51:
.LM150:
	tail	bl_adc_parse_data
.LVL52:
.L38:
	.cfi_restore_state
.LM151:
	lw	ra,28(sp)
	.cfi_restore 1
	lw	s0,24(sp)
	.cfi_restore 8
.LVL53:
.LM152:
	addi	sp,sp,32
	.cfi_def_cfa_offset 0
.LVL54:
.LM153:
	jr	ra
	.cfi_endproc
.LFE28:
	.size	hal_prase_adc_data, .-hal_prase_adc_data
	.section	.text.hal_parse_data_arr,"ax",@progbits
	.align	1
	.globl	hal_parse_data_arr
	.type	hal_parse_data_arr, @function
hal_parse_data_arr:
.LVL55:
.LFB29:
.LM154:
	.cfi_startproc
.LM155:
.LM156:
.LM157:
	slli	a2,a2,2
.LVL56:
.LM158:
	li	a5,0
.LVL57:
.L42:
.LM159:
	bne	a5,a2,.L43
.LM160:
.LM161:
	li	a0,0
.LVL58:
.LM162:
	ret
.LVL59:
.L43:
.LM163:
.LM164:
	add	a3,a0,a5
.LM165:
	lhu	a3,0(a3)
.LM166:
	add	a4,a1,a5
	addi	a5,a5,4
	sw	a3,0(a4)
.LM167:
	j	.L42
	.cfi_endproc
.LFE29:
	.size	hal_parse_data_arr, .-hal_parse_data_arr
	.text
.Letext0:
	.section	.note.GNU-stack,"",@progbits
